
firmware.elf:     file format elf32-littleriscv


Disassembly of section .text:

00000000 <_start>:
       0:	00100137          	lui	x2,0x100
       4:	00010517          	auipc	x10,0x10
       8:	a2050513          	add	x10,x10,-1504 # fa24 <file_dir>
       c:	00013597          	auipc	x11,0x13
      10:	aa458593          	add	x11,x11,-1372 # 12ab0 <_ebss>
      14:	00b55863          	bge	x10,x11,24 <end_init_bss>

00000018 <loop_init_bss>:
      18:	00052023          	sw	x0,0(x10)
      1c:	00450513          	add	x10,x10,4
      20:	feb54ce3          	blt	x10,x11,18 <loop_init_bss>

00000024 <end_init_bss>:
      24:	57d010ef          	jal	1da0 <main>

00000028 <load_option>:
      28:	98010113          	add	x2,x2,-1664 # ff980 <_ebss+0xeced0>
      2c:	66112e23          	sw	x1,1660(x2)
      30:	66812c23          	sw	x8,1656(x2)
      34:	00100613          	li	x12,1
      38:	0000f5b7          	lui	x11,0xf
      3c:	a1458593          	add	x11,x11,-1516 # ea14 <__clzsi2+0x88>
      40:	40010513          	add	x10,x2,1024
      44:	1ec080ef          	jal	8230 <f_open>
      48:	00100413          	li	x8,1
      4c:	12051c63          	bnez	x10,184 <load_option+0x15c>
      50:	66912a23          	sw	x9,1652(x2)
      54:	67212823          	sw	x18,1648(x2)
      58:	67312623          	sw	x19,1644(x2)
      5c:	67412423          	sw	x20,1640(x2)
      60:	67512223          	sw	x21,1636(x2)
      64:	67612023          	sw	x22,1632(x2)
      68:	65712e23          	sw	x23,1628(x2)
      6c:	02300493          	li	x9,35
      70:	0000f9b7          	lui	x19,0xf
      74:	0000f937          	lui	x18,0xf
      78:	0000fab7          	lui	x21,0xf
      7c:	0000fb37          	lui	x22,0xf
      80:	00010a37          	lui	x20,0x10
      84:	40010613          	add	x12,x2,1024
      88:	40000593          	li	x11,1024
      8c:	00010513          	mv	x10,x2
      90:	7780a0ef          	jal	a808 <f_gets>
      94:	0c050463          	beqz	x10,15c <load_option+0x134>
      98:	00010513          	mv	x10,x2
      9c:	2c1020ef          	jal	2b5c <trimwhitespace>
      a0:	00050413          	mv	x8,x10
      a4:	00054783          	lbu	x15,0(x10)
      a8:	fc078ee3          	beqz	x15,84 <load_option+0x5c>
      ac:	fc578713          	add	x14,x15,-59
      b0:	0df77713          	and	x14,x14,223
      b4:	fc0708e3          	beqz	x14,84 <load_option+0x5c>
      b8:	fc9786e3          	beq	x15,x9,84 <load_option+0x5c>
      bc:	03d00593          	li	x11,61
      c0:	201020ef          	jal	2ac0 <strchr>
      c4:	00050b93          	mv	x23,x10
      c8:	0c050863          	beqz	x10,198 <load_option+0x170>
      cc:	00050023          	sb	x0,0(x10)
      d0:	00040513          	mv	x10,x8
      d4:	289020ef          	jal	2b5c <trimwhitespace>
      d8:	00050413          	mv	x8,x10
      dc:	001b8513          	add	x10,x23,1
      e0:	27d020ef          	jal	2b5c <trimwhitespace>
      e4:	00050b93          	mv	x23,x10
      e8:	00050613          	mv	x12,x10
      ec:	00040593          	mv	x11,x8
      f0:	a2498513          	add	x10,x19,-1500 # ea24 <__clzsi2+0x98>
      f4:	488020ef          	jal	257c <uart_printf>
      f8:	a3890593          	add	x11,x18,-1480 # ea38 <__clzsi2+0xac>
      fc:	00040513          	mv	x10,x8
     100:	758020ef          	jal	2858 <strcmp>
     104:	00051e63          	bnez	x10,120 <load_option+0xf8>
     108:	000b8513          	mv	x10,x23
     10c:	2c9020ef          	jal	2bd4 <atoi>
     110:	a0aa2e23          	sw	x10,-1508(x20) # fa1c <option_osd_key>
     114:	f6a048e3          	bgtz	x10,84 <load_option+0x5c>
     118:	00200413          	li	x8,2
     11c:	0440006f          	j	160 <load_option+0x138>
     120:	a40a8593          	add	x11,x21,-1472 # ea40 <__clzsi2+0xb4>
     124:	00040513          	mv	x10,x8
     128:	730020ef          	jal	2858 <strcmp>
     12c:	f4051ce3          	bnez	x10,84 <load_option+0x5c>
     130:	a50b0593          	add	x11,x22,-1456 # ea50 <__clzsi2+0xc4>
     134:	000b8513          	mv	x10,x23
     138:	74c020ef          	jal	2884 <strcasecmp>
     13c:	00051a63          	bnez	x10,150 <load_option+0x128>
     140:	000137b7          	lui	x15,0x13
     144:	00100713          	li	x14,1
     148:	a8e784a3          	sb	x14,-1399(x15) # 12a89 <option_backup_bsram>
     14c:	f39ff06f          	j	84 <load_option+0x5c>
     150:	000137b7          	lui	x15,0x13
     154:	a80784a3          	sb	x0,-1399(x15) # 12a89 <option_backup_bsram>
     158:	f2dff06f          	j	84 <load_option+0x5c>
     15c:	00000413          	li	x8,0
     160:	40010513          	add	x10,x2,1024
     164:	154090ef          	jal	92b8 <f_close>
     168:	67412483          	lw	x9,1652(x2)
     16c:	67012903          	lw	x18,1648(x2)
     170:	66c12983          	lw	x19,1644(x2)
     174:	66812a03          	lw	x20,1640(x2)
     178:	66412a83          	lw	x21,1636(x2)
     17c:	66012b03          	lw	x22,1632(x2)
     180:	65c12b83          	lw	x23,1628(x2)
     184:	00040513          	mv	x10,x8
     188:	67c12083          	lw	x1,1660(x2)
     18c:	67812403          	lw	x8,1656(x2)
     190:	68010113          	add	x2,x2,1664
     194:	00008067          	ret
     198:	00200413          	li	x8,2
     19c:	fc5ff06f          	j	160 <load_option+0x138>

000001a0 <status>:
     1a0:	ff010113          	add	x2,x2,-16
     1a4:	00112623          	sw	x1,12(x2)
     1a8:	00812423          	sw	x8,8(x2)
     1ac:	00912223          	sw	x9,4(x2)
     1b0:	00050493          	mv	x9,x10
     1b4:	01b00593          	li	x11,27
     1b8:	00000513          	li	x10,0
     1bc:	625010ef          	jal	1fe0 <cursor>
     1c0:	02000413          	li	x8,32
     1c4:	02000513          	li	x10,32
     1c8:	661010ef          	jal	2028 <putchar>
     1cc:	fff40413          	add	x8,x8,-1
     1d0:	fe041ae3          	bnez	x8,1c4 <status+0x24>
     1d4:	01b00593          	li	x11,27
     1d8:	00200513          	li	x10,2
     1dc:	605010ef          	jal	1fe0 <cursor>
     1e0:	00048513          	mv	x10,x9
     1e4:	6f1010ef          	jal	20d4 <print>
     1e8:	00c12083          	lw	x1,12(x2)
     1ec:	00812403          	lw	x8,8(x2)
     1f0:	00412483          	lw	x9,4(x2)
     1f4:	01010113          	add	x2,x2,16
     1f8:	00008067          	ret

000001fc <message>:
     1fc:	f8010113          	add	x2,x2,-128
     200:	06112e23          	sw	x1,124(x2)
     204:	06812c23          	sw	x8,120(x2)
     208:	06912a23          	sw	x9,116(x2)
     20c:	07212823          	sw	x18,112(x2)
     210:	07312623          	sw	x19,108(x2)
     214:	07412423          	sw	x20,104(x2)
     218:	07512223          	sw	x21,100(x2)
     21c:	07612023          	sw	x22,96(x2)
     220:	05712e23          	sw	x23,92(x2)
     224:	05812c23          	sw	x24,88(x2)
     228:	05912a23          	sw	x25,84(x2)
     22c:	05a12823          	sw	x26,80(x2)
     230:	00050493          	mv	x9,x10
     234:	00058c93          	mv	x25,x11
     238:	0d9020ef          	jal	2b10 <strlen>
     23c:	00050b13          	mv	x22,x10
     240:	01810c13          	add	x24,x2,24
     244:	000c0a13          	mv	x20,x24
     248:	00048993          	mv	x19,x9
     24c:	00000913          	li	x18,0
     250:	00000413          	li	x8,0
     254:	01a00a93          	li	x21,26
     258:	0180006f          	j	270 <message+0x74>
     25c:	00150993          	add	x19,x10,1
     260:	00190913          	add	x18,x18,1
     264:	004a0a13          	add	x20,x20,4
     268:	00a00793          	li	x15,10
     26c:	02f90863          	beq	x18,x15,29c <message+0xa0>
     270:	00a00593          	li	x11,10
     274:	00098513          	mv	x10,x19
     278:	049020ef          	jal	2ac0 <strchr>
     27c:	06050263          	beqz	x10,2e0 <message+0xe4>
     280:	413507b3          	sub	x15,x10,x19
     284:	00fad463          	bge	x21,x15,28c <message+0x90>
     288:	000a8793          	mv	x15,x21
     28c:	00fa2023          	sw	x15,0(x20)
     290:	fcf456e3          	bge	x8,x15,25c <message+0x60>
     294:	00078413          	mv	x8,x15
     298:	fc5ff06f          	j	25c <message+0x60>
     29c:	05b12623          	sw	x27,76(x2)
     2a0:	00240793          	add	x15,x8,2
     2a4:	4017d793          	sra	x15,x15,0x1
     2a8:	00f12623          	sw	x15,12(x2)
     2ac:	01000993          	li	x19,16
     2b0:	40f989b3          	sub	x19,x19,x15
     2b4:	01340433          	add	x8,x8,x19
     2b8:	00240d13          	add	x26,x8,2
     2bc:	01212423          	sw	x18,8(x2)
     2c0:	00800a93          	li	x21,8
     2c4:	01200b93          	li	x23,18
     2c8:	002b8d93          	add	x27,x23,2
     2cc:	000a8913          	mv	x18,x21
     2d0:	00240b13          	add	x22,x8,2
     2d4:	001b8b93          	add	x23,x23,1
     2d8:	00140a13          	add	x20,x8,1
     2dc:	0e40006f          	j	3c0 <message+0x1c4>
     2e0:	016487b3          	add	x15,x9,x22
     2e4:	413787b3          	sub	x15,x15,x19
     2e8:	01a00713          	li	x14,26
     2ec:	00f75463          	bge	x14,x15,2f4 <message+0xf8>
     2f0:	01a00793          	li	x15,26
     2f4:	00291713          	sll	x14,x18,0x2
     2f8:	03070713          	add	x14,x14,48
     2fc:	01010693          	add	x13,x2,16
     300:	00d70733          	add	x14,x14,x13
     304:	fcf72c23          	sw	x15,-40(x14)
     308:	0087d463          	bge	x15,x8,310 <message+0x114>
     30c:	00040793          	mv	x15,x8
     310:	00190693          	add	x13,x18,1
     314:	00d12423          	sw	x13,8(x2)
     318:	00390713          	add	x14,x18,3
     31c:	40175713          	sra	x14,x14,0x1
     320:	00e00a93          	li	x21,14
     324:	40ea8ab3          	sub	x21,x21,x14
     328:	01568bb3          	add	x23,x13,x21
     32c:	00278713          	add	x14,x15,2
     330:	40175713          	sra	x14,x14,0x1
     334:	00e12623          	sw	x14,12(x2)
     338:	01000993          	li	x19,16
     33c:	40e989b3          	sub	x19,x19,x14
     340:	01378433          	add	x8,x15,x19
     344:	00240d13          	add	x26,x8,2
     348:	002b8793          	add	x15,x23,2
     34c:	08fad263          	bge	x21,x15,3d0 <message+0x1d4>
     350:	05b12623          	sw	x27,76(x2)
     354:	f75ff06f          	j	2c8 <message+0xcc>
     358:	05590463          	beq	x18,x21,3a0 <message+0x1a4>
     35c:	052b8263          	beq	x23,x18,3a0 <message+0x1a4>
     360:	01340463          	beq	x8,x19,368 <message+0x16c>
     364:	028a1663          	bne	x20,x8,390 <message+0x194>
     368:	07c00513          	li	x10,124
     36c:	4bd010ef          	jal	2028 <putchar>
     370:	00140413          	add	x8,x8,1
     374:	05640263          	beq	x8,x22,3b8 <message+0x1bc>
     378:	00090593          	mv	x11,x18
     37c:	00040513          	mv	x10,x8
     380:	461010ef          	jal	1fe0 <cursor>
     384:	fd340ae3          	beq	x8,x19,358 <message+0x15c>
     388:	fc8a08e3          	beq	x20,x8,358 <message+0x15c>
     38c:	01590463          	beq	x18,x21,394 <message+0x198>
     390:	012b9e63          	bne	x23,x18,3ac <message+0x1b0>
     394:	02d00513          	li	x10,45
     398:	491010ef          	jal	2028 <putchar>
     39c:	fd5ff06f          	j	370 <message+0x174>
     3a0:	02b00513          	li	x10,43
     3a4:	485010ef          	jal	2028 <putchar>
     3a8:	fc9ff06f          	j	370 <message+0x174>
     3ac:	02000513          	li	x10,32
     3b0:	479010ef          	jal	2028 <putchar>
     3b4:	fbdff06f          	j	370 <message+0x174>
     3b8:	00190913          	add	x18,x18,1
     3bc:	01b90863          	beq	x18,x27,3cc <message+0x1d0>
     3c0:	00098413          	mv	x8,x19
     3c4:	fba9cae3          	blt	x19,x26,378 <message+0x17c>
     3c8:	ff1ff06f          	j	3b8 <message+0x1bc>
     3cc:	04c12d83          	lw	x27,76(x2)
     3d0:	00812783          	lw	x15,8(x2)
     3d4:	08f05063          	blez	x15,454 <message+0x258>
     3d8:	001a8913          	add	x18,x21,1
     3dc:	00178993          	add	x19,x15,1
     3e0:	015989b3          	add	x19,x19,x21
     3e4:	01100a13          	li	x20,17
     3e8:	00c12783          	lw	x15,12(x2)
     3ec:	40fa0a33          	sub	x20,x20,x15
     3f0:	01000a93          	li	x21,16
     3f4:	00a00413          	li	x8,10
     3f8:	0240006f          	j	41c <message+0x220>
     3fc:	00090593          	mv	x11,x18
     400:	000a0513          	mv	x10,x20
     404:	3dd010ef          	jal	1fe0 <cursor>
     408:	02c0006f          	j	434 <message+0x238>
     40c:	00148493          	add	x9,x9,1
     410:	004c0c13          	add	x24,x24,4
     414:	00190913          	add	x18,x18,1
     418:	03390e63          	beq	x18,x19,454 <message+0x258>
     41c:	fe0c80e3          	beqz	x25,3fc <message+0x200>
     420:	000c2503          	lw	x10,0(x24)
     424:	40155513          	sra	x10,x10,0x1
     428:	00090593          	mv	x11,x18
     42c:	40aa8533          	sub	x10,x21,x10
     430:	3b1010ef          	jal	1fe0 <cursor>
     434:	0004c503          	lbu	x10,0(x9)
     438:	fc850ae3          	beq	x10,x8,40c <message+0x210>
     43c:	fc0508e3          	beqz	x10,40c <message+0x210>
     440:	3e9010ef          	jal	2028 <putchar>
     444:	00148493          	add	x9,x9,1
     448:	0004c503          	lbu	x10,0(x9)
     44c:	fe8518e3          	bne	x10,x8,43c <message+0x240>
     450:	fbdff06f          	j	40c <message+0x210>
     454:	12c00513          	li	x10,300
     458:	168020ef          	jal	25c0 <delay>
     45c:	01410593          	add	x11,x2,20
     460:	01010513          	add	x10,x2,16
     464:	17c020ef          	jal	25e0 <joy_get>
     468:	01012783          	lw	x15,16(x2)
     46c:	01412703          	lw	x14,20(x2)
     470:	00e7e7b3          	or	x15,x15,x14
     474:	1017f793          	and	x15,x15,257
     478:	fe0782e3          	beqz	x15,45c <message+0x260>
     47c:	12c00513          	li	x10,300
     480:	140020ef          	jal	25c0 <delay>
     484:	07c12083          	lw	x1,124(x2)
     488:	07812403          	lw	x8,120(x2)
     48c:	07412483          	lw	x9,116(x2)
     490:	07012903          	lw	x18,112(x2)
     494:	06c12983          	lw	x19,108(x2)
     498:	06812a03          	lw	x20,104(x2)
     49c:	06412a83          	lw	x21,100(x2)
     4a0:	06012b03          	lw	x22,96(x2)
     4a4:	05c12b83          	lw	x23,92(x2)
     4a8:	05812c03          	lw	x24,88(x2)
     4ac:	05412c83          	lw	x25,84(x2)
     4b0:	05012d03          	lw	x26,80(x2)
     4b4:	08010113          	add	x2,x2,128
     4b8:	00008067          	ret

000004bc <save_option>:
     4bc:	da010113          	add	x2,x2,-608
     4c0:	24112e23          	sw	x1,604(x2)
     4c4:	00b00613          	li	x12,11
     4c8:	0000f5b7          	lui	x11,0xf
     4cc:	a1458593          	add	x11,x11,-1516 # ea14 <__clzsi2+0x88>
     4d0:	00010513          	mv	x10,x2
     4d4:	55d070ef          	jal	8230 <f_open>
     4d8:	08051863          	bnez	x10,568 <save_option+0xac>
     4dc:	00010593          	mv	x11,x2
     4e0:	0000f537          	lui	x10,0xf
     4e4:	a6850513          	add	x10,x10,-1432 # ea68 <__clzsi2+0xdc>
     4e8:	4280a0ef          	jal	a910 <f_puts>
     4ec:	08054a63          	bltz	x10,580 <save_option+0xc4>
     4f0:	000107b7          	lui	x15,0x10
     4f4:	a1c7a703          	lw	x14,-1508(x15) # fa1c <option_osd_key>
     4f8:	00100793          	li	x15,1
     4fc:	08f70c63          	beq	x14,x15,594 <save_option+0xd8>
     500:	00010593          	mv	x11,x2
     504:	0000f537          	lui	x10,0xf
     508:	a8850513          	add	x10,x10,-1400 # ea88 <__clzsi2+0xfc>
     50c:	4040a0ef          	jal	a910 <f_puts>
     510:	00010593          	mv	x11,x2
     514:	0000f537          	lui	x10,0xf
     518:	a8c50513          	add	x10,x10,-1396 # ea8c <__clzsi2+0x100>
     51c:	3f40a0ef          	jal	a910 <f_puts>
     520:	000137b7          	lui	x15,0x13
     524:	a897c783          	lbu	x15,-1399(x15) # 12a89 <option_backup_bsram>
     528:	08078063          	beqz	x15,5a8 <save_option+0xec>
     52c:	00010593          	mv	x11,x2
     530:	0000f537          	lui	x10,0xf
     534:	a9c50513          	add	x10,x10,-1380 # ea9c <__clzsi2+0x110>
     538:	3d80a0ef          	jal	a910 <f_puts>
     53c:	00010513          	mv	x10,x2
     540:	579080ef          	jal	92b8 <f_close>
     544:	00200613          	li	x12,2
     548:	00200593          	li	x11,2
     54c:	0000f537          	lui	x10,0xf
     550:	a1450513          	add	x10,x10,-1516 # ea14 <__clzsi2+0x88>
     554:	0bc0a0ef          	jal	a610 <f_chmod>
     558:	00000513          	li	x10,0
     55c:	25c12083          	lw	x1,604(x2)
     560:	26010113          	add	x2,x2,608
     564:	00008067          	ret
     568:	00100593          	li	x11,1
     56c:	0000f537          	lui	x10,0xf
     570:	a5850513          	add	x10,x10,-1448 # ea58 <__clzsi2+0xcc>
     574:	c89ff0ef          	jal	1fc <message>
     578:	00100513          	li	x10,1
     57c:	fe1ff06f          	j	55c <save_option+0xa0>
     580:	00100593          	li	x11,1
     584:	0000f537          	lui	x10,0xf
     588:	a7450513          	add	x10,x10,-1420 # ea74 <__clzsi2+0xe8>
     58c:	c71ff0ef          	jal	1fc <message>
     590:	fadff06f          	j	53c <save_option+0x80>
     594:	00010593          	mv	x11,x2
     598:	0000f537          	lui	x10,0xf
     59c:	a8450513          	add	x10,x10,-1404 # ea84 <__clzsi2+0xf8>
     5a0:	3700a0ef          	jal	a910 <f_puts>
     5a4:	f6dff06f          	j	510 <save_option+0x54>
     5a8:	00010593          	mv	x11,x2
     5ac:	0000f537          	lui	x10,0xf
     5b0:	aa450513          	add	x10,x10,-1372 # eaa4 <__clzsi2+0x118>
     5b4:	35c0a0ef          	jal	a910 <f_puts>
     5b8:	f85ff06f          	j	53c <save_option+0x80>

000005bc <load_dir>:
     5bc:	e7010113          	add	x2,x2,-400
     5c0:	18112623          	sw	x1,396(x2)
     5c4:	18812423          	sw	x8,392(x2)
     5c8:	18912223          	sw	x9,388(x2)
     5cc:	19212023          	sw	x18,384(x2)
     5d0:	17312e23          	sw	x19,380(x2)
     5d4:	17412c23          	sw	x20,376(x2)
     5d8:	17512a23          	sw	x21,372(x2)
     5dc:	00050a93          	mv	x21,x10
     5e0:	00058913          	mv	x18,x11
     5e4:	00060993          	mv	x19,x12
     5e8:	00068a13          	mv	x20,x13
     5ec:	00060693          	mv	x13,x12
     5f0:	00058613          	mv	x12,x11
     5f4:	00050593          	mv	x11,x10
     5f8:	0000f537          	lui	x10,0xf
     5fc:	aac50513          	add	x10,x10,-1364 # eaac <__clzsi2+0x120>
     600:	77d010ef          	jal	257c <uart_printf>
     604:	000137b7          	lui	x15,0x13
     608:	a607ac23          	sw	x0,-1416(x15) # 12a78 <file_len>
     60c:	00b00493          	li	x9,11
     610:	2b9020ef          	jal	30c8 <sd_init>
     614:	00050413          	mv	x8,x10
     618:	10050463          	beqz	x10,720 <load_dir+0x164>
     61c:	fff48493          	add	x9,x9,-1
     620:	fe0498e3          	bnez	x9,610 <load_dir+0x54>
     624:	06300413          	li	x8,99
     628:	0c80006f          	j	6f0 <load_dir+0x134>
     62c:	10000613          	li	x12,256
     630:	0000f5b7          	lui	x11,0xf
     634:	ae458593          	add	x11,x11,-1308 # eae4 <__clzsi2+0x158>
     638:	00011537          	lui	x10,0x11
     63c:	01050513          	add	x10,x10,16 # 11010 <file_names>
     640:	45c020ef          	jal	2a9c <strncpy>
     644:	00100713          	li	x14,1
     648:	1140006f          	j	75c <load_dir+0x1a0>
     64c:	00148493          	add	x9,x9,1
     650:	00010593          	mv	x11,x2
     654:	12010513          	add	x10,x2,288
     658:	30c090ef          	jal	9964 <f_readdir>
     65c:	06051c63          	bnez	x10,6d4 <load_dir+0x118>
     660:	01a14783          	lbu	x15,26(x2)
     664:	06078863          	beqz	x15,6d4 <load_dir+0x118>
     668:	00c14783          	lbu	x15,12(x2)
     66c:	0067f793          	and	x15,x15,6
     670:	fe0790e3          	bnez	x15,650 <load_dir+0x94>
     674:	fd24cce3          	blt	x9,x18,64c <load_dir+0x90>
     678:	a78aa503          	lw	x10,-1416(x21)
     67c:	fd3558e3          	bge	x10,x19,64c <load_dir+0x90>
     680:	00851513          	sll	x10,x10,0x8
     684:	10000613          	li	x12,256
     688:	01a10593          	add	x11,x2,26
     68c:	000117b7          	lui	x15,0x11
     690:	01078793          	add	x15,x15,16 # 11010 <file_names>
     694:	00a78533          	add	x10,x15,x10
     698:	404020ef          	jal	2a9c <strncpy>
     69c:	00013637          	lui	x12,0x13
     6a0:	a7862703          	lw	x14,-1416(x12) # 12a78 <file_len>
     6a4:	00271693          	sll	x13,x14,0x2
     6a8:	000107b7          	lui	x15,0x10
     6ac:	a2478793          	add	x15,x15,-1500 # fa24 <file_dir>
     6b0:	00d787b3          	add	x15,x15,x13
     6b4:	00c14683          	lbu	x13,12(x2)
     6b8:	0106f693          	and	x13,x13,16
     6bc:	00d7a023          	sw	x13,0(x15)
     6c0:	00012683          	lw	x13,0(x2)
     6c4:	04d7ac23          	sw	x13,88(x15)
     6c8:	00170713          	add	x14,x14,1
     6cc:	a6e62c23          	sw	x14,-1416(x12)
     6d0:	f7dff06f          	j	64c <load_dir+0x90>
     6d4:	12010513          	add	x10,x2,288
     6d8:	25c090ef          	jal	9934 <f_closedir>
     6dc:	009a2023          	sw	x9,0(x20)
     6e0:	00048593          	mv	x11,x9
     6e4:	0000f537          	lui	x10,0xf
     6e8:	ae850513          	add	x10,x10,-1304 # eae8 <__clzsi2+0x15c>
     6ec:	691010ef          	jal	257c <uart_printf>
     6f0:	00040513          	mv	x10,x8
     6f4:	18c12083          	lw	x1,396(x2)
     6f8:	18812403          	lw	x8,392(x2)
     6fc:	18412483          	lw	x9,388(x2)
     700:	18012903          	lw	x18,384(x2)
     704:	17c12983          	lw	x19,380(x2)
     708:	17812a03          	lw	x20,376(x2)
     70c:	17412a83          	lw	x21,372(x2)
     710:	19010113          	add	x2,x2,400
     714:	00008067          	ret
     718:	fff00413          	li	x8,-1
     71c:	fd5ff06f          	j	6f0 <load_dir+0x134>
     720:	000a8593          	mv	x11,x21
     724:	12010513          	add	x10,x2,288
     728:	0f8090ef          	jal	9820 <f_opendir>
     72c:	fe0516e3          	bnez	x10,718 <load_dir+0x15c>
     730:	04091263          	bnez	x18,774 <load_dir+0x1b8>
     734:	05305063          	blez	x19,774 <load_dir+0x1b8>
     738:	001ac783          	lbu	x15,1(x21)
     73c:	ee0798e3          	bnez	x15,62c <load_dir+0x70>
     740:	10000613          	li	x12,256
     744:	0000f5b7          	lui	x11,0xf
     748:	acc58593          	add	x11,x11,-1332 # eacc <__clzsi2+0x140>
     74c:	00011537          	lui	x10,0x11
     750:	01050513          	add	x10,x10,16 # 11010 <file_names>
     754:	348020ef          	jal	2a9c <strncpy>
     758:	00090713          	mv	x14,x18
     75c:	000107b7          	lui	x15,0x10
     760:	a2e7a223          	sw	x14,-1500(x15) # fa24 <file_dir>
     764:	00013737          	lui	x14,0x13
     768:	a7872783          	lw	x15,-1416(x14) # 12a78 <file_len>
     76c:	00178793          	add	x15,x15,1
     770:	a6f72c23          	sw	x15,-1416(x14)
     774:	00100493          	li	x9,1
     778:	00013ab7          	lui	x21,0x13
     77c:	ed5ff06f          	j	650 <load_dir+0x94>

00000780 <menu_options>:
     780:	fc010113          	add	x2,x2,-64
     784:	02112e23          	sw	x1,60(x2)
     788:	02812c23          	sw	x8,56(x2)
     78c:	02912a23          	sw	x9,52(x2)
     790:	03212823          	sw	x18,48(x2)
     794:	03312623          	sw	x19,44(x2)
     798:	03412423          	sw	x20,40(x2)
     79c:	03512223          	sw	x21,36(x2)
     7a0:	03612023          	sw	x22,32(x2)
     7a4:	01712e23          	sw	x23,28(x2)
     7a8:	01812c23          	sw	x24,24(x2)
     7ac:	01912a23          	sw	x25,20(x2)
     7b0:	00012623          	sw	x0,12(x2)
     7b4:	0000fc37          	lui	x24,0xf
     7b8:	0000fbb7          	lui	x23,0xf
     7bc:	0000fb37          	lui	x22,0xf
     7c0:	00010937          	lui	x18,0x10
     7c4:	0000fcb7          	lui	x25,0xf
     7c8:	0000fab7          	lui	x21,0xf
     7cc:	00100413          	li	x8,1
     7d0:	00013a37          	lui	x20,0x13
     7d4:	31d010ef          	jal	22f0 <clear>
     7d8:	00a00593          	li	x11,10
     7dc:	00800513          	li	x10,8
     7e0:	001010ef          	jal	1fe0 <cursor>
     7e4:	afcc0513          	add	x10,x24,-1284 # eafc <__clzsi2+0x170>
     7e8:	0ed010ef          	jal	20d4 <print>
     7ec:	00c00593          	li	x11,12
     7f0:	00200513          	li	x10,2
     7f4:	7ec010ef          	jal	1fe0 <cursor>
     7f8:	accb8513          	add	x10,x23,-1332 # eacc <__clzsi2+0x140>
     7fc:	0d9010ef          	jal	20d4 <print>
     800:	00e00593          	li	x11,14
     804:	00200513          	li	x10,2
     808:	7d8010ef          	jal	1fe0 <cursor>
     80c:	b0cb0513          	add	x10,x22,-1268 # eb0c <__clzsi2+0x180>
     810:	0c5010ef          	jal	20d4 <print>
     814:	00e00593          	li	x11,14
     818:	01000513          	li	x10,16
     81c:	7c4010ef          	jal	1fe0 <cursor>
     820:	a1c92783          	lw	x15,-1508(x18) # fa1c <option_osd_key>
     824:	0a878a63          	beq	x15,x8,8d8 <menu_options+0x158>
     828:	b2cc8513          	add	x10,x25,-1236 # eb2c <__clzsi2+0x1a0>
     82c:	0a9010ef          	jal	20d4 <print>
     830:	00f00593          	li	x11,15
     834:	00200513          	li	x10,2
     838:	7a8010ef          	jal	1fe0 <cursor>
     83c:	b3ca8513          	add	x10,x21,-1220 # eb3c <__clzsi2+0x1b0>
     840:	095010ef          	jal	20d4 <print>
     844:	00f00593          	li	x11,15
     848:	01000513          	li	x10,16
     84c:	794010ef          	jal	1fe0 <cursor>
     850:	a89a4783          	lbu	x15,-1399(x20) # 12a89 <option_backup_bsram>
     854:	08078a63          	beqz	x15,8e8 <menu_options+0x168>
     858:	0000f537          	lui	x10,0xf
     85c:	b4c50513          	add	x10,x10,-1204 # eb4c <__clzsi2+0x1c0>
     860:	075010ef          	jal	20d4 <print>
     864:	12c00513          	li	x10,300
     868:	559010ef          	jal	25c0 <delay>
     86c:	08400993          	li	x19,132
     870:	00c00493          	li	x9,12
     874:	a1c92783          	lw	x15,-1508(x18)
     878:	00098693          	mv	x13,x19
     87c:	06878e63          	beq	x15,x8,8f8 <menu_options+0x178>
     880:	00c10613          	add	x12,x2,12
     884:	00400593          	li	x11,4
     888:	00048513          	mv	x10,x9
     88c:	579010ef          	jal	2604 <joy_choice>
     890:	fe8512e3          	bne	x10,x8,874 <menu_options+0xf4>
     894:	00c12783          	lw	x15,12(x2)
     898:	0a078663          	beqz	x15,944 <menu_options+0x1c4>
     89c:	fc878ce3          	beq	x15,x8,874 <menu_options+0xf4>
     8a0:	00200713          	li	x14,2
     8a4:	04e78e63          	beq	x15,x14,900 <menu_options+0x180>
     8a8:	00300713          	li	x14,3
     8ac:	08e78263          	beq	x15,x14,930 <menu_options+0x1b0>
     8b0:	0000f537          	lui	x10,0xf
     8b4:	b5450513          	add	x10,x10,-1196 # eb54 <__clzsi2+0x1c8>
     8b8:	8e9ff0ef          	jal	1a0 <status>
     8bc:	c01ff0ef          	jal	4bc <save_option>
     8c0:	f0050ae3          	beqz	x10,7d4 <menu_options+0x54>
     8c4:	00100593          	li	x11,1
     8c8:	0000f537          	lui	x10,0xf
     8cc:	b6850513          	add	x10,x10,-1176 # eb68 <__clzsi2+0x1dc>
     8d0:	92dff0ef          	jal	1fc <message>
     8d4:	ef9ff06f          	j	7cc <menu_options+0x4c>
     8d8:	0000f537          	lui	x10,0xf
     8dc:	b1c50513          	add	x10,x10,-1252 # eb1c <__clzsi2+0x190>
     8e0:	7f4010ef          	jal	20d4 <print>
     8e4:	f4dff06f          	j	830 <menu_options+0xb0>
     8e8:	0000f537          	lui	x10,0xf
     8ec:	b5050513          	add	x10,x10,-1200 # eb50 <__clzsi2+0x1c4>
     8f0:	7e4010ef          	jal	20d4 <print>
     8f4:	f71ff06f          	j	864 <menu_options+0xe4>
     8f8:	00048693          	mv	x13,x9
     8fc:	f85ff06f          	j	880 <menu_options+0x100>
     900:	000107b7          	lui	x15,0x10
     904:	a1c7a703          	lw	x14,-1508(x15) # fa1c <option_osd_key>
     908:	00100793          	li	x15,1
     90c:	00f70a63          	beq	x14,x15,920 <menu_options+0x1a0>
     910:	000107b7          	lui	x15,0x10
     914:	00100713          	li	x14,1
     918:	a0e7ae23          	sw	x14,-1508(x15) # fa1c <option_osd_key>
     91c:	f95ff06f          	j	8b0 <menu_options+0x130>
     920:	000107b7          	lui	x15,0x10
     924:	00200713          	li	x14,2
     928:	a0e7ae23          	sw	x14,-1508(x15) # fa1c <option_osd_key>
     92c:	f85ff06f          	j	8b0 <menu_options+0x130>
     930:	00013737          	lui	x14,0x13
     934:	a8974783          	lbu	x15,-1399(x14) # 12a89 <option_backup_bsram>
     938:	0017c793          	xor	x15,x15,1
     93c:	a8f704a3          	sb	x15,-1399(x14)
     940:	f71ff06f          	j	8b0 <menu_options+0x130>
     944:	03c12083          	lw	x1,60(x2)
     948:	03812403          	lw	x8,56(x2)
     94c:	03412483          	lw	x9,52(x2)
     950:	03012903          	lw	x18,48(x2)
     954:	02c12983          	lw	x19,44(x2)
     958:	02812a03          	lw	x20,40(x2)
     95c:	02412a83          	lw	x21,36(x2)
     960:	02012b03          	lw	x22,32(x2)
     964:	01c12b83          	lw	x23,28(x2)
     968:	01812c03          	lw	x24,24(x2)
     96c:	01412c83          	lw	x25,20(x2)
     970:	04010113          	add	x2,x2,64
     974:	00008067          	ret

00000978 <parse_snes_header>:
     978:	f9010113          	add	x2,x2,-112
     97c:	06112623          	sw	x1,108(x2)
     980:	06812423          	sw	x8,104(x2)
     984:	06912223          	sw	x9,100(x2)
     988:	07212023          	sw	x18,96(x2)
     98c:	05312e23          	sw	x19,92(x2)
     990:	05412c23          	sw	x20,88(x2)
     994:	05512a23          	sw	x21,84(x2)
     998:	00050a93          	mv	x21,x10
     99c:	00058493          	mv	x9,x11
     9a0:	00060993          	mv	x19,x12
     9a4:	00068913          	mv	x18,x13
     9a8:	00070413          	mv	x8,x14
     9ac:	00078a13          	mv	x20,x15
     9b0:	01012a23          	sw	x16,20(x2)
     9b4:	01112c23          	sw	x17,24(x2)
     9b8:	41f5d613          	sra	x12,x11,0x1f
     9bc:	13d080ef          	jal	92f8 <f_lseek>
     9c0:	02050663          	beqz	x10,9ec <parse_snes_header+0x74>
     9c4:	00100513          	li	x10,1
     9c8:	06c12083          	lw	x1,108(x2)
     9cc:	06812403          	lw	x8,104(x2)
     9d0:	06412483          	lw	x9,100(x2)
     9d4:	06012903          	lw	x18,96(x2)
     9d8:	05c12983          	lw	x19,92(x2)
     9dc:	05812a03          	lw	x20,88(x2)
     9e0:	05412a83          	lw	x21,84(x2)
     9e4:	07010113          	add	x2,x2,112
     9e8:	00008067          	ret
     9ec:	02c10693          	add	x13,x2,44
     9f0:	04000613          	li	x12,64
     9f4:	00040593          	mv	x11,x8
     9f8:	000a8513          	mv	x10,x21
     9fc:	589070ef          	jal	8784 <f_read>
     a00:	02c12703          	lw	x14,44(x2)
     a04:	04000793          	li	x15,64
     a08:	00100513          	li	x10,1
     a0c:	faf71ee3          	bne	x14,x15,9c8 <parse_snes_header+0x50>
     a10:	05612823          	sw	x22,80(x2)
     a14:	05712623          	sw	x23,76(x2)
     a18:	05812423          	sw	x24,72(x2)
     a1c:	05912223          	sw	x25,68(x2)
     a20:	05a12023          	sw	x26,64(x2)
     a24:	03b12e23          	sw	x27,60(x2)
     a28:	01544d03          	lbu	x26,21(x8)
     a2c:	01a12e23          	sw	x26,28(x2)
     a30:	01744c83          	lbu	x25,23(x8)
     a34:	01844d83          	lbu	x27,24(x8)
     a38:	01c44b03          	lbu	x22,28(x8)
     a3c:	008b1b13          	sll	x22,x22,0x8
     a40:	01d44783          	lbu	x15,29(x8)
     a44:	00fb0b33          	add	x22,x22,x15
     a48:	01e44b83          	lbu	x23,30(x8)
     a4c:	008b9b93          	sll	x23,x23,0x8
     a50:	01f44783          	lbu	x15,31(x8)
     a54:	00fb8bb3          	add	x23,x23,x15
     a58:	03d44c03          	lbu	x24,61(x8)
     a5c:	008c1c13          	sll	x24,x24,0x8
     a60:	03c44783          	lbu	x15,60(x8)
     a64:	00fc0c33          	add	x24,x24,x15
     a68:	40000a93          	li	x21,1024
     a6c:	019a9ab3          	sll	x21,x21,x25
     a70:	0000f537          	lui	x10,0xf
     a74:	03050513          	add	x10,x10,48 # f030 <__clzsi2+0x6a4>
     a78:	f28ff0ef          	jal	1a0 <status>
     a7c:	000a8593          	mv	x11,x21
     a80:	0000f537          	lui	x10,0xf
     a84:	b8450513          	add	x10,x10,-1148 # eb84 <__clzsi2+0x1f8>
     a88:	2b1010ef          	jal	2538 <printf>
     a8c:	013aa9b3          	slt	x19,x21,x19
     a90:	0019b993          	seqz	x19,x19
     a94:	fffc8793          	add	x15,x25,-1
     a98:	0017b793          	seqz	x15,x15
     a9c:	00f989b3          	add	x19,x19,x15
     aa0:	017b07b3          	add	x15,x22,x23
     aa4:	ffff0737          	lui	x14,0xffff0
     aa8:	00170713          	add	x14,x14,1 # ffff0001 <STACK_TOP+0xffef0001>
     aac:	00e787b3          	add	x15,x15,x14
     ab0:	0017b793          	seqz	x15,x15
     ab4:	00f989b3          	add	x19,x19,x15
     ab8:	00040713          	mv	x14,x8
     abc:	01540593          	add	x11,x8,21
     ac0:	00100693          	li	x13,1
     ac4:	05f00613          	li	x12,95
     ac8:	00074783          	lbu	x15,0(x14)
     acc:	fe078793          	add	x15,x15,-32
     ad0:	0ff7f793          	zext.b	x15,x15
     ad4:	00f637b3          	sltu	x15,x12,x15
     ad8:	0017b793          	seqz	x15,x15
     adc:	40f007b3          	neg	x15,x15
     ae0:	00f6f6b3          	and	x13,x13,x15
     ae4:	00170713          	add	x14,x14,1
     ae8:	feb710e3          	bne	x14,x11,ac8 <parse_snes_header+0x150>
     aec:	00d989b3          	add	x19,x19,x13
     af0:	01312223          	sw	x19,4(x2)
     af4:	01812023          	sw	x24,0(x2)
     af8:	000b8893          	mv	x17,x23
     afc:	000b0813          	mv	x16,x22
     b00:	000d8793          	mv	x15,x27
     b04:	000c8713          	mv	x14,x25
     b08:	000d0693          	mv	x13,x26
     b0c:	00090613          	mv	x12,x18
     b10:	00048593          	mv	x11,x9
     b14:	0000f537          	lui	x10,0xf
     b18:	b8c50513          	add	x10,x10,-1140 # eb8c <__clzsi2+0x200>
     b1c:	261010ef          	jal	257c <uart_printf>
     b20:	00d00793          	li	x15,13
     b24:	00100513          	li	x10,1
     b28:	1397c063          	blt	x15,x25,c48 <parse_snes_header+0x2d0>
     b2c:	00700793          	li	x15,7
     b30:	13b7ca63          	blt	x15,x27,c64 <parse_snes_header+0x2ec>
     b34:	15305663          	blez	x19,c80 <parse_snes_header+0x308>
     b38:	000087b7          	lui	x15,0x8
     b3c:	16fc4063          	blt	x24,x15,c9c <parse_snes_header+0x324>
     b40:	02091a63          	bnez	x18,b74 <parse_snes_header+0x1fc>
     b44:	003d7793          	and	x15,x26,3
     b48:	08078a63          	beqz	x15,bdc <parse_snes_header+0x264>
     b4c:	05300793          	li	x15,83
     b50:	01c12703          	lw	x14,28(x2)
     b54:	08f70463          	beq	x14,x15,bdc <parse_snes_header+0x264>
     b58:	05012b03          	lw	x22,80(x2)
     b5c:	04c12b83          	lw	x23,76(x2)
     b60:	04812c03          	lw	x24,72(x2)
     b64:	04412c83          	lw	x25,68(x2)
     b68:	04012d03          	lw	x26,64(x2)
     b6c:	03c12d83          	lw	x27,60(x2)
     b70:	e59ff06f          	j	9c8 <parse_snes_header+0x50>
     b74:	00100793          	li	x15,1
     b78:	02f91863          	bne	x18,x15,ba8 <parse_snes_header+0x230>
     b7c:	003d7793          	and	x15,x26,3
     b80:	00100713          	li	x14,1
     b84:	04e78c63          	beq	x15,x14,bdc <parse_snes_header+0x264>
     b88:	00090513          	mv	x10,x18
     b8c:	05012b03          	lw	x22,80(x2)
     b90:	04c12b83          	lw	x23,76(x2)
     b94:	04812c03          	lw	x24,72(x2)
     b98:	04412c83          	lw	x25,68(x2)
     b9c:	04012d03          	lw	x26,64(x2)
     ba0:	03c12d83          	lw	x27,60(x2)
     ba4:	e25ff06f          	j	9c8 <parse_snes_header+0x50>
     ba8:	00200793          	li	x15,2
     bac:	06f91e63          	bne	x18,x15,c28 <parse_snes_header+0x2b0>
     bb0:	003d7793          	and	x15,x26,3
     bb4:	00200713          	li	x14,2
     bb8:	00100513          	li	x10,1
     bbc:	02e78063          	beq	x15,x14,bdc <parse_snes_header+0x264>
     bc0:	05012b03          	lw	x22,80(x2)
     bc4:	04c12b83          	lw	x23,76(x2)
     bc8:	04812c03          	lw	x24,72(x2)
     bcc:	04412c83          	lw	x25,68(x2)
     bd0:	04012d03          	lw	x26,64(x2)
     bd4:	03c12d83          	lw	x27,60(x2)
     bd8:	df1ff06f          	j	9c8 <parse_snes_header+0x50>
     bdc:	01aa2023          	sw	x26,0(x20)
     be0:	01644783          	lbu	x15,22(x8)
     be4:	01412703          	lw	x14,20(x2)
     be8:	00f72023          	sw	x15,0(x14)
     bec:	01812783          	lw	x15,24(x2)
     bf0:	0197a023          	sw	x25,0(x15) # 8000 <follow_path+0x4d4>
     bf4:	07012783          	lw	x15,112(x2)
     bf8:	01b7a023          	sw	x27,0(x15)
     bfc:	01a44703          	lbu	x14,26(x8)
     c00:	07412783          	lw	x15,116(x2)
     c04:	00e7a023          	sw	x14,0(x15)
     c08:	00000513          	li	x10,0
     c0c:	05012b03          	lw	x22,80(x2)
     c10:	04c12b83          	lw	x23,76(x2)
     c14:	04812c03          	lw	x24,72(x2)
     c18:	04412c83          	lw	x25,68(x2)
     c1c:	04012d03          	lw	x26,64(x2)
     c20:	03c12d83          	lw	x27,60(x2)
     c24:	da5ff06f          	j	9c8 <parse_snes_header+0x50>
     c28:	00100513          	li	x10,1
     c2c:	05012b03          	lw	x22,80(x2)
     c30:	04c12b83          	lw	x23,76(x2)
     c34:	04812c03          	lw	x24,72(x2)
     c38:	04412c83          	lw	x25,68(x2)
     c3c:	04012d03          	lw	x26,64(x2)
     c40:	03c12d83          	lw	x27,60(x2)
     c44:	d85ff06f          	j	9c8 <parse_snes_header+0x50>
     c48:	05012b03          	lw	x22,80(x2)
     c4c:	04c12b83          	lw	x23,76(x2)
     c50:	04812c03          	lw	x24,72(x2)
     c54:	04412c83          	lw	x25,68(x2)
     c58:	04012d03          	lw	x26,64(x2)
     c5c:	03c12d83          	lw	x27,60(x2)
     c60:	d69ff06f          	j	9c8 <parse_snes_header+0x50>
     c64:	05012b03          	lw	x22,80(x2)
     c68:	04c12b83          	lw	x23,76(x2)
     c6c:	04812c03          	lw	x24,72(x2)
     c70:	04412c83          	lw	x25,68(x2)
     c74:	04012d03          	lw	x26,64(x2)
     c78:	03c12d83          	lw	x27,60(x2)
     c7c:	d4dff06f          	j	9c8 <parse_snes_header+0x50>
     c80:	05012b03          	lw	x22,80(x2)
     c84:	04c12b83          	lw	x23,76(x2)
     c88:	04812c03          	lw	x24,72(x2)
     c8c:	04412c83          	lw	x25,68(x2)
     c90:	04012d03          	lw	x26,64(x2)
     c94:	03c12d83          	lw	x27,60(x2)
     c98:	d31ff06f          	j	9c8 <parse_snes_header+0x50>
     c9c:	05012b03          	lw	x22,80(x2)
     ca0:	04c12b83          	lw	x23,76(x2)
     ca4:	04812c03          	lw	x24,72(x2)
     ca8:	04412c83          	lw	x25,68(x2)
     cac:	04012d03          	lw	x26,64(x2)
     cb0:	03c12d83          	lw	x27,60(x2)
     cb4:	d15ff06f          	j	9c8 <parse_snes_header+0x50>

00000cb8 <ascii_to_uint8>:
     cb8:	fd050513          	add	x10,x10,-48
     cbc:	00451513          	sll	x10,x10,0x4
     cc0:	fd058593          	add	x11,x11,-48
     cc4:	00b56533          	or	x10,x10,x11
     cc8:	0ff57513          	zext.b	x10,x10
     ccc:	00008067          	ret

00000cd0 <parse_txt_to_int>:
     cd0:	ff010113          	add	x2,x2,-16
     cd4:	00112623          	sw	x1,12(x2)
     cd8:	04050063          	beqz	x10,d18 <parse_txt_to_int+0x48>
     cdc:	00812423          	sw	x8,8(x2)
     ce0:	00050413          	mv	x8,x10
     ce4:	00200593          	li	x11,2
     ce8:	00000613          	li	x12,0
     cec:	60c080ef          	jal	92f8 <f_lseek>
     cf0:	03842783          	lw	x15,56(x8)
     cf4:	02079a63          	bnez	x15,d28 <parse_txt_to_int+0x58>
     cf8:	0000f537          	lui	x10,0xf
     cfc:	c0c50513          	add	x10,x10,-1012 # ec0c <__clzsi2+0x280>
     d00:	07d010ef          	jal	257c <uart_printf>
     d04:	00812403          	lw	x8,8(x2)
     d08:	00100513          	li	x10,1
     d0c:	00c12083          	lw	x1,12(x2)
     d10:	01010113          	add	x2,x2,16
     d14:	00008067          	ret
     d18:	0000f537          	lui	x10,0xf
     d1c:	bf050513          	add	x10,x10,-1040 # ebf0 <__clzsi2+0x264>
     d20:	05d010ef          	jal	257c <uart_printf>
     d24:	fe5ff06f          	j	d08 <parse_txt_to_int+0x38>
     d28:	00000593          	li	x11,0
     d2c:	00000613          	li	x12,0
     d30:	00040513          	mv	x10,x8
     d34:	5c4080ef          	jal	92f8 <f_lseek>
     d38:	0000f537          	lui	x10,0xf
     d3c:	c2450513          	add	x10,x10,-988 # ec24 <__clzsi2+0x298>
     d40:	03d010ef          	jal	257c <uart_printf>
     d44:	00812403          	lw	x8,8(x2)
     d48:	fc1ff06f          	j	d08 <parse_txt_to_int+0x38>

00000d4c <load_cheats>:
     d4c:	da010113          	add	x2,x2,-608
     d50:	24112e23          	sw	x1,604(x2)
     d54:	24812c23          	sw	x8,600(x2)
     d58:	000105b7          	lui	x11,0x10
     d5c:	a2458593          	add	x11,x11,-1500 # fa24 <file_dir>
     d60:	4b058413          	add	x8,x11,1200
     d64:	40000613          	li	x12,1024
     d68:	0b058593          	add	x11,x11,176
     d6c:	00040513          	mv	x10,x8
     d70:	211010ef          	jal	2780 <memcpy>
     d74:	00040793          	mv	x15,x8
     d78:	3fd40613          	add	x12,x8,1021
     d7c:	00000e13          	li	x28,0
     d80:	02e00593          	li	x11,46
     d84:	06e00513          	li	x10,110
     d88:	06500813          	li	x16,101
     d8c:	07300893          	li	x17,115
     d90:	07400313          	li	x6,116
     d94:	07800f13          	li	x30,120
     d98:	00100e93          	li	x29,1
     d9c:	00c0006f          	j	da8 <load_cheats+0x5c>
     da0:	00178793          	add	x15,x15,1
     da4:	02c78c63          	beq	x15,x12,ddc <load_cheats+0x90>
     da8:	0007c703          	lbu	x14,0(x15)
     dac:	feb71ae3          	bne	x14,x11,da0 <load_cheats+0x54>
     db0:	0017c703          	lbu	x14,1(x15)
     db4:	fea716e3          	bne	x14,x10,da0 <load_cheats+0x54>
     db8:	0027c703          	lbu	x14,2(x15)
     dbc:	ff0712e3          	bne	x14,x16,da0 <load_cheats+0x54>
     dc0:	0037c703          	lbu	x14,3(x15)
     dc4:	fd171ee3          	bne	x14,x17,da0 <load_cheats+0x54>
     dc8:	006780a3          	sb	x6,1(x15)
     dcc:	01e78123          	sb	x30,2(x15)
     dd0:	006781a3          	sb	x6,3(x15)
     dd4:	000e8e13          	mv	x28,x29
     dd8:	fc9ff06f          	j	da0 <load_cheats+0x54>
     ddc:	040e0a63          	beqz	x28,e30 <load_cheats+0xe4>
     de0:	0000f5b7          	lui	x11,0xf
     de4:	c5458593          	add	x11,x11,-940 # ec54 <__clzsi2+0x2c8>
     de8:	00010537          	lui	x10,0x10
     dec:	ed450513          	add	x10,x10,-300 # fed4 <load_fname_cheat>
     df0:	339010ef          	jal	2928 <strcasestr>
     df4:	04050e63          	beqz	x10,e50 <load_cheats+0x104>
     df8:	00100613          	li	x12,1
     dfc:	000105b7          	lui	x11,0x10
     e00:	ed458593          	add	x11,x11,-300 # fed4 <load_fname_cheat>
     e04:	00010513          	mv	x10,x2
     e08:	428070ef          	jal	8230 <f_open>
     e0c:	04051a63          	bnez	x10,e60 <load_cheats+0x114>
     e10:	000105b7          	lui	x11,0x10
     e14:	2d458593          	add	x11,x11,724 # 102d4 <nes_cheats>
     e18:	00010513          	mv	x10,x2
     e1c:	eb5ff0ef          	jal	cd0 <parse_txt_to_int>
     e20:	04051863          	bnez	x10,e70 <load_cheats+0x124>
     e24:	00010513          	mv	x10,x2
     e28:	490080ef          	jal	92b8 <f_close>
     e2c:	0140006f          	j	e40 <load_cheats+0xf4>
     e30:	0000f537          	lui	x10,0xf
     e34:	c3c50513          	add	x10,x10,-964 # ec3c <__clzsi2+0x2b0>
     e38:	744010ef          	jal	257c <uart_printf>
     e3c:	00100513          	li	x10,1
     e40:	25c12083          	lw	x1,604(x2)
     e44:	25812403          	lw	x8,600(x2)
     e48:	26010113          	add	x2,x2,608
     e4c:	00008067          	ret
     e50:	0000f537          	lui	x10,0xf
     e54:	c5c50513          	add	x10,x10,-932 # ec5c <__clzsi2+0x2d0>
     e58:	724010ef          	jal	257c <uart_printf>
     e5c:	fe1ff06f          	j	e3c <load_cheats+0xf0>
     e60:	0000f537          	lui	x10,0xf
     e64:	bf050513          	add	x10,x10,-1040 # ebf0 <__clzsi2+0x264>
     e68:	714010ef          	jal	257c <uart_printf>
     e6c:	fd1ff06f          	j	e3c <load_cheats+0xf0>
     e70:	0000f537          	lui	x10,0xf
     e74:	c7c50513          	add	x10,x10,-900 # ec7c <__clzsi2+0x2f0>
     e78:	704010ef          	jal	257c <uart_printf>
     e7c:	fc1ff06f          	j	e3c <load_cheats+0xf0>

00000e80 <loadnes>:
     e80:	d7010113          	add	x2,x2,-656
     e84:	28112623          	sw	x1,652(x2)
     e88:	28812423          	sw	x8,648(x2)
     e8c:	28912223          	sw	x9,644(x2)
     e90:	29212023          	sw	x18,640(x2)
     e94:	27312e23          	sw	x19,636(x2)
     e98:	00050493          	mv	x9,x10
     e9c:	00010437          	lui	x8,0x10
     ea0:	ad440413          	add	x8,x8,-1324 # fad4 <load_fname>
     ea4:	40000613          	li	x12,1024
     ea8:	000105b7          	lui	x11,0x10
     eac:	4d458593          	add	x11,x11,1236 # 104d4 <pwd>
     eb0:	00040513          	mv	x10,x8
     eb4:	3e9010ef          	jal	2a9c <strncpy>
     eb8:	40000613          	li	x12,1024
     ebc:	0000f5b7          	lui	x11,0xf
     ec0:	c9858593          	add	x11,x11,-872 # ec98 <__clzsi2+0x30c>
     ec4:	00040513          	mv	x10,x8
     ec8:	33d010ef          	jal	2a04 <strncat>
     ecc:	00849993          	sll	x19,x9,0x8
     ed0:	000117b7          	lui	x15,0x11
     ed4:	01078793          	add	x15,x15,16 # 11010 <file_names>
     ed8:	00f989b3          	add	x19,x19,x15
     edc:	40000613          	li	x12,1024
     ee0:	00098593          	mv	x11,x19
     ee4:	00040513          	mv	x10,x8
     ee8:	31d010ef          	jal	2a04 <strncat>
     eec:	0000f537          	lui	x10,0xf
     ef0:	c9c50513          	add	x10,x10,-868 # ec9c <__clzsi2+0x310>
     ef4:	688010ef          	jal	257c <uart_printf>
     ef8:	0000f5b7          	lui	x11,0xf
     efc:	cac58593          	add	x11,x11,-852 # ecac <__clzsi2+0x320>
     f00:	00098513          	mv	x10,x19
     f04:	225010ef          	jal	2928 <strcasestr>
     f08:	0a050263          	beqz	x10,fac <loadnes+0x12c>
     f0c:	1bc020ef          	jal	30c8 <sd_init>
     f10:	06300913          	li	x18,99
     f14:	1c051c63          	bnez	x10,10ec <loadnes+0x26c>
     f18:	00100613          	li	x12,1
     f1c:	000105b7          	lui	x11,0x10
     f20:	ad458593          	add	x11,x11,-1324 # fad4 <load_fname>
     f24:	01010513          	add	x10,x2,16
     f28:	308070ef          	jal	8230 <f_open>
     f2c:	00050913          	mv	x18,x10
     f30:	08051663          	bnez	x10,fbc <loadnes+0x13c>
     f34:	27712623          	sw	x23,620(x2)
     f38:	00249493          	sll	x9,x9,0x2
     f3c:	000107b7          	lui	x15,0x10
     f40:	a2478793          	add	x15,x15,-1500 # fa24 <file_dir>
     f44:	009787b3          	add	x15,x15,x9
     f48:	0587ab83          	lw	x23,88(x15)
     f4c:	00100513          	li	x10,1
     f50:	019010ef          	jal	2768 <snes_ctrl>
     f54:	000137b7          	lui	x15,0x13
     f58:	a8078423          	sb	x0,-1400(x15) # 12a88 <snes_running>
     f5c:	00000593          	li	x11,0
     f60:	00000613          	li	x12,0
     f64:	01010513          	add	x10,x2,16
     f68:	390080ef          	jal	92f8 <f_lseek>
     f6c:	00050993          	mv	x19,x10
     f70:	40abdb93          	sra	x23,x23,0xa
     f74:	04051c63          	bnez	x10,fcc <loadnes+0x14c>
     f78:	27412c23          	sw	x20,632(x2)
     f7c:	27512a23          	sw	x21,628(x2)
     f80:	27612823          	sw	x22,624(x2)
     f84:	27812423          	sw	x24,616(x2)
     f88:	27912223          	sw	x25,612(x2)
     f8c:	00011a37          	lui	x20,0x11
     f90:	a24a0a13          	add	x20,x20,-1500 # 10a24 <load_buf+0x150>
     f94:	eb0a0b13          	add	x22,x20,-336
     f98:	0000fcb7          	lui	x25,0xf
     f9c:	0000fc37          	lui	x24,0xf
     fa0:	00001ab7          	lui	x21,0x1
     fa4:	fffa8a93          	add	x21,x21,-1 # fff <loadnes+0x17f>
     fa8:	05c0006f          	j	1004 <loadnes+0x184>
     fac:	0000f537          	lui	x10,0xf
     fb0:	cb450513          	add	x10,x10,-844 # ecb4 <__clzsi2+0x328>
     fb4:	9ecff0ef          	jal	1a0 <status>
     fb8:	1340006f          	j	10ec <loadnes+0x26c>
     fbc:	0000f537          	lui	x10,0xf
     fc0:	cc850513          	add	x10,x10,-824 # ecc8 <__clzsi2+0x33c>
     fc4:	9dcff0ef          	jal	1a0 <status>
     fc8:	1240006f          	j	10ec <loadnes+0x26c>
     fcc:	0000f537          	lui	x10,0xf
     fd0:	cdc50513          	add	x10,x10,-804 # ecdc <__clzsi2+0x350>
     fd4:	9ccff0ef          	jal	1a0 <status>
     fd8:	00098913          	mv	x18,x19
     fdc:	0fc0006f          	j	10d8 <loadnes+0x258>
     fe0:	030c8513          	add	x10,x25,48 # f030 <__clzsi2+0x6a4>
     fe4:	9bcff0ef          	jal	1a0 <status>
     fe8:	000b8613          	mv	x12,x23
     fec:	40a9d593          	sra	x11,x19,0xa
     ff0:	cecc0513          	add	x10,x24,-788 # ecec <__clzsi2+0x360>
     ff4:	544010ef          	jal	2538 <printf>
     ff8:	00c12703          	lw	x14,12(x2)
     ffc:	40000793          	li	x15,1024
    1000:	08f71663          	bne	x14,x15,108c <loadnes+0x20c>
    1004:	00c10693          	add	x13,x2,12
    1008:	40000613          	li	x12,1024
    100c:	000b0593          	mv	x11,x22
    1010:	01010513          	add	x10,x2,16
    1014:	770070ef          	jal	8784 <f_read>
    1018:	00050913          	mv	x18,x10
    101c:	06051863          	bnez	x10,108c <loadnes+0x20c>
    1020:	00c12783          	lw	x15,12(x2)
    1024:	04f05e63          	blez	x15,1080 <loadnes+0x200>
    1028:	eb0a0493          	add	x9,x20,-336
    102c:	00050413          	mv	x8,x10
    1030:	0004a503          	lw	x10,0(x9)
    1034:	740010ef          	jal	2774 <snes_data>
    1038:	00440413          	add	x8,x8,4
    103c:	00c12783          	lw	x15,12(x2)
    1040:	00448493          	add	x9,x9,4
    1044:	fef446e3          	blt	x8,x15,1030 <loadnes+0x1b0>
    1048:	00f989b3          	add	x19,x19,x15
    104c:	0159f7b3          	and	x15,x19,x21
    1050:	fa0794e3          	bnez	x15,ff8 <loadnes+0x178>
    1054:	f8dff06f          	j	fe0 <loadnes+0x160>
    1058:	cf5ff0ef          	jal	d4c <load_cheats>
    105c:	00050a63          	beqz	x10,1070 <loadnes+0x1f0>
    1060:	0000f537          	lui	x10,0xf
    1064:	d0850513          	add	x10,x10,-760 # ed08 <__clzsi2+0x37c>
    1068:	514010ef          	jal	257c <uart_printf>
    106c:	0380006f          	j	10a4 <loadnes+0x224>
    1070:	0000f537          	lui	x10,0xf
    1074:	d1c50513          	add	x10,x10,-740 # ed1c <__clzsi2+0x390>
    1078:	504010ef          	jal	257c <uart_printf>
    107c:	0280006f          	j	10a4 <loadnes+0x224>
    1080:	00f989b3          	add	x19,x19,x15
    1084:	01499793          	sll	x15,x19,0x14
    1088:	f4078ce3          	beqz	x15,fe0 <loadnes+0x160>
    108c:	00098593          	mv	x11,x19
    1090:	0000f537          	lui	x10,0xf
    1094:	cf450513          	add	x10,x10,-780 # ecf4 <__clzsi2+0x368>
    1098:	4e4010ef          	jal	257c <uart_printf>
    109c:	499010ef          	jal	2d34 <reg_rd_cheats_enabled>
    10a0:	fa051ce3          	bnez	x10,1058 <loadnes+0x1d8>
    10a4:	0000f537          	lui	x10,0xf
    10a8:	d3050513          	add	x10,x10,-720 # ed30 <__clzsi2+0x3a4>
    10ac:	8f4ff0ef          	jal	1a0 <status>
    10b0:	000137b7          	lui	x15,0x13
    10b4:	00100713          	li	x14,1
    10b8:	a8e78423          	sb	x14,-1400(x15) # 12a88 <snes_running>
    10bc:	00000513          	li	x10,0
    10c0:	735000ef          	jal	1ff4 <overlay>
    10c4:	27812a03          	lw	x20,632(x2)
    10c8:	27412a83          	lw	x21,628(x2)
    10cc:	27012b03          	lw	x22,624(x2)
    10d0:	26812c03          	lw	x24,616(x2)
    10d4:	26412c83          	lw	x25,612(x2)
    10d8:	00000513          	li	x10,0
    10dc:	68c010ef          	jal	2768 <snes_ctrl>
    10e0:	01010513          	add	x10,x2,16
    10e4:	1d4080ef          	jal	92b8 <f_close>
    10e8:	26c12b83          	lw	x23,620(x2)
    10ec:	00090513          	mv	x10,x18
    10f0:	28c12083          	lw	x1,652(x2)
    10f4:	28812403          	lw	x8,648(x2)
    10f8:	28412483          	lw	x9,644(x2)
    10fc:	28012903          	lw	x18,640(x2)
    1100:	27c12983          	lw	x19,636(x2)
    1104:	29010113          	add	x2,x2,656
    1108:	00008067          	ret

0000110c <gen_crc16>:
    110c:	08050c63          	beqz	x10,11a4 <gen_crc16+0x98>
    1110:	00058e63          	beqz	x11,112c <gen_crc16+0x20>
    1114:	00000693          	li	x13,0
    1118:	00000793          	li	x15,0
    111c:	00700893          	li	x17,7
    1120:	ffff8837          	lui	x16,0xffff8
    1124:	00580813          	add	x16,x16,5 # ffff8005 <STACK_TOP+0xffef8005>
    1128:	0980006f          	j	11c0 <gen_crc16+0xb4>
    112c:	00058793          	mv	x15,x11
    1130:	01000693          	li	x13,16
    1134:	ffff8637          	lui	x12,0xffff8
    1138:	00560613          	add	x12,x12,5 # ffff8005 <STACK_TOP+0xffef8005>
    113c:	01079713          	sll	x14,x15,0x10
    1140:	41075713          	sra	x14,x14,0x10
    1144:	40f75713          	sra	x14,x14,0xf
    1148:	00c77733          	and	x14,x14,x12
    114c:	00179793          	sll	x15,x15,0x1
    1150:	00f747b3          	xor	x15,x14,x15
    1154:	01079793          	sll	x15,x15,0x10
    1158:	0107d793          	srl	x15,x15,0x10
    115c:	fff68693          	add	x13,x13,-1
    1160:	fc069ee3          	bnez	x13,113c <gen_crc16+0x30>
    1164:	01000693          	li	x13,16
    1168:	00100613          	li	x12,1
    116c:	00000513          	li	x10,0
    1170:	00008737          	lui	x14,0x8
    1174:	0140006f          	j	1188 <gen_crc16+0x7c>
    1178:	40175713          	sra	x14,x14,0x1
    117c:	00161613          	sll	x12,x12,0x1
    1180:	fff68693          	add	x13,x13,-1
    1184:	00068e63          	beqz	x13,11a0 <gen_crc16+0x94>
    1188:	00e7f5b3          	and	x11,x15,x14
    118c:	fe0586e3          	beqz	x11,1178 <gen_crc16+0x6c>
    1190:	00c56533          	or	x10,x10,x12
    1194:	01051513          	sll	x10,x10,0x10
    1198:	01055513          	srl	x10,x10,0x10
    119c:	fddff06f          	j	1178 <gen_crc16+0x6c>
    11a0:	00008067          	ret
    11a4:	00000513          	li	x10,0
    11a8:	00008067          	ret
    11ac:	40f7d793          	sra	x15,x15,0xf
    11b0:	0107f7b3          	and	x15,x15,x16
    11b4:	00f74733          	xor	x14,x14,x15
    11b8:	01071793          	sll	x15,x14,0x10
    11bc:	0107d793          	srl	x15,x15,0x10
    11c0:	01079793          	sll	x15,x15,0x10
    11c4:	4107d793          	sra	x15,x15,0x10
    11c8:	00054703          	lbu	x14,0(x10)
    11cc:	40d75733          	sra	x14,x14,x13
    11d0:	00177713          	and	x14,x14,1
    11d4:	00179613          	sll	x12,x15,0x1
    11d8:	00c76733          	or	x14,x14,x12
    11dc:	01071713          	sll	x14,x14,0x10
    11e0:	41075713          	sra	x14,x14,0x10
    11e4:	00168693          	add	x13,x13,1
    11e8:	fcd8d2e3          	bge	x17,x13,11ac <gen_crc16+0xa0>
    11ec:	00150513          	add	x10,x10,1
    11f0:	fff58693          	add	x13,x11,-1
    11f4:	01069593          	sll	x11,x13,0x10
    11f8:	0105d593          	srl	x11,x11,0x10
    11fc:	40f7d793          	sra	x15,x15,0xf
    1200:	0107f7b3          	and	x15,x15,x16
    1204:	00f74733          	xor	x14,x14,x15
    1208:	01071793          	sll	x15,x14,0x10
    120c:	0107d793          	srl	x15,x15,0x10
    1210:	01069713          	sll	x14,x13,0x10
    1214:	01075713          	srl	x14,x14,0x10
    1218:	f0070ce3          	beqz	x14,1130 <gen_crc16+0x24>
    121c:	00000693          	li	x13,0
    1220:	fa1ff06f          	j	11c0 <gen_crc16+0xb4>

00001224 <backup_load>:
    1224:	000137b7          	lui	x15,0x13
    1228:	a8078123          	sb	x0,-1406(x15) # 12a82 <snes_backup_valid>
    122c:	000137b7          	lui	x15,0x13
    1230:	a897c783          	lbu	x15,-1399(x15) # 12a89 <option_backup_bsram>
    1234:	18078463          	beqz	x15,13bc <backup_load+0x198>
    1238:	b5010113          	add	x2,x2,-1200
    123c:	4a112623          	sw	x1,1196(x2)
    1240:	4a812423          	sw	x8,1192(x2)
    1244:	00058413          	mv	x8,x11
    1248:	00059a63          	bnez	x11,125c <backup_load+0x38>
    124c:	4ac12083          	lw	x1,1196(x2)
    1250:	4a812403          	lw	x8,1192(x2)
    1254:	4b010113          	add	x2,x2,1200
    1258:	00008067          	ret
    125c:	766177b7          	lui	x15,0x76617
    1260:	32f78793          	add	x15,x15,815 # 7661732f <STACK_TOP+0x7651732f>
    1264:	38f12223          	sw	x15,900(x2)
    1268:	002f77b7          	lui	x15,0x2f7
    126c:	36578793          	add	x15,x15,869 # 2f7365 <STACK_TOP+0x1f7365>
    1270:	38f12423          	sw	x15,904(x2)
    1274:	10200613          	li	x12,258
    1278:	00000593          	li	x11,0
    127c:	38c10513          	add	x10,x2,908
    1280:	57c010ef          	jal	27fc <memset>
    1284:	26010593          	add	x11,x2,608
    1288:	38410513          	add	x10,x2,900
    128c:	774080ef          	jal	9a00 <f_stat>
    1290:	00050863          	beqz	x10,12a0 <backup_load+0x7c>
    1294:	38410513          	add	x10,x2,900
    1298:	5b1080ef          	jal	a048 <f_mkdir>
    129c:	0e051263          	bnez	x10,1380 <backup_load+0x15c>
    12a0:	4a912223          	sw	x9,1188(x2)
    12a4:	000114b7          	lui	x9,0x11
    12a8:	cd448493          	add	x9,x9,-812 # 10cd4 <snes_backup_name>
    12ac:	00048593          	mv	x11,x9
    12b0:	38410513          	add	x10,x2,900
    12b4:	718010ef          	jal	29cc <strcat>
    12b8:	00048593          	mv	x11,x9
    12bc:	0000f537          	lui	x10,0xf
    12c0:	d6850513          	add	x10,x10,-664 # ed68 <__clzsi2+0x3dc>
    12c4:	2b8010ef          	jal	257c <uart_printf>
    12c8:	00100613          	li	x12,1
    12cc:	38410593          	add	x11,x2,900
    12d0:	01010513          	add	x10,x2,16
    12d4:	75d060ef          	jal	8230 <f_open>
    12d8:	0c051263          	bnez	x10,139c <backup_load+0x178>
    12dc:	4b212023          	sw	x18,1184(x2)
    12e0:	49312e23          	sw	x19,1180(x2)
    12e4:	00000493          	li	x9,0
    12e8:	00700937          	lui	x18,0x700
    12ec:	3ff00993          	li	x19,1023
    12f0:	02805863          	blez	x8,1320 <backup_load+0xfc>
    12f4:	00c10693          	add	x13,x2,12
    12f8:	40000613          	li	x12,1024
    12fc:	00090593          	mv	x11,x18
    1300:	01010513          	add	x10,x2,16
    1304:	480070ef          	jal	8784 <f_read>
    1308:	00051c63          	bnez	x10,1320 <backup_load+0xfc>
    130c:	00c12783          	lw	x15,12(x2)
    1310:	00f9d863          	bge	x19,x15,1320 <backup_load+0xfc>
    1314:	00f90933          	add	x18,x18,x15
    1318:	00f484b3          	add	x9,x9,x15
    131c:	fc84cce3          	blt	x9,x8,12f4 <backup_load+0xd0>
    1320:	000137b7          	lui	x15,0x13
    1324:	00100713          	li	x14,1
    1328:	a8e78123          	sb	x14,-1406(x15) # 12a82 <snes_backup_valid>
    132c:	01010513          	add	x10,x2,16
    1330:	789070ef          	jal	92b8 <f_close>
    1334:	01041593          	sll	x11,x8,0x10
    1338:	0105d593          	srl	x11,x11,0x10
    133c:	00700537          	lui	x10,0x700
    1340:	dcdff0ef          	jal	110c <gen_crc16>
    1344:	00050613          	mv	x12,x10
    1348:	00048593          	mv	x11,x9
    134c:	0000f537          	lui	x10,0xf
    1350:	da850513          	add	x10,x10,-600 # eda8 <__clzsi2+0x41c>
    1354:	228010ef          	jal	257c <uart_printf>
    1358:	4a412483          	lw	x9,1188(x2)
    135c:	4a012903          	lw	x18,1184(x2)
    1360:	49c12983          	lw	x19,1180(x2)
    1364:	01041593          	sll	x11,x8,0x10
    1368:	0105d593          	srl	x11,x11,0x10
    136c:	00700537          	lui	x10,0x700
    1370:	d9dff0ef          	jal	110c <gen_crc16>
    1374:	000137b7          	lui	x15,0x13
    1378:	a8a79023          	sh	x10,-1408(x15) # 12a80 <snes_bsram_crc16>
    137c:	ed1ff06f          	j	124c <backup_load+0x28>
    1380:	0000f537          	lui	x10,0xf
    1384:	d3850513          	add	x10,x10,-712 # ed38 <__clzsi2+0x3ac>
    1388:	e19fe0ef          	jal	1a0 <status>
    138c:	0000f537          	lui	x10,0xf
    1390:	d5050513          	add	x10,x10,-688 # ed50 <__clzsi2+0x3c4>
    1394:	1e8010ef          	jal	257c <uart_printf>
    1398:	fcdff06f          	j	1364 <backup_load+0x140>
    139c:	000137b7          	lui	x15,0x13
    13a0:	00100713          	li	x14,1
    13a4:	a8e78123          	sb	x14,-1406(x15) # 12a82 <snes_backup_valid>
    13a8:	0000f537          	lui	x10,0xf
    13ac:	d8050513          	add	x10,x10,-640 # ed80 <__clzsi2+0x3f4>
    13b0:	1cc010ef          	jal	257c <uart_printf>
    13b4:	4a412483          	lw	x9,1188(x2)
    13b8:	fadff06f          	j	1364 <backup_load+0x140>
    13bc:	00008067          	ret

000013c0 <loadsnes>:
    13c0:	d5010113          	add	x2,x2,-688
    13c4:	2a112623          	sw	x1,684(x2)
    13c8:	2a812423          	sw	x8,680(x2)
    13cc:	2a912223          	sw	x9,676(x2)
    13d0:	2b212023          	sw	x18,672(x2)
    13d4:	29312e23          	sw	x19,668(x2)
    13d8:	00050993          	mv	x19,x10
    13dc:	00010437          	lui	x8,0x10
    13e0:	ad440413          	add	x8,x8,-1324 # fad4 <load_fname>
    13e4:	40000613          	li	x12,1024
    13e8:	000105b7          	lui	x11,0x10
    13ec:	4d458593          	add	x11,x11,1236 # 104d4 <pwd>
    13f0:	00040513          	mv	x10,x8
    13f4:	6a8010ef          	jal	2a9c <strncpy>
    13f8:	40000613          	li	x12,1024
    13fc:	0000f5b7          	lui	x11,0xf
    1400:	c9858593          	add	x11,x11,-872 # ec98 <__clzsi2+0x30c>
    1404:	00040513          	mv	x10,x8
    1408:	5fc010ef          	jal	2a04 <strncat>
    140c:	00899493          	sll	x9,x19,0x8
    1410:	000117b7          	lui	x15,0x11
    1414:	01078793          	add	x15,x15,16 # 11010 <file_names>
    1418:	00f484b3          	add	x9,x9,x15
    141c:	40000613          	li	x12,1024
    1420:	00048593          	mv	x11,x9
    1424:	00040513          	mv	x10,x8
    1428:	5dc010ef          	jal	2a04 <strncat>
    142c:	0000f5b7          	lui	x11,0xf
    1430:	dd058593          	add	x11,x11,-560 # edd0 <__clzsi2+0x444>
    1434:	00048513          	mv	x10,x9
    1438:	4f0010ef          	jal	2928 <strcasestr>
    143c:	18050c63          	beqz	x10,15d4 <loadsnes+0x214>
    1440:	40950433          	sub	x8,x10,x9
    1444:	00011937          	lui	x18,0x11
    1448:	cd490913          	add	x18,x18,-812 # 10cd4 <snes_backup_name>
    144c:	00040613          	mv	x12,x8
    1450:	00048593          	mv	x11,x9
    1454:	00090513          	mv	x10,x18
    1458:	644010ef          	jal	2a9c <strncpy>
    145c:	0000f5b7          	lui	x11,0xf
    1460:	dfc58593          	add	x11,x11,-516 # edfc <__clzsi2+0x470>
    1464:	00890533          	add	x10,x18,x8
    1468:	618010ef          	jal	2a80 <strcpy>
    146c:	45d010ef          	jal	30c8 <sd_init>
    1470:	06300913          	li	x18,99
    1474:	34051663          	bnez	x10,17c0 <loadsnes+0x400>
    1478:	00100613          	li	x12,1
    147c:	000105b7          	lui	x11,0x10
    1480:	ad458593          	add	x11,x11,-1324 # fad4 <load_fname>
    1484:	03010513          	add	x10,x2,48
    1488:	5a9060ef          	jal	8230 <f_open>
    148c:	00050913          	mv	x18,x10
    1490:	16051463          	bnez	x10,15f8 <loadsnes+0x238>
    1494:	29712623          	sw	x23,652(x2)
    1498:	00299993          	sll	x19,x19,0x2
    149c:	000107b7          	lui	x15,0x10
    14a0:	a2478793          	add	x15,x15,-1500 # fa24 <file_dir>
    14a4:	013787b3          	add	x15,x15,x19
    14a8:	0587ab83          	lw	x23,88(x15)
    14ac:	3ffbf993          	and	x19,x23,1023
    14b0:	00098593          	mv	x11,x19
    14b4:	0000f537          	lui	x10,0xf
    14b8:	e0450513          	add	x10,x10,-508 # ee04 <__clzsi2+0x478>
    14bc:	0c0010ef          	jal	257c <uart_printf>
    14c0:	413b8433          	sub	x8,x23,x19
    14c4:	000085b7          	lui	x11,0x8
    14c8:	fc058593          	add	x11,x11,-64 # 7fc0 <follow_path+0x494>
    14cc:	01810793          	add	x15,x2,24
    14d0:	00f12223          	sw	x15,4(x2)
    14d4:	01c10793          	add	x15,x2,28
    14d8:	00f12023          	sw	x15,0(x2)
    14dc:	02010893          	add	x17,x2,32
    14e0:	02410813          	add	x16,x2,36
    14e4:	02810793          	add	x15,x2,40
    14e8:	00011737          	lui	x14,0x11
    14ec:	8d470713          	add	x14,x14,-1836 # 108d4 <load_buf>
    14f0:	00000693          	li	x13,0
    14f4:	00040613          	mv	x12,x8
    14f8:	00b985b3          	add	x11,x19,x11
    14fc:	03010513          	add	x10,x2,48
    1500:	c78ff0ef          	jal	978 <parse_snes_header>
    1504:	04050463          	beqz	x10,154c <loadsnes+0x18c>
    1508:	000105b7          	lui	x11,0x10
    150c:	fc058593          	add	x11,x11,-64 # ffc0 <load_fname_cheat+0xec>
    1510:	01810793          	add	x15,x2,24
    1514:	00f12223          	sw	x15,4(x2)
    1518:	01c10793          	add	x15,x2,28
    151c:	00f12023          	sw	x15,0(x2)
    1520:	02010893          	add	x17,x2,32
    1524:	02410813          	add	x16,x2,36
    1528:	02810793          	add	x15,x2,40
    152c:	00011737          	lui	x14,0x11
    1530:	8d470713          	add	x14,x14,-1836 # 108d4 <load_buf>
    1534:	00100693          	li	x13,1
    1538:	00040613          	mv	x12,x8
    153c:	00b985b3          	add	x11,x19,x11
    1540:	03010513          	add	x10,x2,48
    1544:	c34ff0ef          	jal	978 <parse_snes_header>
    1548:	0c051063          	bnez	x10,1608 <loadsnes+0x248>
    154c:	29612823          	sw	x22,656(x2)
    1550:	00100513          	li	x10,1
    1554:	214010ef          	jal	2768 <snes_ctrl>
    1558:	000137b7          	lui	x15,0x13
    155c:	a8078423          	sb	x0,-1400(x15) # 12a88 <snes_running>
    1560:	000114b7          	lui	x9,0x11
    1564:	a2448493          	add	x9,x9,-1500 # 10a24 <load_buf+0x150>
    1568:	eb048b13          	add	x22,x9,-336
    156c:	ef048493          	add	x9,x9,-272
    1570:	000b0413          	mv	x8,x22
    1574:	00042503          	lw	x10,0(x8)
    1578:	1fc010ef          	jal	2774 <snes_data>
    157c:	00440413          	add	x8,x8,4
    1580:	fe941ae3          	bne	x8,x9,1574 <loadsnes+0x1b4>
    1584:	00098593          	mv	x11,x19
    1588:	00000613          	li	x12,0
    158c:	03010513          	add	x10,x2,48
    1590:	569070ef          	jal	92f8 <f_lseek>
    1594:	00050993          	mv	x19,x10
    1598:	40abdb93          	sra	x23,x23,0xa
    159c:	0c051463          	bnez	x10,1664 <loadsnes+0x2a4>
    15a0:	29412c23          	sw	x20,664(x2)
    15a4:	29512a23          	sw	x21,660(x2)
    15a8:	29812423          	sw	x24,648(x2)
    15ac:	29912223          	sw	x25,644(x2)
    15b0:	29a12023          	sw	x26,640(x2)
    15b4:	00011a37          	lui	x20,0x11
    15b8:	8d4a0a13          	add	x20,x20,-1836 # 108d4 <load_buf>
    15bc:	0000fd37          	lui	x26,0xf
    15c0:	0000fcb7          	lui	x25,0xf
    15c4:	0000fc37          	lui	x24,0xf
    15c8:	00010ab7          	lui	x21,0x10
    15cc:	fffa8a93          	add	x21,x21,-1 # ffff <load_fname_cheat+0x12b>
    15d0:	0e40006f          	j	16b4 <loadsnes+0x2f4>
    15d4:	0000f5b7          	lui	x11,0xf
    15d8:	dd858593          	add	x11,x11,-552 # edd8 <__clzsi2+0x44c>
    15dc:	00048513          	mv	x10,x9
    15e0:	348010ef          	jal	2928 <strcasestr>
    15e4:	e4051ee3          	bnez	x10,1440 <loadsnes+0x80>
    15e8:	0000f537          	lui	x10,0xf
    15ec:	de050513          	add	x10,x10,-544 # ede0 <__clzsi2+0x454>
    15f0:	bb1fe0ef          	jal	1a0 <status>
    15f4:	1cc0006f          	j	17c0 <loadsnes+0x400>
    15f8:	0000f537          	lui	x10,0xf
    15fc:	cc850513          	add	x10,x10,-824 # ecc8 <__clzsi2+0x33c>
    1600:	ba1fe0ef          	jal	1a0 <status>
    1604:	1bc0006f          	j	17c0 <loadsnes+0x400>
    1608:	004105b7          	lui	x11,0x410
    160c:	fc058593          	add	x11,x11,-64 # 40ffc0 <STACK_TOP+0x30ffc0>
    1610:	01810793          	add	x15,x2,24
    1614:	00f12223          	sw	x15,4(x2)
    1618:	01c10793          	add	x15,x2,28
    161c:	00f12023          	sw	x15,0(x2)
    1620:	02010893          	add	x17,x2,32
    1624:	02410813          	add	x16,x2,36
    1628:	02810793          	add	x15,x2,40
    162c:	00011737          	lui	x14,0x11
    1630:	8d470713          	add	x14,x14,-1836 # 108d4 <load_buf>
    1634:	00200693          	li	x13,2
    1638:	00040613          	mv	x12,x8
    163c:	00b985b3          	add	x11,x19,x11
    1640:	03010513          	add	x10,x2,48
    1644:	b34ff0ef          	jal	978 <parse_snes_header>
    1648:	f00502e3          	beqz	x10,154c <loadsnes+0x18c>
    164c:	0000f537          	lui	x10,0xf
    1650:	e0c50513          	add	x10,x10,-500 # ee0c <__clzsi2+0x480>
    1654:	b4dfe0ef          	jal	1a0 <status>
    1658:	0c800513          	li	x10,200
    165c:	765000ef          	jal	25c0 <delay>
    1660:	1540006f          	j	17b4 <loadsnes+0x3f4>
    1664:	0000f537          	lui	x10,0xf
    1668:	cdc50513          	add	x10,x10,-804 # ecdc <__clzsi2+0x350>
    166c:	b35fe0ef          	jal	1a0 <status>
    1670:	00098913          	mv	x18,x19
    1674:	1340006f          	j	17a8 <loadsnes+0x3e8>
    1678:	0000f537          	lui	x10,0xf
    167c:	e2050513          	add	x10,x10,-480 # ee20 <__clzsi2+0x494>
    1680:	255000ef          	jal	20d4 <print>
    1684:	02012783          	lw	x15,32(x2)
    1688:	00100593          	li	x11,1
    168c:	00f595b3          	sll	x11,x11,x15
    1690:	01c12603          	lw	x12,28(x2)
    1694:	00060663          	beqz	x12,16a0 <loadsnes+0x2e0>
    1698:	00100793          	li	x15,1
    169c:	00c79633          	sll	x12,x15,x12
    16a0:	e30c0513          	add	x10,x24,-464 # ee30 <__clzsi2+0x4a4>
    16a4:	695000ef          	jal	2538 <printf>
    16a8:	02c12703          	lw	x14,44(x2)
    16ac:	40000793          	li	x15,1024
    16b0:	14f71063          	bne	x14,x15,17f0 <loadsnes+0x430>
    16b4:	02c10693          	add	x13,x2,44
    16b8:	40000613          	li	x12,1024
    16bc:	000a0593          	mv	x11,x20
    16c0:	03010513          	add	x10,x2,48
    16c4:	0c0070ef          	jal	8784 <f_read>
    16c8:	00050913          	mv	x18,x10
    16cc:	12051263          	bnez	x10,17f0 <loadsnes+0x430>
    16d0:	02c12783          	lw	x15,44(x2)
    16d4:	10f05663          	blez	x15,17e0 <loadsnes+0x420>
    16d8:	000b0493          	mv	x9,x22
    16dc:	00050413          	mv	x8,x10
    16e0:	0004a503          	lw	x10,0(x9)
    16e4:	090010ef          	jal	2774 <snes_data>
    16e8:	00440413          	add	x8,x8,4
    16ec:	02c12783          	lw	x15,44(x2)
    16f0:	00448493          	add	x9,x9,4
    16f4:	fef446e3          	blt	x8,x15,16e0 <loadsnes+0x320>
    16f8:	00f989b3          	add	x19,x19,x15
    16fc:	0159f7b3          	and	x15,x19,x21
    1700:	fa0794e3          	bnez	x15,16a8 <loadsnes+0x2e8>
    1704:	030d0513          	add	x10,x26,48 # f030 <__clzsi2+0x6a4>
    1708:	a99fe0ef          	jal	1a0 <status>
    170c:	000b8613          	mv	x12,x23
    1710:	40a9d593          	sra	x11,x19,0xa
    1714:	cecc8513          	add	x10,x25,-788 # ecec <__clzsi2+0x360>
    1718:	621000ef          	jal	2538 <printf>
    171c:	02812783          	lw	x15,40(x2)
    1720:	0037f793          	and	x15,x15,3
    1724:	f4078ae3          	beqz	x15,1678 <loadsnes+0x2b8>
    1728:	00100713          	li	x14,1
    172c:	00e78e63          	beq	x15,x14,1748 <loadsnes+0x388>
    1730:	00200713          	li	x14,2
    1734:	f4e798e3          	bne	x15,x14,1684 <loadsnes+0x2c4>
    1738:	0000f537          	lui	x10,0xf
    173c:	e2850513          	add	x10,x10,-472 # ee28 <__clzsi2+0x49c>
    1740:	195000ef          	jal	20d4 <print>
    1744:	f41ff06f          	j	1684 <loadsnes+0x2c4>
    1748:	0000f537          	lui	x10,0xf
    174c:	e2450513          	add	x10,x10,-476 # ee24 <__clzsi2+0x498>
    1750:	185000ef          	jal	20d4 <print>
    1754:	f31ff06f          	j	1684 <loadsnes+0x2c4>
    1758:	000137b7          	lui	x15,0x13
    175c:	a807a223          	sw	x0,-1404(x15) # 12a84 <snes_ramsize>
    1760:	000137b7          	lui	x15,0x13
    1764:	a847a583          	lw	x11,-1404(x15) # 12a84 <snes_ramsize>
    1768:	00011537          	lui	x10,0x11
    176c:	cd450513          	add	x10,x10,-812 # 10cd4 <snes_backup_name>
    1770:	ab5ff0ef          	jal	1224 <backup_load>
    1774:	0000f537          	lui	x10,0xf
    1778:	d3050513          	add	x10,x10,-720 # ed30 <__clzsi2+0x3a4>
    177c:	a25fe0ef          	jal	1a0 <status>
    1780:	000137b7          	lui	x15,0x13
    1784:	00100713          	li	x14,1
    1788:	a8e78423          	sb	x14,-1400(x15) # 12a88 <snes_running>
    178c:	00000513          	li	x10,0
    1790:	065000ef          	jal	1ff4 <overlay>
    1794:	29812a03          	lw	x20,664(x2)
    1798:	29412a83          	lw	x21,660(x2)
    179c:	28812c03          	lw	x24,648(x2)
    17a0:	28412c83          	lw	x25,644(x2)
    17a4:	28012d03          	lw	x26,640(x2)
    17a8:	00000513          	li	x10,0
    17ac:	7bd000ef          	jal	2768 <snes_ctrl>
    17b0:	29012b03          	lw	x22,656(x2)
    17b4:	03010513          	add	x10,x2,48
    17b8:	301070ef          	jal	92b8 <f_close>
    17bc:	28c12b83          	lw	x23,652(x2)
    17c0:	00090513          	mv	x10,x18
    17c4:	2ac12083          	lw	x1,684(x2)
    17c8:	2a812403          	lw	x8,680(x2)
    17cc:	2a412483          	lw	x9,676(x2)
    17d0:	2a012903          	lw	x18,672(x2)
    17d4:	29c12983          	lw	x19,668(x2)
    17d8:	2b010113          	add	x2,x2,688
    17dc:	00008067          	ret
    17e0:	00f989b3          	add	x19,x19,x15
    17e4:	01099793          	sll	x15,x19,0x10
    17e8:	0107d793          	srl	x15,x15,0x10
    17ec:	f0078ce3          	beqz	x15,1704 <loadsnes+0x344>
    17f0:	01c12783          	lw	x15,28(x2)
    17f4:	f60782e3          	beqz	x15,1758 <loadsnes+0x398>
    17f8:	40000613          	li	x12,1024
    17fc:	00f61633          	sll	x12,x12,x15
    1800:	000137b7          	lui	x15,0x13
    1804:	a8c7a223          	sw	x12,-1404(x15) # 12a84 <snes_ramsize>
    1808:	f4c05ce3          	blez	x12,1760 <loadsnes+0x3a0>
    180c:	00000593          	li	x11,0
    1810:	00700537          	lui	x10,0x700
    1814:	7e9000ef          	jal	27fc <memset>
    1818:	f49ff06f          	j	1760 <loadsnes+0x3a0>

0000181c <menu_loadrom>:
    181c:	fa010113          	add	x2,x2,-96
    1820:	04112e23          	sw	x1,92(x2)
    1824:	04812c23          	sw	x8,88(x2)
    1828:	04912a23          	sw	x9,84(x2)
    182c:	05212823          	sw	x18,80(x2)
    1830:	05312623          	sw	x19,76(x2)
    1834:	05412423          	sw	x20,72(x2)
    1838:	05512223          	sw	x21,68(x2)
    183c:	05612023          	sw	x22,64(x2)
    1840:	03712e23          	sw	x23,60(x2)
    1844:	03812c23          	sw	x24,56(x2)
    1848:	03912a23          	sw	x25,52(x2)
    184c:	03a12823          	sw	x26,48(x2)
    1850:	03b12623          	sw	x27,44(x2)
    1854:	00050d93          	mv	x27,x10
    1858:	00012c23          	sw	x0,24(x2)
    185c:	000117b7          	lui	x15,0x11
    1860:	a2478793          	add	x15,x15,-1500 # 10a24 <load_buf+0x150>
    1864:	02f00713          	li	x14,47
    1868:	aae78823          	sb	x14,-1360(x15)
    186c:	aa0788a3          	sb	x0,-1359(x15)
    1870:	00000993          	li	x19,0
    1874:	000107b7          	lui	x15,0x10
    1878:	4d478793          	add	x15,x15,1236 # 104d4 <pwd>
    187c:	00f12023          	sw	x15,0(x2)
    1880:	0000fcb7          	lui	x25,0xf
    1884:	000107b7          	lui	x15,0x10
    1888:	a2478d13          	add	x26,x15,-1500 # fa24 <file_dir>
    188c:	000117b7          	lui	x15,0x11
    1890:	01078793          	add	x15,x15,16 # 11010 <file_names>
    1894:	00f12623          	sw	x15,12(x2)
    1898:	0080006f          	j	18a0 <menu_loadrom+0x84>
    189c:	00412983          	lw	x19,4(x2)
    18a0:	251000ef          	jal	22f0 <clear>
    18a4:	00199413          	sll	x8,x19,0x1
    18a8:	01340433          	add	x8,x8,x19
    18ac:	00241413          	sll	x8,x8,0x2
    18b0:	41340433          	sub	x8,x8,x19
    18b4:	00141413          	sll	x8,x8,0x1
    18b8:	01c10693          	add	x13,x2,28
    18bc:	01600613          	li	x12,22
    18c0:	00040593          	mv	x11,x8
    18c4:	00012503          	lw	x10,0(x2)
    18c8:	cf5fe0ef          	jal	5bc <load_dir>
    18cc:	00a12423          	sw	x10,8(x2)
    18d0:	22051663          	bnez	x10,1afc <menu_loadrom+0x2e0>
    18d4:	01c12b03          	lw	x22,28(x2)
    18d8:	01600593          	li	x11,22
    18dc:	015b0513          	add	x10,x22,21
    18e0:	4c5090ef          	jal	b5a4 <__divsi3>
    18e4:	00050c13          	mv	x24,x10
    18e8:	0000f537          	lui	x10,0xf
    18ec:	e4050513          	add	x10,x10,-448 # ee40 <__clzsi2+0x4b4>
    18f0:	8b1fe0ef          	jal	1a0 <status>
    18f4:	00198793          	add	x15,x19,1
    18f8:	00f12223          	sw	x15,4(x2)
    18fc:	000c0613          	mv	x12,x24
    1900:	00078593          	mv	x11,x15
    1904:	0000f537          	lui	x10,0xf
    1908:	e4850513          	add	x10,x10,-440 # ee48 <__clzsi2+0x4bc>
    190c:	42d000ef          	jal	2538 <printf>
    1910:	000137b7          	lui	x15,0x13
    1914:	a787a783          	lw	x15,-1416(x15) # 12a78 <file_len>
    1918:	01812703          	lw	x14,24(x2)
    191c:	00f74663          	blt	x14,x15,1928 <menu_loadrom+0x10c>
    1920:	fff78793          	add	x15,x15,-1
    1924:	00f12c23          	sw	x15,24(x2)
    1928:	000107b7          	lui	x15,0x10
    192c:	a2478493          	add	x9,x15,-1500 # fa24 <file_dir>
    1930:	000117b7          	lui	x15,0x11
    1934:	01078913          	add	x18,x15,16 # 11010 <file_names>
    1938:	05848b93          	add	x23,x9,88
    193c:	00199a13          	sll	x20,x19,0x1
    1940:	013a0a33          	add	x20,x20,x19
    1944:	002a1a13          	sll	x20,x20,0x2
    1948:	41498a33          	sub	x20,x19,x20
    194c:	001a1a13          	sll	x20,x20,0x1
    1950:	002a0a13          	add	x20,x20,2
    1954:	0140006f          	j	1968 <menu_loadrom+0x14c>
    1958:	00140413          	add	x8,x8,1
    195c:	00448493          	add	x9,x9,4
    1960:	10090913          	add	x18,x18,256
    1964:	03748a63          	beq	x9,x23,1998 <menu_loadrom+0x17c>
    1968:	008a05b3          	add	x11,x20,x8
    196c:	00200513          	li	x10,2
    1970:	670000ef          	jal	1fe0 <cursor>
    1974:	ff6452e3          	bge	x8,x22,1958 <menu_loadrom+0x13c>
    1978:	00090513          	mv	x10,x18
    197c:	758000ef          	jal	20d4 <print>
    1980:	fc040ce3          	beqz	x8,1958 <menu_loadrom+0x13c>
    1984:	0004a783          	lw	x15,0(x9)
    1988:	fc0788e3          	beqz	x15,1958 <menu_loadrom+0x13c>
    198c:	c98c8513          	add	x10,x25,-872 # ec98 <__clzsi2+0x30c>
    1990:	744000ef          	jal	20d4 <print>
    1994:	fc5ff06f          	j	1958 <menu_loadrom+0x13c>
    1998:	12c00513          	li	x10,300
    199c:	425000ef          	jal	25c0 <delay>
    19a0:	00013937          	lui	x18,0x13
    19a4:	000104b7          	lui	x9,0x10
    19a8:	10c0006f          	j	1ab4 <menu_loadrom+0x298>
    19ac:	00c00693          	li	x13,12
    19b0:	1180006f          	j	1ac8 <menu_loadrom+0x2ac>
    19b4:	c98c8593          	add	x11,x25,-872
    19b8:	00012503          	lw	x10,0(x2)
    19bc:	69d000ef          	jal	2858 <strcmp>
    19c0:	01812783          	lw	x15,24(x2)
    19c4:	0137e733          	or	x14,x15,x19
    19c8:	00a76733          	or	x14,x14,x10
    19cc:	14070863          	beqz	x14,1b1c <menu_loadrom+0x300>
    19d0:	00279713          	sll	x14,x15,0x2
    19d4:	00ed0733          	add	x14,x26,x14
    19d8:	00072703          	lw	x14,0(x14)
    19dc:	02071c63          	bnez	x14,1a14 <menu_loadrom+0x1f8>
    19e0:	00fda023          	sw	x15,0(x27)
    19e4:	00013737          	lui	x14,0x13
    19e8:	a8c72683          	lw	x13,-1396(x14) # 12a8c <CORE_ID>
    19ec:	00100713          	li	x14,1
    19f0:	0ae68863          	beq	x13,x14,1aa0 <menu_loadrom+0x284>
    19f4:	00078513          	mv	x10,x15
    19f8:	9c9ff0ef          	jal	13c0 <loadsnes>
    19fc:	0a050c63          	beqz	x10,1ab4 <menu_loadrom+0x298>
    1a00:	00100593          	li	x11,1
    1a04:	0000f537          	lui	x10,0xf
    1a08:	e5050513          	add	x10,x10,-432 # ee50 <__clzsi2+0x4c4>
    1a0c:	ff0fe0ef          	jal	1fc <message>
    1a10:	e91ff06f          	j	18a0 <menu_loadrom+0x84>
    1a14:	00879713          	sll	x14,x15,0x8
    1a18:	00c12683          	lw	x13,12(x2)
    1a1c:	00e68733          	add	x14,x13,x14
    1a20:	00074683          	lbu	x13,0(x14)
    1a24:	02e00713          	li	x14,46
    1a28:	02e69063          	bne	x13,x14,1a48 <menu_loadrom+0x22c>
    1a2c:	00011737          	lui	x14,0x11
    1a30:	00879793          	sll	x15,x15,0x8
    1a34:	01070713          	add	x14,x14,16 # 11010 <file_names>
    1a38:	00f707b3          	add	x15,x14,x15
    1a3c:	0017c703          	lbu	x14,1(x15)
    1a40:	02e00793          	li	x15,46
    1a44:	04f70063          	beq	x14,x15,1a84 <menu_loadrom+0x268>
    1a48:	40000613          	li	x12,1024
    1a4c:	c98c8593          	add	x11,x25,-872
    1a50:	00012403          	lw	x8,0(x2)
    1a54:	00040513          	mv	x10,x8
    1a58:	7ad000ef          	jal	2a04 <strncat>
    1a5c:	01812583          	lw	x11,24(x2)
    1a60:	00859593          	sll	x11,x11,0x8
    1a64:	40000613          	li	x12,1024
    1a68:	00c12783          	lw	x15,12(x2)
    1a6c:	00b785b3          	add	x11,x15,x11
    1a70:	00040513          	mv	x10,x8
    1a74:	791000ef          	jal	2a04 <strncat>
    1a78:	00012c23          	sw	x0,24(x2)
    1a7c:	00812983          	lw	x19,8(x2)
    1a80:	e21ff06f          	j	18a0 <menu_loadrom+0x84>
    1a84:	02f00593          	li	x11,47
    1a88:	00010537          	lui	x10,0x10
    1a8c:	4d450513          	add	x10,x10,1236 # 104d4 <pwd>
    1a90:	058010ef          	jal	2ae8 <strrchr>
    1a94:	fe0502e3          	beqz	x10,1a78 <menu_loadrom+0x25c>
    1a98:	00050023          	sb	x0,0(x10)
    1a9c:	fddff06f          	j	1a78 <menu_loadrom+0x25c>
    1aa0:	00078513          	mv	x10,x15
    1aa4:	bdcff0ef          	jal	e80 <loadnes>
    1aa8:	f55ff06f          	j	19fc <menu_loadrom+0x1e0>
    1aac:	fffc0793          	add	x15,x24,-1
    1ab0:	def9c6e3          	blt	x19,x15,189c <menu_loadrom+0x80>
    1ab4:	a7892583          	lw	x11,-1416(x18) # 12a78 <file_len>
    1ab8:	a1c4a703          	lw	x14,-1508(x9) # fa1c <option_osd_key>
    1abc:	00100793          	li	x15,1
    1ac0:	08400693          	li	x13,132
    1ac4:	eef704e3          	beq	x14,x15,19ac <menu_loadrom+0x190>
    1ac8:	01810613          	add	x12,x2,24
    1acc:	00200513          	li	x10,2
    1ad0:	335000ef          	jal	2604 <joy_choice>
    1ad4:	00050413          	mv	x8,x10
    1ad8:	00100793          	li	x15,1
    1adc:	ecf50ce3          	beq	x10,x15,19b4 <menu_loadrom+0x198>
    1ae0:	00200793          	li	x15,2
    1ae4:	fcf504e3          	beq	x10,x15,1aac <menu_loadrom+0x290>
    1ae8:	00300793          	li	x15,3
    1aec:	fcf514e3          	bne	x10,x15,1ab4 <menu_loadrom+0x298>
    1af0:	fd3052e3          	blez	x19,1ab4 <menu_loadrom+0x298>
    1af4:	fff98993          	add	x19,x19,-1
    1af8:	da9ff06f          	j	18a0 <menu_loadrom+0x84>
    1afc:	0000f537          	lui	x10,0xf
    1b00:	e6050513          	add	x10,x10,-416 # ee60 <__clzsi2+0x4d4>
    1b04:	e9cfe0ef          	jal	1a0 <status>
    1b08:	00812583          	lw	x11,8(x2)
    1b0c:	0000f537          	lui	x10,0xf
    1b10:	e7850513          	add	x10,x10,-392 # ee78 <__clzsi2+0x4ec>
    1b14:	225000ef          	jal	2538 <printf>
    1b18:	fff00413          	li	x8,-1
    1b1c:	00040513          	mv	x10,x8
    1b20:	05c12083          	lw	x1,92(x2)
    1b24:	05812403          	lw	x8,88(x2)
    1b28:	05412483          	lw	x9,84(x2)
    1b2c:	05012903          	lw	x18,80(x2)
    1b30:	04c12983          	lw	x19,76(x2)
    1b34:	04812a03          	lw	x20,72(x2)
    1b38:	04412a83          	lw	x21,68(x2)
    1b3c:	04012b03          	lw	x22,64(x2)
    1b40:	03c12b83          	lw	x23,60(x2)
    1b44:	03812c03          	lw	x24,56(x2)
    1b48:	03412c83          	lw	x25,52(x2)
    1b4c:	03012d03          	lw	x26,48(x2)
    1b50:	02c12d83          	lw	x27,44(x2)
    1b54:	06010113          	add	x2,x2,96
    1b58:	00008067          	ret

00001b5c <backup_save>:
    1b5c:	c8010113          	add	x2,x2,-896
    1b60:	36112e23          	sw	x1,892(x2)
    1b64:	36912a23          	sw	x9,884(x2)
    1b68:	000137b7          	lui	x15,0x13
    1b6c:	a897c783          	lbu	x15,-1399(x15) # 12a89 <option_backup_bsram>
    1b70:	00100493          	li	x9,1
    1b74:	12078a63          	beqz	x15,1ca8 <backup_save+0x14c>
    1b78:	36812c23          	sw	x8,888(x2)
    1b7c:	00058413          	mv	x8,x11
    1b80:	000137b7          	lui	x15,0x13
    1b84:	a827c783          	lbu	x15,-1406(x15) # 12a82 <snes_backup_valid>
    1b88:	10078e63          	beqz	x15,1ca4 <backup_save+0x148>
    1b8c:	00059663          	bnez	x11,1b98 <backup_save+0x3c>
    1b90:	37812403          	lw	x8,888(x2)
    1b94:	1140006f          	j	1ca8 <backup_save+0x14c>
    1b98:	37212823          	sw	x18,880(x2)
    1b9c:	766177b7          	lui	x15,0x76617
    1ba0:	32f78793          	add	x15,x15,815 # 7661732f <STACK_TOP+0x7651732f>
    1ba4:	26f12223          	sw	x15,612(x2)
    1ba8:	002f77b7          	lui	x15,0x2f7
    1bac:	36578793          	add	x15,x15,869 # 2f7365 <STACK_TOP+0x1f7365>
    1bb0:	26f12423          	sw	x15,616(x2)
    1bb4:	10200613          	li	x12,258
    1bb8:	00000593          	li	x11,0
    1bbc:	26c10513          	add	x10,x2,620
    1bc0:	43d000ef          	jal	27fc <memset>
    1bc4:	01041593          	sll	x11,x8,0x10
    1bc8:	0105d593          	srl	x11,x11,0x10
    1bcc:	00700537          	lui	x10,0x700
    1bd0:	d3cff0ef          	jal	110c <gen_crc16>
    1bd4:	00050913          	mv	x18,x10
    1bd8:	00040613          	mv	x12,x8
    1bdc:	00050593          	mv	x11,x10
    1be0:	0000f537          	lui	x10,0xf
    1be4:	e7c50513          	add	x10,x10,-388 # ee7c <__clzsi2+0x4f0>
    1be8:	195000ef          	jal	257c <uart_printf>
    1bec:	000137b7          	lui	x15,0x13
    1bf0:	a807d783          	lhu	x15,-1408(x15) # 12a80 <snes_bsram_crc16>
    1bf4:	0d278463          	beq	x15,x18,1cbc <backup_save+0x160>
    1bf8:	000115b7          	lui	x11,0x11
    1bfc:	cd458593          	add	x11,x11,-812 # 10cd4 <snes_backup_name>
    1c00:	26410513          	add	x10,x2,612
    1c04:	5c9000ef          	jal	29cc <strcat>
    1c08:	00a00613          	li	x12,10
    1c0c:	26410593          	add	x11,x2,612
    1c10:	01010513          	add	x10,x2,16
    1c14:	61c060ef          	jal	8230 <f_open>
    1c18:	04051c63          	bnez	x10,1c70 <backup_save+0x114>
    1c1c:	00c10693          	add	x13,x2,12
    1c20:	00040613          	mv	x12,x8
    1c24:	007005b7          	lui	x11,0x700
    1c28:	01010513          	add	x10,x2,16
    1c2c:	6ed060ef          	jal	8b18 <f_write>
    1c30:	00051663          	bnez	x10,1c3c <backup_save+0xe0>
    1c34:	00c12783          	lw	x15,12(x2)
    1c38:	04878e63          	beq	x15,x8,1c94 <backup_save+0x138>
    1c3c:	0000f537          	lui	x10,0xf
    1c40:	eac50513          	add	x10,x10,-340 # eeac <__clzsi2+0x520>
    1c44:	d5cfe0ef          	jal	1a0 <status>
    1c48:	00c12583          	lw	x11,12(x2)
    1c4c:	0000f537          	lui	x10,0xf
    1c50:	ebc50513          	add	x10,x10,-324 # eebc <__clzsi2+0x530>
    1c54:	129000ef          	jal	257c <uart_printf>
    1c58:	00200493          	li	x9,2
    1c5c:	01010513          	add	x10,x2,16
    1c60:	658070ef          	jal	92b8 <f_close>
    1c64:	37812403          	lw	x8,888(x2)
    1c68:	37012903          	lw	x18,880(x2)
    1c6c:	03c0006f          	j	1ca8 <backup_save+0x14c>
    1c70:	0000f437          	lui	x8,0xf
    1c74:	e9440513          	add	x10,x8,-364 # ee94 <__clzsi2+0x508>
    1c78:	d28fe0ef          	jal	1a0 <status>
    1c7c:	e9440513          	add	x10,x8,-364
    1c80:	0fd000ef          	jal	257c <uart_printf>
    1c84:	00200493          	li	x9,2
    1c88:	37812403          	lw	x8,888(x2)
    1c8c:	37012903          	lw	x18,880(x2)
    1c90:	0180006f          	j	1ca8 <backup_save+0x14c>
    1c94:	000137b7          	lui	x15,0x13
    1c98:	a9279023          	sh	x18,-1408(x15) # 12a80 <snes_bsram_crc16>
    1c9c:	00000493          	li	x9,0
    1ca0:	fbdff06f          	j	1c5c <backup_save+0x100>
    1ca4:	37812403          	lw	x8,888(x2)
    1ca8:	00048513          	mv	x10,x9
    1cac:	37c12083          	lw	x1,892(x2)
    1cb0:	37412483          	lw	x9,884(x2)
    1cb4:	38010113          	add	x2,x2,896
    1cb8:	00008067          	ret
    1cbc:	37812403          	lw	x8,888(x2)
    1cc0:	37012903          	lw	x18,880(x2)
    1cc4:	fe5ff06f          	j	1ca8 <backup_save+0x14c>

00001cc8 <backup_process>:
    1cc8:	000137b7          	lui	x15,0x13
    1ccc:	a887c783          	lbu	x15,-1400(x15) # 12a88 <snes_running>
    1cd0:	0c078663          	beqz	x15,1d9c <backup_process+0xd4>
    1cd4:	000137b7          	lui	x15,0x13
    1cd8:	a897c783          	lbu	x15,-1399(x15) # 12a89 <option_backup_bsram>
    1cdc:	0c078063          	beqz	x15,1d9c <backup_process+0xd4>
    1ce0:	000137b7          	lui	x15,0x13
    1ce4:	a847a583          	lw	x11,-1404(x15) # 12a84 <snes_ramsize>
    1ce8:	0a058a63          	beqz	x11,1d9c <backup_process+0xd4>
    1cec:	ff010113          	add	x2,x2,-16
    1cf0:	00112623          	sw	x1,12(x2)
    1cf4:	00812423          	sw	x8,8(x2)
    1cf8:	020007b7          	lui	x15,0x2000
    1cfc:	0507a403          	lw	x8,80(x15) # 2000050 <STACK_TOP+0x1f00050>
    1d00:	000137b7          	lui	x15,0x13
    1d04:	a7c7a703          	lw	x14,-1412(x15) # 12a7c <snes_backup_time>
    1d08:	40e40733          	sub	x14,x8,x14
    1d0c:	000027b7          	lui	x15,0x2
    1d10:	70f78793          	add	x15,x15,1807 # 270f <joy_choice+0x10b>
    1d14:	00e7ea63          	bltu	x15,x14,1d28 <backup_process+0x60>
    1d18:	00c12083          	lw	x1,12(x2)
    1d1c:	00812403          	lw	x8,8(x2)
    1d20:	01010113          	add	x2,x2,16
    1d24:	00008067          	ret
    1d28:	00011537          	lui	x10,0x11
    1d2c:	cd450513          	add	x10,x10,-812 # 10cd4 <snes_backup_name>
    1d30:	e2dff0ef          	jal	1b5c <backup_save>
    1d34:	00051663          	bnez	x10,1d40 <backup_process+0x78>
    1d38:	000137b7          	lui	x15,0x13
    1d3c:	a687a823          	sw	x8,-1424(x15) # 12a70 <backup_success_time>
    1d40:	000137b7          	lui	x15,0x13
    1d44:	a707a783          	lw	x15,-1424(x15) # 12a70 <backup_success_time>
    1d48:	00079863          	bnez	x15,1d58 <backup_process+0x90>
    1d4c:	000137b7          	lui	x15,0x13
    1d50:	a687ae23          	sw	x8,-1412(x15) # 12a7c <snes_backup_time>
    1d54:	fc5ff06f          	j	1d18 <backup_process+0x50>
    1d58:	0000f537          	lui	x10,0xf
    1d5c:	03050513          	add	x10,x10,48 # f030 <__clzsi2+0x6a4>
    1d60:	c40fe0ef          	jal	1a0 <status>
    1d64:	000137b7          	lui	x15,0x13
    1d68:	a707a503          	lw	x10,-1424(x15) # 12a70 <backup_success_time>
    1d6c:	3e800593          	li	x11,1000
    1d70:	40a40533          	sub	x10,x8,x10
    1d74:	031090ef          	jal	b5a4 <__divsi3>
    1d78:	00050593          	mv	x11,x10
    1d7c:	0000f537          	lui	x10,0xf
    1d80:	ed450513          	add	x10,x10,-300 # eed4 <__clzsi2+0x548>
    1d84:	7b4000ef          	jal	2538 <printf>
    1d88:	00400593          	li	x11,4
    1d8c:	000137b7          	lui	x15,0x13
    1d90:	a807d503          	lhu	x10,-1408(x15) # 12a80 <snes_bsram_crc16>
    1d94:	3ec000ef          	jal	2180 <print_hex_digits>
    1d98:	fb5ff06f          	j	1d4c <backup_process+0x84>
    1d9c:	00008067          	ret

00001da0 <main>:
    1da0:	fc010113          	add	x2,x2,-64
    1da4:	02112e23          	sw	x1,60(x2)
    1da8:	02812c23          	sw	x8,56(x2)
    1dac:	02912a23          	sw	x9,52(x2)
    1db0:	03212823          	sw	x18,48(x2)
    1db4:	03312623          	sw	x19,44(x2)
    1db8:	03412423          	sw	x20,40(x2)
    1dbc:	03512223          	sw	x21,36(x2)
    1dc0:	03612023          	sw	x22,32(x2)
    1dc4:	01712e23          	sw	x23,28(x2)
    1dc8:	01812c23          	sw	x24,24(x2)
    1dcc:	01912a23          	sw	x25,20(x2)
    1dd0:	020007b7          	lui	x15,0x2000
    1dd4:	06078793          	add	x15,x15,96 # 2000060 <STACK_TOP+0x1f00060>
    1dd8:	0007a783          	lw	x15,0(x15)
    1ddc:	00013437          	lui	x8,0x13
    1de0:	a8f42623          	sw	x15,-1396(x8) # 12a8c <CORE_ID>
    1de4:	00100513          	li	x10,1
    1de8:	20c000ef          	jal	1ff4 <overlay>
    1dec:	00100513          	li	x10,1
    1df0:	739000ef          	jal	2d28 <reg_wr_cheats_enabled>
    1df4:	020007b7          	lui	x15,0x2000
    1df8:	0bb00713          	li	x14,187
    1dfc:	00e7a823          	sw	x14,16(x15) # 2000010 <STACK_TOP+0x1f00010>
    1e00:	2c8010ef          	jal	30c8 <sd_init>
    1e04:	06400513          	li	x10,100
    1e08:	7b8000ef          	jal	25c0 <delay>
    1e0c:	a8c42583          	lw	x11,-1396(x8)
    1e10:	0000f537          	lui	x10,0xf
    1e14:	eec50513          	add	x10,x10,-276 # eeec <__clzsi2+0x560>
    1e18:	764000ef          	jal	257c <uart_printf>
    1e1c:	000114b7          	lui	x9,0x11
    1e20:	dd448493          	add	x9,x9,-556 # 10dd4 <fs>
    1e24:	0000f937          	lui	x18,0xf
    1e28:	0000f9b7          	lui	x19,0xf
    1e2c:	0100006f          	j	1e3c <main+0x9c>
    1e30:	00100593          	li	x11,1
    1e34:	ef898513          	add	x10,x19,-264 # eef8 <__clzsi2+0x56c>
    1e38:	bc4fe0ef          	jal	1fc <message>
    1e3c:	0ff00413          	li	x8,255
    1e40:	00000613          	li	x12,0
    1e44:	03090593          	add	x11,x18,48 # f030 <__clzsi2+0x6a4>
    1e48:	00048513          	mv	x10,x9
    1e4c:	334060ef          	jal	8180 <f_mount>
    1e50:	00050863          	beqz	x10,1e60 <main+0xc0>
    1e54:	fff40413          	add	x8,x8,-1
    1e58:	fe0414e3          	bnez	x8,1e40 <main+0xa0>
    1e5c:	fd5ff06f          	j	1e30 <main+0x90>
    1e60:	9c8fe0ef          	jal	28 <load_option>
    1e64:	00200793          	li	x15,2
    1e68:	02f50263          	beq	x10,x15,1e8c <main+0xec>
    1e6c:	00013ab7          	lui	x21,0x13
    1e70:	00100413          	li	x8,1
    1e74:	0000fb37          	lui	x22,0xf
    1e78:	0000fcb7          	lui	x25,0xf
    1e7c:	0000fa37          	lui	x20,0xf
    1e80:	0000fc37          	lui	x24,0xf
    1e84:	0000fbb7          	lui	x23,0xf
    1e88:	0800006f          	j	1f08 <main+0x168>
    1e8c:	464000ef          	jal	22f0 <clear>
    1e90:	00100593          	li	x11,1
    1e94:	0000f537          	lui	x10,0xf
    1e98:	f1c50513          	add	x10,x10,-228 # ef1c <__clzsi2+0x590>
    1e9c:	b60fe0ef          	jal	1fc <message>
    1ea0:	fcdff06f          	j	1e6c <main+0xcc>
    1ea4:	f44c8513          	add	x10,x25,-188 # ef44 <__clzsi2+0x5b8>
    1ea8:	22c000ef          	jal	20d4 <print>
    1eac:	07c0006f          	j	1f28 <main+0x188>
    1eb0:	facc0513          	add	x10,x24,-84 # efac <__clzsi2+0x620>
    1eb4:	220000ef          	jal	20d4 <print>
    1eb8:	0a00006f          	j	1f58 <main+0x1b8>
    1ebc:	00810613          	add	x12,x2,8
    1ec0:	00300593          	li	x11,3
    1ec4:	00048513          	mv	x10,x9
    1ec8:	73c000ef          	jal	2604 <joy_choice>
    1ecc:	00850c63          	beq	x10,x8,1ee4 <main+0x144>
    1ed0:	a1c9a783          	lw	x15,-1508(x19)
    1ed4:	00090693          	mv	x13,x18
    1ed8:	fe8792e3          	bne	x15,x8,1ebc <main+0x11c>
    1edc:	00048693          	mv	x13,x9
    1ee0:	fddff06f          	j	1ebc <main+0x11c>
    1ee4:	00812783          	lw	x15,8(x2)
    1ee8:	0c878463          	beq	x15,x8,1fb0 <main+0x210>
    1eec:	00200713          	li	x14,2
    1ef0:	0ee78063          	beq	x15,x14,1fd0 <main+0x230>
    1ef4:	00079a63          	bnez	x15,1f08 <main+0x168>
    1ef8:	12c00513          	li	x10,300
    1efc:	6c4000ef          	jal	25c0 <delay>
    1f00:	00c10513          	add	x10,x2,12
    1f04:	919ff0ef          	jal	181c <menu_loadrom>
    1f08:	3e8000ef          	jal	22f0 <clear>
    1f0c:	00a00593          	li	x11,10
    1f10:	00200513          	li	x10,2
    1f14:	0cc000ef          	jal	1fe0 <cursor>
    1f18:	a8caa783          	lw	x15,-1396(x21) # 12a8c <CORE_ID>
    1f1c:	f88784e3          	beq	x15,x8,1ea4 <main+0x104>
    1f20:	f60b0513          	add	x10,x22,-160 # ef60 <__clzsi2+0x5d4>
    1f24:	1b0000ef          	jal	20d4 <print>
    1f28:	00c00593          	li	x11,12
    1f2c:	00200513          	li	x10,2
    1f30:	0b0000ef          	jal	1fe0 <cursor>
    1f34:	f7ca0513          	add	x10,x20,-132 # ef7c <__clzsi2+0x5f0>
    1f38:	19c000ef          	jal	20d4 <print>
    1f3c:	00d00593          	li	x11,13
    1f40:	00200513          	li	x10,2
    1f44:	09c000ef          	jal	1fe0 <cursor>
    1f48:	5ed000ef          	jal	2d34 <reg_rd_cheats_enabled>
    1f4c:	f60502e3          	beqz	x10,1eb0 <main+0x110>
    1f50:	f98b8513          	add	x10,x23,-104 # ef98 <__clzsi2+0x60c>
    1f54:	180000ef          	jal	20d4 <print>
    1f58:	00e00593          	li	x11,14
    1f5c:	00200513          	li	x10,2
    1f60:	080000ef          	jal	1fe0 <cursor>
    1f64:	0000f537          	lui	x10,0xf
    1f68:	fc050513          	add	x10,x10,-64 # efc0 <__clzsi2+0x634>
    1f6c:	168000ef          	jal	20d4 <print>
    1f70:	01000593          	li	x11,16
    1f74:	00200513          	li	x10,2
    1f78:	068000ef          	jal	1fe0 <cursor>
    1f7c:	0000f537          	lui	x10,0xf
    1f80:	fcc50513          	add	x10,x10,-52 # efcc <__clzsi2+0x640>
    1f84:	150000ef          	jal	20d4 <print>
    1f88:	0000f537          	lui	x10,0xf
    1f8c:	fd850513          	add	x10,x10,-40 # efd8 <__clzsi2+0x64c>
    1f90:	144000ef          	jal	20d4 <print>
    1f94:	12c00513          	li	x10,300
    1f98:	628000ef          	jal	25c0 <delay>
    1f9c:	00012423          	sw	x0,8(x2)
    1fa0:	000109b7          	lui	x19,0x10
    1fa4:	08400913          	li	x18,132
    1fa8:	00c00493          	li	x9,12
    1fac:	f25ff06f          	j	1ed0 <main+0x130>
    1fb0:	585000ef          	jal	2d34 <reg_rd_cheats_enabled>
    1fb4:	00050863          	beqz	x10,1fc4 <main+0x224>
    1fb8:	00000513          	li	x10,0
    1fbc:	56d000ef          	jal	2d28 <reg_wr_cheats_enabled>
    1fc0:	f49ff06f          	j	1f08 <main+0x168>
    1fc4:	00040513          	mv	x10,x8
    1fc8:	561000ef          	jal	2d28 <reg_wr_cheats_enabled>
    1fcc:	f3dff06f          	j	1f08 <main+0x168>
    1fd0:	12c00513          	li	x10,300
    1fd4:	5ec000ef          	jal	25c0 <delay>
    1fd8:	fa8fe0ef          	jal	780 <menu_options>
    1fdc:	f2dff06f          	j	1f08 <main+0x168>

00001fe0 <cursor>:
    1fe0:	000137b7          	lui	x15,0x13
    1fe4:	a8a7ac23          	sw	x10,-1384(x15) # 12a98 <curx>
    1fe8:	000137b7          	lui	x15,0x13
    1fec:	a8b7aa23          	sw	x11,-1388(x15) # 12a94 <cury>
    1ff0:	00008067          	ret

00001ff4 <overlay>:
    1ff4:	00050e63          	beqz	x10,2010 <overlay+0x1c>
    1ff8:	020007b7          	lui	x15,0x2000
    1ffc:	01000737          	lui	x14,0x1000
    2000:	00e7a023          	sw	x14,0(x15) # 2000000 <STACK_TOP+0x1f00000>
    2004:	000137b7          	lui	x15,0x13
    2008:	a8a7a823          	sw	x10,-1392(x15) # 12a90 <_overlay_status>
    200c:	00008067          	ret
    2010:	020007b7          	lui	x15,0x2000
    2014:	00f7a023          	sw	x15,0(x15) # 2000000 <STACK_TOP+0x1f00000>
    2018:	fedff06f          	j	2004 <overlay+0x10>

0000201c <overlay_status>:
    201c:	000137b7          	lui	x15,0x13
    2020:	a907a503          	lw	x10,-1392(x15) # 12a90 <_overlay_status>
    2024:	00008067          	ret

00002028 <putchar>:
    2028:	000137b7          	lui	x15,0x13
    202c:	a987a783          	lw	x15,-1384(x15) # 12a98 <curx>
    2030:	01f00713          	li	x14,31
    2034:	04f76663          	bltu	x14,x15,2080 <putchar+0x58>
    2038:	00013737          	lui	x14,0x13
    203c:	a9472703          	lw	x14,-1388(x14) # 12a94 <cury>
    2040:	01b00693          	li	x13,27
    2044:	02e6ee63          	bltu	x13,x14,2080 <putchar+0x58>
    2048:	01079793          	sll	x15,x15,0x10
    204c:	00871713          	sll	x14,x14,0x8
    2050:	00e787b3          	add	x15,x15,x14
    2054:	00a787b3          	add	x15,x15,x10
    2058:	02000737          	lui	x14,0x2000
    205c:	00f72023          	sw	x15,0(x14) # 2000000 <STACK_TOP+0x1f00000>
    2060:	fe050793          	add	x15,x10,-32
    2064:	05f00713          	li	x14,95
    2068:	00f76c63          	bltu	x14,x15,2080 <putchar+0x58>
    206c:	00013737          	lui	x14,0x13
    2070:	a9872783          	lw	x15,-1384(x14) # 12a98 <curx>
    2074:	00178793          	add	x15,x15,1
    2078:	a8f72c23          	sw	x15,-1384(x14)
    207c:	00008067          	ret
    2080:	00a00793          	li	x15,10
    2084:	00f50463          	beq	x10,x15,208c <putchar+0x64>
    2088:	00008067          	ret
    208c:	000137b7          	lui	x15,0x13
    2090:	00200713          	li	x14,2
    2094:	a8e7ac23          	sw	x14,-1384(x15) # 12a98 <curx>
    2098:	00013737          	lui	x14,0x13
    209c:	a9472783          	lw	x15,-1388(x14) # 12a94 <cury>
    20a0:	00178793          	add	x15,x15,1
    20a4:	a8f72a23          	sw	x15,-1388(x14)
    20a8:	00008067          	ret

000020ac <_putchar>:
    20ac:	00058863          	beqz	x11,20bc <_putchar+0x10>
    20b0:	020007b7          	lui	x15,0x2000
    20b4:	00a7aa23          	sw	x10,20(x15) # 2000014 <STACK_TOP+0x1f00014>
    20b8:	00008067          	ret
    20bc:	ff010113          	add	x2,x2,-16
    20c0:	00112623          	sw	x1,12(x2)
    20c4:	f65ff0ef          	jal	2028 <putchar>
    20c8:	00c12083          	lw	x1,12(x2)
    20cc:	01010113          	add	x2,x2,16
    20d0:	00008067          	ret

000020d4 <print>:
    20d4:	ff010113          	add	x2,x2,-16
    20d8:	00112623          	sw	x1,12(x2)
    20dc:	00812423          	sw	x8,8(x2)
    20e0:	00050413          	mv	x8,x10
    20e4:	00054503          	lbu	x10,0(x10)
    20e8:	00050a63          	beqz	x10,20fc <print+0x28>
    20ec:	00140413          	add	x8,x8,1
    20f0:	f39ff0ef          	jal	2028 <putchar>
    20f4:	00044503          	lbu	x10,0(x8)
    20f8:	fe051ae3          	bnez	x10,20ec <print+0x18>
    20fc:	00000513          	li	x10,0
    2100:	00c12083          	lw	x1,12(x2)
    2104:	00812403          	lw	x8,8(x2)
    2108:	01010113          	add	x2,x2,16
    210c:	00008067          	ret

00002110 <_print_hex_digits>:
    2110:	fe010113          	add	x2,x2,-32
    2114:	00112e23          	sw	x1,28(x2)
    2118:	00812c23          	sw	x8,24(x2)
    211c:	fff58413          	add	x8,x11,-1 # 6fffff <STACK_TOP+0x5fffff>
    2120:	00241413          	sll	x8,x8,0x2
    2124:	04044663          	bltz	x8,2170 <_print_hex_digits+0x60>
    2128:	00912a23          	sw	x9,20(x2)
    212c:	01212823          	sw	x18,16(x2)
    2130:	01312623          	sw	x19,12(x2)
    2134:	00050493          	mv	x9,x10
    2138:	00060913          	mv	x18,x12
    213c:	0000f9b7          	lui	x19,0xf
    2140:	fe498993          	add	x19,x19,-28 # efe4 <__clzsi2+0x658>
    2144:	0084d7b3          	srl	x15,x9,x8
    2148:	00f7f793          	and	x15,x15,15
    214c:	00f987b3          	add	x15,x19,x15
    2150:	00090593          	mv	x11,x18
    2154:	0007c503          	lbu	x10,0(x15)
    2158:	f55ff0ef          	jal	20ac <_putchar>
    215c:	ffc40413          	add	x8,x8,-4
    2160:	fe0452e3          	bgez	x8,2144 <_print_hex_digits+0x34>
    2164:	01412483          	lw	x9,20(x2)
    2168:	01012903          	lw	x18,16(x2)
    216c:	00c12983          	lw	x19,12(x2)
    2170:	01c12083          	lw	x1,28(x2)
    2174:	01812403          	lw	x8,24(x2)
    2178:	02010113          	add	x2,x2,32
    217c:	00008067          	ret

00002180 <print_hex_digits>:
    2180:	ff010113          	add	x2,x2,-16
    2184:	00112623          	sw	x1,12(x2)
    2188:	00000613          	li	x12,0
    218c:	f85ff0ef          	jal	2110 <_print_hex_digits>
    2190:	00c12083          	lw	x1,12(x2)
    2194:	01010113          	add	x2,x2,16
    2198:	00008067          	ret

0000219c <uart_print_hex_digits>:
    219c:	ff010113          	add	x2,x2,-16
    21a0:	00112623          	sw	x1,12(x2)
    21a4:	00100613          	li	x12,1
    21a8:	f69ff0ef          	jal	2110 <_print_hex_digits>
    21ac:	00c12083          	lw	x1,12(x2)
    21b0:	01010113          	add	x2,x2,16
    21b4:	00008067          	ret

000021b8 <_print_hex>:
    21b8:	ff010113          	add	x2,x2,-16
    21bc:	00112623          	sw	x1,12(x2)
    21c0:	00058613          	mv	x12,x11
    21c4:	00800593          	li	x11,8
    21c8:	f49ff0ef          	jal	2110 <_print_hex_digits>
    21cc:	00c12083          	lw	x1,12(x2)
    21d0:	01010113          	add	x2,x2,16
    21d4:	00008067          	ret

000021d8 <print_hex>:
    21d8:	ff010113          	add	x2,x2,-16
    21dc:	00112623          	sw	x1,12(x2)
    21e0:	00000593          	li	x11,0
    21e4:	fd5ff0ef          	jal	21b8 <_print_hex>
    21e8:	00c12083          	lw	x1,12(x2)
    21ec:	01010113          	add	x2,x2,16
    21f0:	00008067          	ret

000021f4 <uart_print_hex>:
    21f4:	ff010113          	add	x2,x2,-16
    21f8:	00112623          	sw	x1,12(x2)
    21fc:	00100593          	li	x11,1
    2200:	fb9ff0ef          	jal	21b8 <_print_hex>
    2204:	00c12083          	lw	x1,12(x2)
    2208:	01010113          	add	x2,x2,16
    220c:	00008067          	ret

00002210 <_print_dec>:
    2210:	ee010113          	add	x2,x2,-288
    2214:	10112e23          	sw	x1,284(x2)
    2218:	10812c23          	sw	x8,280(x2)
    221c:	10912a23          	sw	x9,276(x2)
    2220:	11212823          	sw	x18,272(x2)
    2224:	11312623          	sw	x19,268(x2)
    2228:	00050413          	mv	x8,x10
    222c:	00058913          	mv	x18,x11
    2230:	00010493          	mv	x9,x2
    2234:	00010993          	mv	x19,x2
    2238:	04055063          	bgez	x10,2278 <_print_dec+0x68>
    223c:	02d00513          	li	x10,45
    2240:	e6dff0ef          	jal	20ac <_putchar>
    2244:	00090593          	mv	x11,x18
    2248:	40800533          	neg	x10,x8
    224c:	fc5ff0ef          	jal	2210 <_print_dec>
    2250:	04c0006f          	j	229c <_print_dec+0x8c>
    2254:	00148493          	add	x9,x9,1
    2258:	00a00593          	li	x11,10
    225c:	00040513          	mv	x10,x8
    2260:	3c8090ef          	jal	b628 <__modsi3>
    2264:	fea48fa3          	sb	x10,-1(x9)
    2268:	00a00593          	li	x11,10
    226c:	00040513          	mv	x10,x8
    2270:	334090ef          	jal	b5a4 <__divsi3>
    2274:	00050413          	mv	x8,x10
    2278:	fc041ee3          	bnez	x8,2254 <_print_dec+0x44>
    227c:	fd348ce3          	beq	x9,x19,2254 <_print_dec+0x44>
    2280:	00010413          	mv	x8,x2
    2284:	fff48493          	add	x9,x9,-1
    2288:	0004c503          	lbu	x10,0(x9)
    228c:	00090593          	mv	x11,x18
    2290:	03050513          	add	x10,x10,48
    2294:	e19ff0ef          	jal	20ac <_putchar>
    2298:	fe8496e3          	bne	x9,x8,2284 <_print_dec+0x74>
    229c:	11c12083          	lw	x1,284(x2)
    22a0:	11812403          	lw	x8,280(x2)
    22a4:	11412483          	lw	x9,276(x2)
    22a8:	11012903          	lw	x18,272(x2)
    22ac:	10c12983          	lw	x19,268(x2)
    22b0:	12010113          	add	x2,x2,288
    22b4:	00008067          	ret

000022b8 <print_dec>:
    22b8:	ff010113          	add	x2,x2,-16
    22bc:	00112623          	sw	x1,12(x2)
    22c0:	00000593          	li	x11,0
    22c4:	f4dff0ef          	jal	2210 <_print_dec>
    22c8:	00c12083          	lw	x1,12(x2)
    22cc:	01010113          	add	x2,x2,16
    22d0:	00008067          	ret

000022d4 <uart_print_dec>:
    22d4:	ff010113          	add	x2,x2,-16
    22d8:	00112623          	sw	x1,12(x2)
    22dc:	00100593          	li	x11,1
    22e0:	f31ff0ef          	jal	2210 <_print_dec>
    22e4:	00c12083          	lw	x1,12(x2)
    22e8:	01010113          	add	x2,x2,16
    22ec:	00008067          	ret

000022f0 <clear>:
    22f0:	fe010113          	add	x2,x2,-32
    22f4:	00112e23          	sw	x1,28(x2)
    22f8:	00812c23          	sw	x8,24(x2)
    22fc:	00912a23          	sw	x9,20(x2)
    2300:	01212823          	sw	x18,16(x2)
    2304:	01312623          	sw	x19,12(x2)
    2308:	01412423          	sw	x20,8(x2)
    230c:	00000493          	li	x9,0
    2310:	00013a37          	lui	x20,0x13
    2314:	000139b7          	lui	x19,0x13
    2318:	01c00913          	li	x18,28
    231c:	a80a2c23          	sw	x0,-1384(x20) # 12a98 <curx>
    2320:	a899aa23          	sw	x9,-1388(x19) # 12a94 <cury>
    2324:	02000413          	li	x8,32
    2328:	02000513          	li	x10,32
    232c:	cfdff0ef          	jal	2028 <putchar>
    2330:	fff40413          	add	x8,x8,-1
    2334:	fe041ae3          	bnez	x8,2328 <clear+0x38>
    2338:	00148493          	add	x9,x9,1
    233c:	ff2490e3          	bne	x9,x18,231c <clear+0x2c>
    2340:	01c12083          	lw	x1,28(x2)
    2344:	01812403          	lw	x8,24(x2)
    2348:	01412483          	lw	x9,20(x2)
    234c:	01012903          	lw	x18,16(x2)
    2350:	00c12983          	lw	x19,12(x2)
    2354:	00812a03          	lw	x20,8(x2)
    2358:	02010113          	add	x2,x2,32
    235c:	00008067          	ret

00002360 <uart_init>:
    2360:	020007b7          	lui	x15,0x2000
    2364:	00a7a823          	sw	x10,16(x15) # 2000010 <STACK_TOP+0x1f00010>
    2368:	00008067          	ret

0000236c <uart_putchar>:
    236c:	020007b7          	lui	x15,0x2000
    2370:	00a7aa23          	sw	x10,20(x15) # 2000014 <STACK_TOP+0x1f00014>
    2374:	00008067          	ret

00002378 <uart_print>:
    2378:	ff010113          	add	x2,x2,-16
    237c:	00112623          	sw	x1,12(x2)
    2380:	00812423          	sw	x8,8(x2)
    2384:	00050413          	mv	x8,x10
    2388:	00054503          	lbu	x10,0(x10)
    238c:	00050c63          	beqz	x10,23a4 <uart_print+0x2c>
    2390:	00140413          	add	x8,x8,1
    2394:	00100593          	li	x11,1
    2398:	d15ff0ef          	jal	20ac <_putchar>
    239c:	00044503          	lbu	x10,0(x8)
    23a0:	fe0518e3          	bnez	x10,2390 <uart_print+0x18>
    23a4:	00000513          	li	x10,0
    23a8:	00c12083          	lw	x1,12(x2)
    23ac:	00812403          	lw	x8,8(x2)
    23b0:	01010113          	add	x2,x2,16
    23b4:	00008067          	ret

000023b8 <_print>:
    23b8:	ff010113          	add	x2,x2,-16
    23bc:	00112623          	sw	x1,12(x2)
    23c0:	00058a63          	beqz	x11,23d4 <_print+0x1c>
    23c4:	fb5ff0ef          	jal	2378 <uart_print>
    23c8:	00c12083          	lw	x1,12(x2)
    23cc:	01010113          	add	x2,x2,16
    23d0:	00008067          	ret
    23d4:	d01ff0ef          	jal	20d4 <print>
    23d8:	ff1ff06f          	j	23c8 <_print+0x10>

000023dc <_printf>:
    23dc:	fe010113          	add	x2,x2,-32
    23e0:	00112e23          	sw	x1,28(x2)
    23e4:	00812c23          	sw	x8,24(x2)
    23e8:	00050413          	mv	x8,x10
    23ec:	00054503          	lbu	x10,0(x10)
    23f0:	12050a63          	beqz	x10,2524 <_printf+0x148>
    23f4:	00912a23          	sw	x9,20(x2)
    23f8:	01212823          	sw	x18,16(x2)
    23fc:	01312623          	sw	x19,12(x2)
    2400:	01412423          	sw	x20,8(x2)
    2404:	01512223          	sw	x21,4(x2)
    2408:	01612023          	sw	x22,0(x2)
    240c:	00058913          	mv	x18,x11
    2410:	00060993          	mv	x19,x12
    2414:	02500a13          	li	x20,37
    2418:	01600b13          	li	x22,22
    241c:	0000fab7          	lui	x21,0xf
    2420:	15ca8a93          	add	x21,x21,348 # f15c <__clzsi2+0x7d0>
    2424:	0c00006f          	j	24e4 <_printf+0x108>
    2428:	00490413          	add	x8,x18,4
    242c:	00098593          	mv	x11,x19
    2430:	00092503          	lw	x10,0(x18)
    2434:	f85ff0ef          	jal	23b8 <_print>
    2438:	00040913          	mv	x18,x8
    243c:	09c0006f          	j	24d8 <_printf+0xfc>
    2440:	00490413          	add	x8,x18,4
    2444:	00098593          	mv	x11,x19
    2448:	00092503          	lw	x10,0(x18)
    244c:	d6dff0ef          	jal	21b8 <_print_hex>
    2450:	00040913          	mv	x18,x8
    2454:	0840006f          	j	24d8 <_printf+0xfc>
    2458:	00490413          	add	x8,x18,4
    245c:	00098593          	mv	x11,x19
    2460:	00092503          	lw	x10,0(x18)
    2464:	dadff0ef          	jal	2210 <_print_dec>
    2468:	00040913          	mv	x18,x8
    246c:	06c0006f          	j	24d8 <_printf+0xfc>
    2470:	00490413          	add	x8,x18,4
    2474:	00098593          	mv	x11,x19
    2478:	00092503          	lw	x10,0(x18)
    247c:	c31ff0ef          	jal	20ac <_putchar>
    2480:	00040913          	mv	x18,x8
    2484:	0540006f          	j	24d8 <_printf+0xfc>
    2488:	00490413          	add	x8,x18,4
    248c:	00098613          	mv	x12,x19
    2490:	00200593          	li	x11,2
    2494:	00092503          	lw	x10,0(x18)
    2498:	c79ff0ef          	jal	2110 <_print_hex_digits>
    249c:	00040913          	mv	x18,x8
    24a0:	0380006f          	j	24d8 <_printf+0xfc>
    24a4:	00490413          	add	x8,x18,4
    24a8:	00098613          	mv	x12,x19
    24ac:	00400593          	li	x11,4
    24b0:	00092503          	lw	x10,0(x18)
    24b4:	c5dff0ef          	jal	2110 <_print_hex_digits>
    24b8:	00040913          	mv	x18,x8
    24bc:	01c0006f          	j	24d8 <_printf+0xfc>
    24c0:	00098593          	mv	x11,x19
    24c4:	be9ff0ef          	jal	20ac <_putchar>
    24c8:	0100006f          	j	24d8 <_printf+0xfc>
    24cc:	00098593          	mv	x11,x19
    24d0:	bddff0ef          	jal	20ac <_putchar>
    24d4:	00040493          	mv	x9,x8
    24d8:	00148413          	add	x8,x9,1
    24dc:	0014c503          	lbu	x10,1(x9)
    24e0:	02050663          	beqz	x10,250c <_printf+0x130>
    24e4:	ff4514e3          	bne	x10,x20,24cc <_printf+0xf0>
    24e8:	00140493          	add	x9,x8,1
    24ec:	00144503          	lbu	x10,1(x8)
    24f0:	f9e50793          	add	x15,x10,-98
    24f4:	0ff7f713          	zext.b	x14,x15
    24f8:	fceb64e3          	bltu	x22,x14,24c0 <_printf+0xe4>
    24fc:	00271793          	sll	x15,x14,0x2
    2500:	015787b3          	add	x15,x15,x21
    2504:	0007a783          	lw	x15,0(x15)
    2508:	00078067          	jr	x15
    250c:	01412483          	lw	x9,20(x2)
    2510:	01012903          	lw	x18,16(x2)
    2514:	00c12983          	lw	x19,12(x2)
    2518:	00812a03          	lw	x20,8(x2)
    251c:	00412a83          	lw	x21,4(x2)
    2520:	00012b03          	lw	x22,0(x2)
    2524:	00000513          	li	x10,0
    2528:	01c12083          	lw	x1,28(x2)
    252c:	01812403          	lw	x8,24(x2)
    2530:	02010113          	add	x2,x2,32
    2534:	00008067          	ret

00002538 <printf>:
    2538:	fc010113          	add	x2,x2,-64
    253c:	00112e23          	sw	x1,28(x2)
    2540:	02b12223          	sw	x11,36(x2)
    2544:	02c12423          	sw	x12,40(x2)
    2548:	02d12623          	sw	x13,44(x2)
    254c:	02e12823          	sw	x14,48(x2)
    2550:	02f12a23          	sw	x15,52(x2)
    2554:	03012c23          	sw	x16,56(x2)
    2558:	03112e23          	sw	x17,60(x2)
    255c:	02410593          	add	x11,x2,36
    2560:	00b12623          	sw	x11,12(x2)
    2564:	00000613          	li	x12,0
    2568:	e75ff0ef          	jal	23dc <_printf>
    256c:	00000513          	li	x10,0
    2570:	01c12083          	lw	x1,28(x2)
    2574:	04010113          	add	x2,x2,64
    2578:	00008067          	ret

0000257c <uart_printf>:
    257c:	fc010113          	add	x2,x2,-64
    2580:	00112e23          	sw	x1,28(x2)
    2584:	02b12223          	sw	x11,36(x2)
    2588:	02c12423          	sw	x12,40(x2)
    258c:	02d12623          	sw	x13,44(x2)
    2590:	02e12823          	sw	x14,48(x2)
    2594:	02f12a23          	sw	x15,52(x2)
    2598:	03012c23          	sw	x16,56(x2)
    259c:	03112e23          	sw	x17,60(x2)
    25a0:	02410593          	add	x11,x2,36
    25a4:	00b12623          	sw	x11,12(x2)
    25a8:	00100613          	li	x12,1
    25ac:	e31ff0ef          	jal	23dc <_printf>
    25b0:	00000513          	li	x10,0
    25b4:	01c12083          	lw	x1,28(x2)
    25b8:	04010113          	add	x2,x2,64
    25bc:	00008067          	ret

000025c0 <delay>:
    25c0:	020007b7          	lui	x15,0x2000
    25c4:	0507a683          	lw	x13,80(x15) # 2000050 <STACK_TOP+0x1f00050>
    25c8:	05078793          	add	x15,x15,80
    25cc:	00078713          	mv	x14,x15
    25d0:	00072783          	lw	x15,0(x14)
    25d4:	40d787b3          	sub	x15,x15,x13
    25d8:	fea7ece3          	bltu	x15,x10,25d0 <delay+0x10>
    25dc:	00008067          	ret

000025e0 <joy_get>:
    25e0:	020007b7          	lui	x15,0x2000
    25e4:	04078793          	add	x15,x15,64 # 2000040 <STACK_TOP+0x1f00040>
    25e8:	0007a783          	lw	x15,0(x15)
    25ec:	01079713          	sll	x14,x15,0x10
    25f0:	01075713          	srl	x14,x14,0x10
    25f4:	00e52023          	sw	x14,0(x10)
    25f8:	0107d793          	srl	x15,x15,0x10
    25fc:	00f5a023          	sw	x15,0(x11)
    2600:	00008067          	ret

00002604 <joy_choice>:
    2604:	fd010113          	add	x2,x2,-48
    2608:	02112623          	sw	x1,44(x2)
    260c:	02812423          	sw	x8,40(x2)
    2610:	02912223          	sw	x9,36(x2)
    2614:	03212023          	sw	x18,32(x2)
    2618:	01312e23          	sw	x19,28(x2)
    261c:	01412c23          	sw	x20,24(x2)
    2620:	01512a23          	sw	x21,20(x2)
    2624:	00050993          	mv	x19,x10
    2628:	00058a93          	mv	x21,x11
    262c:	00060413          	mv	x8,x12
    2630:	00068493          	mv	x9,x13
    2634:	00062a03          	lw	x20,0(x12)
    2638:	00810593          	add	x11,x2,8
    263c:	00c10513          	add	x10,x2,12
    2640:	fa1ff0ef          	jal	25e0 <joy_get>
    2644:	00c12903          	lw	x18,12(x2)
    2648:	0a990663          	beq	x18,x9,26f4 <joy_choice+0xf0>
    264c:	00812783          	lw	x15,8(x2)
    2650:	0a978263          	beq	x15,x9,26f4 <joy_choice+0xf0>
    2654:	e74ff0ef          	jal	1cc8 <backup_process>
    2658:	000137b7          	lui	x15,0x13
    265c:	a907a483          	lw	x9,-1392(x15) # 12a90 <_overlay_status>
    2660:	06048663          	beqz	x9,26cc <joy_choice+0xc8>
    2664:	00812783          	lw	x15,8(x2)
    2668:	00f96733          	or	x14,x18,x15
    266c:	01077693          	and	x13,x14,16
    2670:	00068a63          	beqz	x13,2684 <joy_choice+0x80>
    2674:	00042683          	lw	x13,0(x8)
    2678:	00d05663          	blez	x13,2684 <joy_choice+0x80>
    267c:	fff68693          	add	x13,x13,-1
    2680:	00d42023          	sw	x13,0(x8)
    2684:	02077693          	and	x13,x14,32
    2688:	00068c63          	beqz	x13,26a0 <joy_choice+0x9c>
    268c:	00042683          	lw	x13,0(x8)
    2690:	fffa8593          	add	x11,x21,-1
    2694:	00b6d663          	bge	x13,x11,26a0 <joy_choice+0x9c>
    2698:	00168693          	add	x13,x13,1
    269c:	00d42023          	sw	x13,0(x8)
    26a0:	04097913          	and	x18,x18,64
    26a4:	00300493          	li	x9,3
    26a8:	02091263          	bnez	x18,26cc <joy_choice+0xc8>
    26ac:	0407f793          	and	x15,x15,64
    26b0:	00079e63          	bnez	x15,26cc <joy_choice+0xc8>
    26b4:	08077793          	and	x15,x14,128
    26b8:	00200493          	li	x9,2
    26bc:	00079863          	bnez	x15,26cc <joy_choice+0xc8>
    26c0:	10177493          	and	x9,x14,257
    26c4:	04048663          	beqz	x9,2710 <joy_choice+0x10c>
    26c8:	00100493          	li	x9,1
    26cc:	00048513          	mv	x10,x9
    26d0:	02c12083          	lw	x1,44(x2)
    26d4:	02812403          	lw	x8,40(x2)
    26d8:	02412483          	lw	x9,36(x2)
    26dc:	02012903          	lw	x18,32(x2)
    26e0:	01c12983          	lw	x19,28(x2)
    26e4:	01812a03          	lw	x20,24(x2)
    26e8:	01412a83          	lw	x21,20(x2)
    26ec:	03010113          	add	x2,x2,48
    26f0:	00008067          	ret
    26f4:	000137b7          	lui	x15,0x13
    26f8:	a907a503          	lw	x10,-1392(x15) # 12a90 <_overlay_status>
    26fc:	00153513          	seqz	x10,x10
    2700:	8f5ff0ef          	jal	1ff4 <overlay>
    2704:	12c00513          	li	x10,300
    2708:	eb9ff0ef          	jal	25c0 <delay>
    270c:	f49ff06f          	j	2654 <joy_choice+0x50>
    2710:	00042783          	lw	x15,0(x8)
    2714:	00f987b3          	add	x15,x19,x15
    2718:	00013737          	lui	x14,0x13
    271c:	a8072c23          	sw	x0,-1384(x14) # 12a98 <curx>
    2720:	00013737          	lui	x14,0x13
    2724:	a8f72a23          	sw	x15,-1388(x14) # 12a94 <cury>
    2728:	0000f537          	lui	x10,0xf
    272c:	ff850513          	add	x10,x10,-8 # eff8 <__clzsi2+0x66c>
    2730:	9a5ff0ef          	jal	20d4 <print>
    2734:	00042783          	lw	x15,0(x8)
    2738:	f9478ae3          	beq	x15,x20,26cc <joy_choice+0xc8>
    273c:	000137b7          	lui	x15,0x13
    2740:	a807ac23          	sw	x0,-1384(x15) # 12a98 <curx>
    2744:	013a0a33          	add	x20,x20,x19
    2748:	000137b7          	lui	x15,0x13
    274c:	a947aa23          	sw	x20,-1388(x15) # 12a94 <cury>
    2750:	0000f537          	lui	x10,0xf
    2754:	08c50513          	add	x10,x10,140 # f08c <__clzsi2+0x700>
    2758:	97dff0ef          	jal	20d4 <print>
    275c:	06400513          	li	x10,100
    2760:	e61ff0ef          	jal	25c0 <delay>
    2764:	f69ff06f          	j	26cc <joy_choice+0xc8>

00002768 <snes_ctrl>:
    2768:	020007b7          	lui	x15,0x2000
    276c:	02a7a823          	sw	x10,48(x15) # 2000030 <STACK_TOP+0x1f00030>
    2770:	00008067          	ret

00002774 <snes_data>:
    2774:	020007b7          	lui	x15,0x2000
    2778:	02a7aa23          	sw	x10,52(x15) # 2000034 <STACK_TOP+0x1f00034>
    277c:	00008067          	ret

00002780 <memcpy>:
    2780:	00a5e733          	or	x14,x11,x10
    2784:	00377713          	and	x14,x14,3
    2788:	00050793          	mv	x15,x10
    278c:	02070263          	beqz	x14,27b0 <memcpy+0x30>
    2790:	00c786b3          	add	x13,x15,x12
    2794:	06060263          	beqz	x12,27f8 <memcpy+0x78>
    2798:	00158593          	add	x11,x11,1
    279c:	00178793          	add	x15,x15,1
    27a0:	fff5c703          	lbu	x14,-1(x11)
    27a4:	fee78fa3          	sb	x14,-1(x15)
    27a8:	fef698e3          	bne	x13,x15,2798 <memcpy+0x18>
    27ac:	00008067          	ret
    27b0:	00300793          	li	x15,3
    27b4:	02c7fe63          	bgeu	x15,x12,27f0 <memcpy+0x70>
    27b8:	ffc60893          	add	x17,x12,-4
    27bc:	ffc8f893          	and	x17,x17,-4
    27c0:	00488893          	add	x17,x17,4
    27c4:	011507b3          	add	x15,x10,x17
    27c8:	00058693          	mv	x13,x11
    27cc:	00050713          	mv	x14,x10
    27d0:	00468693          	add	x13,x13,4
    27d4:	00470713          	add	x14,x14,4
    27d8:	ffc6a803          	lw	x16,-4(x13)
    27dc:	ff072e23          	sw	x16,-4(x14)
    27e0:	fef718e3          	bne	x14,x15,27d0 <memcpy+0x50>
    27e4:	011585b3          	add	x11,x11,x17
    27e8:	00367613          	and	x12,x12,3
    27ec:	fa5ff06f          	j	2790 <memcpy+0x10>
    27f0:	00050793          	mv	x15,x10
    27f4:	f9dff06f          	j	2790 <memcpy+0x10>
    27f8:	00008067          	ret

000027fc <memset>:
    27fc:	00060c63          	beqz	x12,2814 <memset+0x18>
    2800:	00c50633          	add	x12,x10,x12
    2804:	00050793          	mv	x15,x10
    2808:	00b78023          	sb	x11,0(x15)
    280c:	00178793          	add	x15,x15,1
    2810:	fef61ce3          	bne	x12,x15,2808 <memset+0xc>
    2814:	00008067          	ret

00002818 <memcmp>:
    2818:	02060c63          	beqz	x12,2850 <memcmp+0x38>
    281c:	00c50633          	add	x12,x10,x12
    2820:	00054703          	lbu	x14,0(x10)
    2824:	0005c783          	lbu	x15,0(x11)
    2828:	00f71c63          	bne	x14,x15,2840 <memcmp+0x28>
    282c:	00150513          	add	x10,x10,1
    2830:	00158593          	add	x11,x11,1
    2834:	fea616e3          	bne	x12,x10,2820 <memcmp+0x8>
    2838:	00000513          	li	x10,0
    283c:	00008067          	ret
    2840:	00100513          	li	x10,1
    2844:	00f77863          	bgeu	x14,x15,2854 <memcmp+0x3c>
    2848:	fff00513          	li	x10,-1
    284c:	00008067          	ret
    2850:	00000513          	li	x10,0
    2854:	00008067          	ret

00002858 <strcmp>:
    2858:	00054783          	lbu	x15,0(x10)
    285c:	00078e63          	beqz	x15,2878 <strcmp+0x20>
    2860:	0005c703          	lbu	x14,0(x11)
    2864:	00f71a63          	bne	x14,x15,2878 <strcmp+0x20>
    2868:	00150513          	add	x10,x10,1
    286c:	00158593          	add	x11,x11,1
    2870:	00054783          	lbu	x15,0(x10)
    2874:	fe0796e3          	bnez	x15,2860 <strcmp+0x8>
    2878:	0005c503          	lbu	x10,0(x11)
    287c:	40a78533          	sub	x10,x15,x10
    2880:	00008067          	ret

00002884 <strcasecmp>:
    2884:	00054783          	lbu	x15,0(x10)
    2888:	01900613          	li	x12,25
    288c:	02079263          	bnez	x15,28b0 <strcasecmp+0x2c>
    2890:	0005c503          	lbu	x10,0(x11)
    2894:	40a78533          	sub	x10,x15,x10
    2898:	00008067          	ret
    289c:	fed71ae3          	bne	x14,x13,2890 <strcasecmp+0xc>
    28a0:	00150513          	add	x10,x10,1
    28a4:	00158593          	add	x11,x11,1
    28a8:	00054783          	lbu	x15,0(x10)
    28ac:	fe0782e3          	beqz	x15,2890 <strcasecmp+0xc>
    28b0:	00078693          	mv	x13,x15
    28b4:	fbf78713          	add	x14,x15,-65
    28b8:	00e66463          	bltu	x12,x14,28c0 <strcasecmp+0x3c>
    28bc:	02078693          	add	x13,x15,32
    28c0:	0005c703          	lbu	x14,0(x11)
    28c4:	fbf70813          	add	x16,x14,-65
    28c8:	fd066ae3          	bltu	x12,x16,289c <strcasecmp+0x18>
    28cc:	02070713          	add	x14,x14,32
    28d0:	fcdff06f          	j	289c <strcasecmp+0x18>

000028d4 <strstr>:
    28d4:	0005c803          	lbu	x16,0(x11)
    28d8:	00080863          	beqz	x16,28e8 <strstr+0x14>
    28dc:	00054783          	lbu	x15,0(x10)
    28e0:	00079c63          	bnez	x15,28f8 <strstr+0x24>
    28e4:	00000513          	li	x10,0
    28e8:	00008067          	ret
    28ec:	00150513          	add	x10,x10,1
    28f0:	00054783          	lbu	x15,0(x10)
    28f4:	02078663          	beqz	x15,2920 <strstr+0x4c>
    28f8:	fef81ae3          	bne	x16,x15,28ec <strstr+0x18>
    28fc:	00058793          	mv	x15,x11
    2900:	00050693          	mv	x13,x10
    2904:	0007c703          	lbu	x14,0(x15)
    2908:	fe0700e3          	beqz	x14,28e8 <strstr+0x14>
    290c:	00168693          	add	x13,x13,1
    2910:	00178793          	add	x15,x15,1
    2914:	fff6c603          	lbu	x12,-1(x13)
    2918:	fee606e3          	beq	x12,x14,2904 <strstr+0x30>
    291c:	fd1ff06f          	j	28ec <strstr+0x18>
    2920:	00000513          	li	x10,0
    2924:	00008067          	ret

00002928 <strcasestr>:
    2928:	0005c703          	lbu	x14,0(x11)
    292c:	08070e63          	beqz	x14,29c8 <strcasestr+0xa0>
    2930:	00054783          	lbu	x15,0(x10)
    2934:	08078863          	beqz	x15,29c4 <strcasestr+0x9c>
    2938:	fbf70693          	add	x13,x14,-65
    293c:	01a6b693          	sltiu	x13,x13,26
    2940:	00070e13          	mv	x28,x14
    2944:	00068463          	beqz	x13,294c <strcasestr+0x24>
    2948:	02070e13          	add	x28,x14,32
    294c:	01900893          	li	x17,25
    2950:	0140006f          	j	2964 <strcasestr+0x3c>
    2954:	02ee0263          	beq	x28,x14,2978 <strcasestr+0x50>
    2958:	00150513          	add	x10,x10,1
    295c:	00054783          	lbu	x15,0(x10)
    2960:	04078e63          	beqz	x15,29bc <strcasestr+0x94>
    2964:	00078713          	mv	x14,x15
    2968:	fbf78693          	add	x13,x15,-65
    296c:	fed8e4e3          	bltu	x17,x13,2954 <strcasestr+0x2c>
    2970:	02078713          	add	x14,x15,32
    2974:	fe1ff06f          	j	2954 <strcasestr+0x2c>
    2978:	00058693          	mv	x13,x11
    297c:	00050613          	mv	x12,x10
    2980:	0080006f          	j	2988 <strcasestr+0x60>
    2984:	fce81ae3          	bne	x16,x14,2958 <strcasestr+0x30>
    2988:	0006c783          	lbu	x15,0(x13)
    298c:	02078e63          	beqz	x15,29c8 <strcasestr+0xa0>
    2990:	00160613          	add	x12,x12,1
    2994:	fff64703          	lbu	x14,-1(x12)
    2998:	fbf70813          	add	x16,x14,-65
    299c:	0108e463          	bltu	x17,x16,29a4 <strcasestr+0x7c>
    29a0:	02070713          	add	x14,x14,32
    29a4:	00168693          	add	x13,x13,1
    29a8:	00078813          	mv	x16,x15
    29ac:	fbf78313          	add	x6,x15,-65
    29b0:	fc68eae3          	bltu	x17,x6,2984 <strcasestr+0x5c>
    29b4:	02078813          	add	x16,x15,32
    29b8:	fcdff06f          	j	2984 <strcasestr+0x5c>
    29bc:	00000513          	li	x10,0
    29c0:	00008067          	ret
    29c4:	00000513          	li	x10,0
    29c8:	00008067          	ret

000029cc <strcat>:
    29cc:	00054783          	lbu	x15,0(x10)
    29d0:	02078663          	beqz	x15,29fc <strcat+0x30>
    29d4:	00050793          	mv	x15,x10
    29d8:	00178793          	add	x15,x15,1
    29dc:	0007c703          	lbu	x14,0(x15)
    29e0:	fe071ce3          	bnez	x14,29d8 <strcat+0xc>
    29e4:	00158593          	add	x11,x11,1
    29e8:	00178793          	add	x15,x15,1
    29ec:	fff5c703          	lbu	x14,-1(x11)
    29f0:	fee78fa3          	sb	x14,-1(x15)
    29f4:	fe0718e3          	bnez	x14,29e4 <strcat+0x18>
    29f8:	00008067          	ret
    29fc:	00050793          	mv	x15,x10
    2a00:	fe5ff06f          	j	29e4 <strcat+0x18>

00002a04 <strncat>:
    2a04:	00054783          	lbu	x15,0(x10)
    2a08:	06078063          	beqz	x15,2a68 <strncat+0x64>
    2a0c:	00000713          	li	x14,0
    2a10:	00170713          	add	x14,x14,1
    2a14:	00e507b3          	add	x15,x10,x14
    2a18:	0007c783          	lbu	x15,0(x15)
    2a1c:	fe079ae3          	bnez	x15,2a10 <strncat+0xc>
    2a20:	0005c803          	lbu	x16,0(x11)
    2a24:	04080663          	beqz	x16,2a70 <strncat+0x6c>
    2a28:	04060863          	beqz	x12,2a78 <strncat+0x74>
    2a2c:	00060893          	mv	x17,x12
    2a30:	00000793          	li	x15,0
    2a34:	00e786b3          	add	x13,x15,x14
    2a38:	00d506b3          	add	x13,x10,x13
    2a3c:	01068023          	sb	x16,0(x13)
    2a40:	00178793          	add	x15,x15,1
    2a44:	00f586b3          	add	x13,x11,x15
    2a48:	0006c803          	lbu	x16,0(x13)
    2a4c:	00080663          	beqz	x16,2a58 <strncat+0x54>
    2a50:	ff1792e3          	bne	x15,x17,2a34 <strncat+0x30>
    2a54:	00060793          	mv	x15,x12
    2a58:	00f507b3          	add	x15,x10,x15
    2a5c:	00e787b3          	add	x15,x15,x14
    2a60:	00078023          	sb	x0,0(x15)
    2a64:	00008067          	ret
    2a68:	00000713          	li	x14,0
    2a6c:	fb5ff06f          	j	2a20 <strncat+0x1c>
    2a70:	00000793          	li	x15,0
    2a74:	fe5ff06f          	j	2a58 <strncat+0x54>
    2a78:	00000793          	li	x15,0
    2a7c:	fddff06f          	j	2a58 <strncat+0x54>

00002a80 <strcpy>:
    2a80:	00050793          	mv	x15,x10
    2a84:	00158593          	add	x11,x11,1
    2a88:	00178793          	add	x15,x15,1
    2a8c:	fff5c703          	lbu	x14,-1(x11)
    2a90:	fee78fa3          	sb	x14,-1(x15)
    2a94:	fe0718e3          	bnez	x14,2a84 <strcpy+0x4>
    2a98:	00008067          	ret

00002a9c <strncpy>:
    2a9c:	00c50633          	add	x12,x10,x12
    2aa0:	00050793          	mv	x15,x10
    2aa4:	00c78c63          	beq	x15,x12,2abc <strncpy+0x20>
    2aa8:	00158593          	add	x11,x11,1
    2aac:	00178793          	add	x15,x15,1
    2ab0:	fff5c703          	lbu	x14,-1(x11)
    2ab4:	fee78fa3          	sb	x14,-1(x15)
    2ab8:	fe0716e3          	bnez	x14,2aa4 <strncpy+0x8>
    2abc:	00008067          	ret

00002ac0 <strchr>:
    2ac0:	00054783          	lbu	x15,0(x10)
    2ac4:	00078e63          	beqz	x15,2ae0 <strchr+0x20>
    2ac8:	00b78e63          	beq	x15,x11,2ae4 <strchr+0x24>
    2acc:	00150513          	add	x10,x10,1
    2ad0:	00054783          	lbu	x15,0(x10)
    2ad4:	fe079ae3          	bnez	x15,2ac8 <strchr+0x8>
    2ad8:	00000513          	li	x10,0
    2adc:	00008067          	ret
    2ae0:	00000513          	li	x10,0
    2ae4:	00008067          	ret

00002ae8 <strrchr>:
    2ae8:	00050793          	mv	x15,x10
    2aec:	00000513          	li	x10,0
    2af0:	00c0006f          	j	2afc <strrchr+0x14>
    2af4:	00178793          	add	x15,x15,1
    2af8:	00070a63          	beqz	x14,2b0c <strrchr+0x24>
    2afc:	0007c703          	lbu	x14,0(x15)
    2b00:	feb71ae3          	bne	x14,x11,2af4 <strrchr+0xc>
    2b04:	00078513          	mv	x10,x15
    2b08:	fedff06f          	j	2af4 <strrchr+0xc>
    2b0c:	00008067          	ret

00002b10 <strlen>:
    2b10:	00050713          	mv	x14,x10
    2b14:	00054783          	lbu	x15,0(x10)
    2b18:	00078e63          	beqz	x15,2b34 <strlen+0x24>
    2b1c:	00000513          	li	x10,0
    2b20:	00150513          	add	x10,x10,1
    2b24:	00a707b3          	add	x15,x14,x10
    2b28:	0007c783          	lbu	x15,0(x15)
    2b2c:	fe079ae3          	bnez	x15,2b20 <strlen+0x10>
    2b30:	00008067          	ret
    2b34:	00000513          	li	x10,0
    2b38:	00008067          	ret

00002b3c <isspace>:
    2b3c:	ff750713          	add	x14,x10,-9
    2b40:	00400793          	li	x15,4
    2b44:	00e7f863          	bgeu	x15,x14,2b54 <isspace+0x18>
    2b48:	fe050513          	add	x10,x10,-32
    2b4c:	00153513          	seqz	x10,x10
    2b50:	00008067          	ret
    2b54:	00100513          	li	x10,1
    2b58:	00008067          	ret

00002b5c <trimwhitespace>:
    2b5c:	ff010113          	add	x2,x2,-16
    2b60:	00112623          	sw	x1,12(x2)
    2b64:	00812423          	sw	x8,8(x2)
    2b68:	00912223          	sw	x9,4(x2)
    2b6c:	00050413          	mv	x8,x10
    2b70:	0080006f          	j	2b78 <trimwhitespace+0x1c>
    2b74:	00140413          	add	x8,x8,1
    2b78:	00044483          	lbu	x9,0(x8)
    2b7c:	00048513          	mv	x10,x9
    2b80:	fbdff0ef          	jal	2b3c <isspace>
    2b84:	fe0518e3          	bnez	x10,2b74 <trimwhitespace+0x18>
    2b88:	00049e63          	bnez	x9,2ba4 <trimwhitespace+0x48>
    2b8c:	00040513          	mv	x10,x8
    2b90:	00c12083          	lw	x1,12(x2)
    2b94:	00812403          	lw	x8,8(x2)
    2b98:	00412483          	lw	x9,4(x2)
    2b9c:	01010113          	add	x2,x2,16
    2ba0:	00008067          	ret
    2ba4:	00040513          	mv	x10,x8
    2ba8:	f69ff0ef          	jal	2b10 <strlen>
    2bac:	fff50493          	add	x9,x10,-1
    2bb0:	009404b3          	add	x9,x8,x9
    2bb4:	00947c63          	bgeu	x8,x9,2bcc <trimwhitespace+0x70>
    2bb8:	0004c503          	lbu	x10,0(x9)
    2bbc:	f81ff0ef          	jal	2b3c <isspace>
    2bc0:	00050663          	beqz	x10,2bcc <trimwhitespace+0x70>
    2bc4:	fff48493          	add	x9,x9,-1
    2bc8:	fe9418e3          	bne	x8,x9,2bb8 <trimwhitespace+0x5c>
    2bcc:	000480a3          	sb	x0,1(x9)
    2bd0:	fbdff06f          	j	2b8c <trimwhitespace+0x30>

00002bd4 <atoi>:
    2bd4:	00050613          	mv	x12,x10
    2bd8:	00054703          	lbu	x14,0(x10)
    2bdc:	02000793          	li	x15,32
    2be0:	0cf71463          	bne	x14,x15,2ca8 <atoi+0xd4>
    2be4:	00000793          	li	x15,0
    2be8:	02000693          	li	x13,32
    2bec:	00178793          	add	x15,x15,1
    2bf0:	00f60733          	add	x14,x12,x15
    2bf4:	00074703          	lbu	x14,0(x14)
    2bf8:	fed70ae3          	beq	x14,x13,2bec <atoi+0x18>
    2bfc:	02d00693          	li	x13,45
    2c00:	0cd70a63          	beq	x14,x13,2cd4 <atoi+0x100>
    2c04:	02b00693          	li	x13,43
    2c08:	0ed70c63          	beq	x14,x13,2d00 <atoi+0x12c>
    2c0c:	00f60733          	add	x14,x12,x15
    2c10:	00074703          	lbu	x14,0(x14)
    2c14:	fd070693          	add	x13,x14,-48
    2c18:	0ff6f693          	zext.b	x13,x13
    2c1c:	00900593          	li	x11,9
    2c20:	00100313          	li	x6,1
    2c24:	0ad5e463          	bltu	x11,x13,2ccc <atoi+0xf8>
    2c28:	00000513          	li	x10,0
    2c2c:	00900893          	li	x17,9
    2c30:	0cccd5b7          	lui	x11,0xcccd
    2c34:	ccc58593          	add	x11,x11,-820 # ccccccc <STACK_TOP+0xcbccccc>
    2c38:	00251693          	sll	x13,x10,0x2
    2c3c:	00a686b3          	add	x13,x13,x10
    2c40:	00169693          	sll	x13,x13,0x1
    2c44:	00078813          	mv	x16,x15
    2c48:	00178793          	add	x15,x15,1
    2c4c:	fd070713          	add	x14,x14,-48
    2c50:	00d70533          	add	x10,x14,x13
    2c54:	00f60733          	add	x14,x12,x15
    2c58:	00074703          	lbu	x14,0(x14)
    2c5c:	fd070693          	add	x13,x14,-48
    2c60:	0ff6f693          	zext.b	x13,x13
    2c64:	02d8ec63          	bltu	x17,x13,2c9c <atoi+0xc8>
    2c68:	04a5c463          	blt	x11,x10,2cb0 <atoi+0xdc>
    2c6c:	fcb516e3          	bne	x10,x11,2c38 <atoi+0x64>
    2c70:	03700793          	li	x15,55
    2c74:	02e7ee63          	bltu	x15,x14,2cb0 <atoi+0xdc>
    2c78:	80000537          	lui	x10,0x80000
    2c7c:	fc850513          	add	x10,x10,-56 # 7fffffc8 <STACK_TOP+0x7fefffc8>
    2c80:	00a70533          	add	x10,x14,x10
    2c84:	01060833          	add	x16,x12,x16
    2c88:	00284783          	lbu	x15,2(x16)
    2c8c:	fd078793          	add	x15,x15,-48
    2c90:	0ff7f793          	zext.b	x15,x15
    2c94:	00900713          	li	x14,9
    2c98:	00f77c63          	bgeu	x14,x15,2cb0 <atoi+0xdc>
    2c9c:	fff00793          	li	x15,-1
    2ca0:	04f30c63          	beq	x6,x15,2cf8 <atoi+0x124>
    2ca4:	00008067          	ret
    2ca8:	00000793          	li	x15,0
    2cac:	f51ff06f          	j	2bfc <atoi+0x28>
    2cb0:	00100793          	li	x15,1
    2cb4:	00f31863          	bne	x6,x15,2cc4 <atoi+0xf0>
    2cb8:	80000537          	lui	x10,0x80000
    2cbc:	fff50513          	add	x10,x10,-1 # 7fffffff <STACK_TOP+0x7fefffff>
    2cc0:	00008067          	ret
    2cc4:	80000537          	lui	x10,0x80000
    2cc8:	00008067          	ret
    2ccc:	00000513          	li	x10,0
    2cd0:	00008067          	ret
    2cd4:	00178793          	add	x15,x15,1
    2cd8:	00f60733          	add	x14,x12,x15
    2cdc:	00074703          	lbu	x14,0(x14)
    2ce0:	fd070693          	add	x13,x14,-48
    2ce4:	0ff6f693          	zext.b	x13,x13
    2ce8:	00900593          	li	x11,9
    2cec:	fff00313          	li	x6,-1
    2cf0:	00000513          	li	x10,0
    2cf4:	f2d5fae3          	bgeu	x11,x13,2c28 <atoi+0x54>
    2cf8:	40a00533          	neg	x10,x10
    2cfc:	00008067          	ret
    2d00:	00178793          	add	x15,x15,1
    2d04:	00f60733          	add	x14,x12,x15
    2d08:	00074703          	lbu	x14,0(x14)
    2d0c:	fd070693          	add	x13,x14,-48
    2d10:	0ff6f693          	zext.b	x13,x13
    2d14:	00900593          	li	x11,9
    2d18:	00100313          	li	x6,1
    2d1c:	f0d5f6e3          	bgeu	x11,x13,2c28 <atoi+0x54>
    2d20:	00000513          	li	x10,0
    2d24:	00008067          	ret

00002d28 <reg_wr_cheats_enabled>:
    2d28:	020007b7          	lui	x15,0x2000
    2d2c:	06a7a823          	sw	x10,112(x15) # 2000070 <STACK_TOP+0x1f00070>
    2d30:	00008067          	ret

00002d34 <reg_rd_cheats_enabled>:
    2d34:	020007b7          	lui	x15,0x2000
    2d38:	0707a503          	lw	x10,112(x15) # 2000070 <STACK_TOP+0x1f00070>
    2d3c:	00a03533          	snez	x10,x10
    2d40:	00008067          	ret

00002d44 <reg_wr_cheats_loaded>:
    2d44:	020007b7          	lui	x15,0x2000
    2d48:	08a7a023          	sw	x10,128(x15) # 2000080 <STACK_TOP+0x1f00080>
    2d4c:	00008067          	ret

00002d50 <reg_rd_cheats_loaded>:
    2d50:	020007b7          	lui	x15,0x2000
    2d54:	0807a503          	lw	x10,128(x15) # 2000080 <STACK_TOP+0x1f00080>
    2d58:	00a03533          	snez	x10,x10
    2d5c:	00008067          	ret

00002d60 <reg_wr_cheats_memory>:
    2d60:	ff010113          	add	x2,x2,-16
    2d64:	00112623          	sw	x1,12(x2)
    2d68:	00058613          	mv	x12,x11
    2d6c:	020007b7          	lui	x15,0x2000
    2d70:	0a078793          	add	x15,x15,160 # 20000a0 <STACK_TOP+0x1f000a0>
    2d74:	0007a783          	lw	x15,0(x15)
    2d78:	00050593          	mv	x11,x10
    2d7c:	00078513          	mv	x10,x15
    2d80:	a01ff0ef          	jal	2780 <memcpy>
    2d84:	00c12083          	lw	x1,12(x2)
    2d88:	01010113          	add	x2,x2,16
    2d8c:	00008067          	ret

00002d90 <reg_rd_cheats_memory>:
    2d90:	ff010113          	add	x2,x2,-16
    2d94:	00112623          	sw	x1,12(x2)
    2d98:	00058613          	mv	x12,x11
    2d9c:	020007b7          	lui	x15,0x2000
    2da0:	0a07a583          	lw	x11,160(x15) # 20000a0 <STACK_TOP+0x1f000a0>
    2da4:	9ddff0ef          	jal	2780 <memcpy>
    2da8:	00c12083          	lw	x1,12(x2)
    2dac:	01010113          	add	x2,x2,16
    2db0:	00008067          	ret

00002db4 <spi_send>:
    2db4:	020007b7          	lui	x15,0x2000
    2db8:	02a7a023          	sw	x10,32(x15) # 2000020 <STACK_TOP+0x1f00020>
    2dbc:	0207a503          	lw	x10,32(x15)
    2dc0:	0ff57513          	zext.b	x10,x10
    2dc4:	00008067          	ret

00002dc8 <spi_send_word>:
    2dc8:	020007b7          	lui	x15,0x2000
    2dcc:	02a7a223          	sw	x10,36(x15) # 2000024 <STACK_TOP+0x1f00024>
    2dd0:	0247a503          	lw	x10,36(x15)
    2dd4:	00008067          	ret

00002dd8 <spi_receive>:
    2dd8:	020007b7          	lui	x15,0x2000
    2ddc:	0ff00713          	li	x14,255
    2de0:	02e7a023          	sw	x14,32(x15) # 2000020 <STACK_TOP+0x1f00020>
    2de4:	0207a503          	lw	x10,32(x15)
    2de8:	0ff57513          	zext.b	x10,x10
    2dec:	00008067          	ret

00002df0 <spi_receive_word>:
    2df0:	020007b7          	lui	x15,0x2000
    2df4:	fff00713          	li	x14,-1
    2df8:	02e7a223          	sw	x14,36(x15) # 2000024 <STACK_TOP+0x1f00024>
    2dfc:	0247a503          	lw	x10,36(x15)
    2e00:	00008067          	ret

00002e04 <spi_sendrecv>:
    2e04:	ff010113          	add	x2,x2,-16
    2e08:	00112623          	sw	x1,12(x2)
    2e0c:	020007b7          	lui	x15,0x2000
    2e10:	02a7a023          	sw	x10,32(x15) # 2000020 <STACK_TOP+0x1f00020>
    2e14:	02078793          	add	x15,x15,32
    2e18:	0007a783          	lw	x15,0(x15)
    2e1c:	fbdff0ef          	jal	2dd8 <spi_receive>
    2e20:	00c12083          	lw	x1,12(x2)
    2e24:	01010113          	add	x2,x2,16
    2e28:	00008067          	ret

00002e2c <spi_readblock>:
    2e2c:	ff010113          	add	x2,x2,-16
    2e30:	00112623          	sw	x1,12(x2)
    2e34:	00812423          	sw	x8,8(x2)
    2e38:	00912223          	sw	x9,4(x2)
    2e3c:	00050413          	mv	x8,x10
    2e40:	00357793          	and	x15,x10,3
    2e44:	04078063          	beqz	x15,2e84 <spi_readblock+0x58>
    2e48:	00000793          	li	x15,0
    2e4c:	40f584b3          	sub	x9,x11,x15
    2e50:	009404b3          	add	x9,x8,x9
    2e54:	00b7da63          	bge	x15,x11,2e68 <spi_readblock+0x3c>
    2e58:	00140413          	add	x8,x8,1
    2e5c:	f7dff0ef          	jal	2dd8 <spi_receive>
    2e60:	fea40fa3          	sb	x10,-1(x8)
    2e64:	fe941ae3          	bne	x8,x9,2e58 <spi_readblock+0x2c>
    2e68:	00c12083          	lw	x1,12(x2)
    2e6c:	00812403          	lw	x8,8(x2)
    2e70:	00412483          	lw	x9,4(x2)
    2e74:	01010113          	add	x2,x2,16
    2e78:	00008067          	ret
    2e7c:	00000793          	li	x15,0
    2e80:	fcdff06f          	j	2e4c <spi_readblock+0x20>
    2e84:	00300793          	li	x15,3
    2e88:	feb7dae3          	bge	x15,x11,2e7c <spi_readblock+0x50>
    2e8c:	ffc58613          	add	x12,x11,-4
    2e90:	00265613          	srl	x12,x12,0x2
    2e94:	00160693          	add	x13,x12,1
    2e98:	00269693          	sll	x13,x13,0x2
    2e9c:	00d506b3          	add	x13,x10,x13
    2ea0:	020007b7          	lui	x15,0x2000
    2ea4:	02478793          	add	x15,x15,36 # 2000024 <STACK_TOP+0x1f00024>
    2ea8:	fff00513          	li	x10,-1
    2eac:	00a7a023          	sw	x10,0(x15)
    2eb0:	0007a703          	lw	x14,0(x15)
    2eb4:	00e42023          	sw	x14,0(x8)
    2eb8:	00440413          	add	x8,x8,4
    2ebc:	fed418e3          	bne	x8,x13,2eac <spi_readblock+0x80>
    2ec0:	00160793          	add	x15,x12,1
    2ec4:	00279793          	sll	x15,x15,0x2
    2ec8:	00068413          	mv	x8,x13
    2ecc:	f81ff06f          	j	2e4c <spi_readblock+0x20>

00002ed0 <spi_writeblock>:
    2ed0:	00357793          	and	x15,x10,3
    2ed4:	00000713          	li	x14,0
    2ed8:	04079463          	bnez	x15,2f20 <spi_writeblock+0x50>
    2edc:	00300793          	li	x15,3
    2ee0:	06b7d663          	bge	x15,x11,2f4c <spi_writeblock+0x7c>
    2ee4:	ffc58613          	add	x12,x11,-4
    2ee8:	00265613          	srl	x12,x12,0x2
    2eec:	00160693          	add	x13,x12,1
    2ef0:	00269693          	sll	x13,x13,0x2
    2ef4:	00d506b3          	add	x13,x10,x13
    2ef8:	020007b7          	lui	x15,0x2000
    2efc:	02478793          	add	x15,x15,36 # 2000024 <STACK_TOP+0x1f00024>
    2f00:	00052703          	lw	x14,0(x10) # 80000000 <STACK_TOP+0x7ff00000>
    2f04:	00e7a023          	sw	x14,0(x15)
    2f08:	0007a703          	lw	x14,0(x15)
    2f0c:	00450513          	add	x10,x10,4
    2f10:	fed518e3          	bne	x10,x13,2f00 <spi_writeblock+0x30>
    2f14:	00160713          	add	x14,x12,1
    2f18:	00271713          	sll	x14,x14,0x2
    2f1c:	00068513          	mv	x10,x13
    2f20:	40e586b3          	sub	x13,x11,x14
    2f24:	00d506b3          	add	x13,x10,x13
    2f28:	020007b7          	lui	x15,0x2000
    2f2c:	02078793          	add	x15,x15,32 # 2000020 <STACK_TOP+0x1f00020>
    2f30:	02b75263          	bge	x14,x11,2f54 <spi_writeblock+0x84>
    2f34:	00150513          	add	x10,x10,1
    2f38:	fff54703          	lbu	x14,-1(x10)
    2f3c:	00e7a023          	sw	x14,0(x15)
    2f40:	0007a703          	lw	x14,0(x15)
    2f44:	fed518e3          	bne	x10,x13,2f34 <spi_writeblock+0x64>
    2f48:	00008067          	ret
    2f4c:	00000713          	li	x14,0
    2f50:	fd1ff06f          	j	2f20 <spi_writeblock+0x50>
    2f54:	00008067          	ret

00002f58 <sd_send_command>:
    2f58:	fe010113          	add	x2,x2,-32
    2f5c:	00112e23          	sw	x1,28(x2)
    2f60:	00812c23          	sw	x8,24(x2)
    2f64:	00912a23          	sw	x9,20(x2)
    2f68:	01212823          	sw	x18,16(x2)
    2f6c:	01312623          	sw	x19,12(x2)
    2f70:	00050993          	mv	x19,x10
    2f74:	000137b7          	lui	x15,0x13
    2f78:	aa07a783          	lw	x15,-1376(x15) # 12aa0 <sdhc_card>
    2f7c:	02079663          	bnez	x15,2fa8 <sd_send_command+0x50>
    2f80:	fef50713          	add	x14,x10,-17
    2f84:	0ff77713          	zext.b	x14,x14
    2f88:	01000793          	li	x15,16
    2f8c:	00e7ee63          	bltu	x15,x14,2fa8 <sd_send_command+0x50>
    2f90:	000187b7          	lui	x15,0x18
    2f94:	08178793          	add	x15,x15,129 # 18081 <_ebss+0x55d1>
    2f98:	00e7d7b3          	srl	x15,x15,x14
    2f9c:	0017f793          	and	x15,x15,1
    2fa0:	00078463          	beqz	x15,2fa8 <sd_send_command+0x50>
    2fa4:	00959593          	sll	x11,x11,0x9
    2fa8:	0409e713          	or	x14,x19,64
    2fac:	020007b7          	lui	x15,0x2000
    2fb0:	02e7a023          	sw	x14,32(x15) # 2000020 <STACK_TOP+0x1f00020>
    2fb4:	0207a703          	lw	x14,32(x15)
    2fb8:	0185d713          	srl	x14,x11,0x18
    2fbc:	02e7a023          	sw	x14,32(x15)
    2fc0:	0207a703          	lw	x14,32(x15)
    2fc4:	0105d713          	srl	x14,x11,0x10
    2fc8:	0ff77713          	zext.b	x14,x14
    2fcc:	02e7a023          	sw	x14,32(x15)
    2fd0:	0207a703          	lw	x14,32(x15)
    2fd4:	0085d713          	srl	x14,x11,0x8
    2fd8:	0ff77713          	zext.b	x14,x14
    2fdc:	02e7a023          	sw	x14,32(x15)
    2fe0:	0207a703          	lw	x14,32(x15)
    2fe4:	0ff5f593          	zext.b	x11,x11
    2fe8:	02b7a023          	sw	x11,32(x15)
    2fec:	02078793          	add	x15,x15,32
    2ff0:	0007a783          	lw	x15,0(x15)
    2ff4:	00800793          	li	x15,8
    2ff8:	09500713          	li	x14,149
    2ffc:	02f98e63          	beq	x19,x15,3038 <sd_send_command+0xe0>
    3000:	020007b7          	lui	x15,0x2000
    3004:	02e7a023          	sw	x14,32(x15) # 2000020 <STACK_TOP+0x1f00020>
    3008:	02078793          	add	x15,x15,32
    300c:	0007a783          	lw	x15,0(x15)
    3010:	1f600493          	li	x9,502
    3014:	0ff00913          	li	x18,255
    3018:	dc1ff0ef          	jal	2dd8 <spi_receive>
    301c:	00050413          	mv	x8,x10
    3020:	03251063          	bne	x10,x18,3040 <sd_send_command+0xe8>
    3024:	fff48493          	add	x9,x9,-1
    3028:	fe0498e3          	bnez	x9,3018 <sd_send_command+0xc0>
    302c:	03a00793          	li	x15,58
    3030:	00f99c63          	bne	x19,x15,3048 <sd_send_command+0xf0>
    3034:	01c0006f          	j	3050 <sd_send_command+0xf8>
    3038:	08700713          	li	x14,135
    303c:	fc5ff06f          	j	3000 <sd_send_command+0xa8>
    3040:	03a00793          	li	x15,58
    3044:	04f98063          	beq	x19,x15,3084 <sd_send_command+0x12c>
    3048:	00800793          	li	x15,8
    304c:	06f98063          	beq	x19,x15,30ac <sd_send_command+0x154>
    3050:	020007b7          	lui	x15,0x2000
    3054:	0ff00713          	li	x14,255
    3058:	02e7a023          	sw	x14,32(x15) # 2000020 <STACK_TOP+0x1f00020>
    305c:	02078793          	add	x15,x15,32
    3060:	0007a783          	lw	x15,0(x15)
    3064:	00040513          	mv	x10,x8
    3068:	01c12083          	lw	x1,28(x2)
    306c:	01812403          	lw	x8,24(x2)
    3070:	01412483          	lw	x9,20(x2)
    3074:	01012903          	lw	x18,16(x2)
    3078:	00c12983          	lw	x19,12(x2)
    307c:	02010113          	add	x2,x2,32
    3080:	00008067          	ret
    3084:	fc0516e3          	bnez	x10,3050 <sd_send_command+0xf8>
    3088:	d51ff0ef          	jal	2dd8 <spi_receive>
    308c:	00655793          	srl	x15,x10,0x6
    3090:	0017f793          	and	x15,x15,1
    3094:	00013737          	lui	x14,0x13
    3098:	aaf72023          	sw	x15,-1376(x14) # 12aa0 <sdhc_card>
    309c:	d3dff0ef          	jal	2dd8 <spi_receive>
    30a0:	d39ff0ef          	jal	2dd8 <spi_receive>
    30a4:	d35ff0ef          	jal	2dd8 <spi_receive>
    30a8:	fa9ff06f          	j	3050 <sd_send_command+0xf8>
    30ac:	00100793          	li	x15,1
    30b0:	faf410e3          	bne	x8,x15,3050 <sd_send_command+0xf8>
    30b4:	d25ff0ef          	jal	2dd8 <spi_receive>
    30b8:	d21ff0ef          	jal	2dd8 <spi_receive>
    30bc:	d1dff0ef          	jal	2dd8 <spi_receive>
    30c0:	d19ff0ef          	jal	2dd8 <spi_receive>
    30c4:	f8dff06f          	j	3050 <sd_send_command+0xf8>

000030c8 <sd_init>:
    30c8:	ff010113          	add	x2,x2,-16
    30cc:	00112623          	sw	x1,12(x2)
    30d0:	00812423          	sw	x8,8(x2)
    30d4:	00912223          	sw	x9,4(x2)
    30d8:	01212023          	sw	x18,0(x2)
    30dc:	00a00793          	li	x15,10
    30e0:	02000737          	lui	x14,0x2000
    30e4:	02070713          	add	x14,x14,32 # 2000020 <STACK_TOP+0x1f00020>
    30e8:	0ff00693          	li	x13,255
    30ec:	00d72023          	sw	x13,0(x14)
    30f0:	00072603          	lw	x12,0(x14)
    30f4:	fff78793          	add	x15,x15,-1
    30f8:	fe079ae3          	bnez	x15,30ec <sd_init+0x24>
    30fc:	00a00413          	li	x8,10
    3100:	00100913          	li	x18,1
    3104:	00000593          	li	x11,0
    3108:	00000513          	li	x10,0
    310c:	e4dff0ef          	jal	2f58 <sd_send_command>
    3110:	00050493          	mv	x9,x10
    3114:	fff40413          	add	x8,x8,-1
    3118:	0c040063          	beqz	x8,31d8 <sd_init+0x110>
    311c:	ff2514e3          	bne	x10,x18,3104 <sd_init+0x3c>
    3120:	020007b7          	lui	x15,0x2000
    3124:	0ff00713          	li	x14,255
    3128:	02e7a023          	sw	x14,32(x15) # 2000020 <STACK_TOP+0x1f00020>
    312c:	0207a683          	lw	x13,32(x15)
    3130:	02e7a023          	sw	x14,32(x15)
    3134:	02078793          	add	x15,x15,32
    3138:	0007a783          	lw	x15,0(x15)
    313c:	000137b7          	lui	x15,0x13
    3140:	00100713          	li	x14,1
    3144:	a8e7ae23          	sw	x14,-1380(x15) # 12a9c <flag>
    3148:	00a00413          	li	x8,10
    314c:	00100913          	li	x18,1
    3150:	1aa00593          	li	x11,426
    3154:	00800513          	li	x10,8
    3158:	e01ff0ef          	jal	2f58 <sd_send_command>
    315c:	fff40413          	add	x8,x8,-1
    3160:	00040663          	beqz	x8,316c <sd_init+0xa4>
    3164:	ff2516e3          	bne	x10,x18,3150 <sd_init+0x88>
    3168:	00200493          	li	x9,2
    316c:	00000413          	li	x8,0
    3170:	08200913          	li	x18,130
    3174:	00000593          	li	x11,0
    3178:	03700513          	li	x10,55
    317c:	dddff0ef          	jal	2f58 <sd_send_command>
    3180:	400005b7          	lui	x11,0x40000
    3184:	02900513          	li	x10,41
    3188:	dd1ff0ef          	jal	2f58 <sd_send_command>
    318c:	00140413          	add	x8,x8,1
    3190:	07240863          	beq	x8,x18,3200 <sd_init+0x138>
    3194:	fe0510e3          	bnez	x10,3174 <sd_init+0xac>
    3198:	00040593          	mv	x11,x8
    319c:	0000f537          	lui	x10,0xf
    31a0:	03450513          	add	x10,x10,52 # f034 <__clzsi2+0x6a8>
    31a4:	bd8ff0ef          	jal	257c <uart_printf>
    31a8:	00200793          	li	x15,2
    31ac:	06f48663          	beq	x9,x15,3218 <sd_init+0x150>
    31b0:	000137b7          	lui	x15,0x13
    31b4:	aa07a023          	sw	x0,-1376(x15) # 12aa0 <sdhc_card>
    31b8:	00048613          	mv	x12,x9
    31bc:	000137b7          	lui	x15,0x13
    31c0:	aa07a583          	lw	x11,-1376(x15) # 12aa0 <sdhc_card>
    31c4:	0000f537          	lui	x10,0xf
    31c8:	05850513          	add	x10,x10,88 # f058 <__clzsi2+0x6cc>
    31cc:	bb0ff0ef          	jal	257c <uart_printf>
    31d0:	00000513          	li	x10,0
    31d4:	0140006f          	j	31e8 <sd_init+0x120>
    31d8:	0000f537          	lui	x10,0xf
    31dc:	ffc50513          	add	x10,x10,-4 # effc <__clzsi2+0x670>
    31e0:	b9cff0ef          	jal	257c <uart_printf>
    31e4:	fff00513          	li	x10,-1
    31e8:	00c12083          	lw	x1,12(x2)
    31ec:	00812403          	lw	x8,8(x2)
    31f0:	00412483          	lw	x9,4(x2)
    31f4:	00012903          	lw	x18,0(x2)
    31f8:	01010113          	add	x2,x2,16
    31fc:	00008067          	ret
    3200:	00050593          	mv	x11,x10
    3204:	0000f537          	lui	x10,0xf
    3208:	01450513          	add	x10,x10,20 # f014 <__clzsi2+0x688>
    320c:	b70ff0ef          	jal	257c <uart_printf>
    3210:	ffe00513          	li	x10,-2
    3214:	fd5ff06f          	j	31e8 <sd_init+0x120>
    3218:	00a00413          	li	x8,10
    321c:	00000593          	li	x11,0
    3220:	03a00513          	li	x10,58
    3224:	d35ff0ef          	jal	2f58 <sd_send_command>
    3228:	fff40413          	add	x8,x8,-1
    322c:	f80406e3          	beqz	x8,31b8 <sd_init+0xf0>
    3230:	fe0516e3          	bnez	x10,321c <sd_init+0x154>
    3234:	f85ff06f          	j	31b8 <sd_init+0xf0>

00003238 <debug_print_buf>:
    3238:	ff010113          	add	x2,x2,-16
    323c:	00112623          	sw	x1,12(x2)
    3240:	00812423          	sw	x8,8(x2)
    3244:	00912223          	sw	x9,4(x2)
    3248:	00050413          	mv	x8,x10
    324c:	00200593          	li	x11,2
    3250:	00054503          	lbu	x10,0(x10)
    3254:	f49fe0ef          	jal	219c <uart_print_hex_digits>
    3258:	0000f4b7          	lui	x9,0xf
    325c:	08c48513          	add	x10,x9,140 # f08c <__clzsi2+0x700>
    3260:	918ff0ef          	jal	2378 <uart_print>
    3264:	00200593          	li	x11,2
    3268:	00144503          	lbu	x10,1(x8)
    326c:	f31fe0ef          	jal	219c <uart_print_hex_digits>
    3270:	0000f537          	lui	x10,0xf
    3274:	08850513          	add	x10,x10,136 # f088 <__clzsi2+0x6fc>
    3278:	900ff0ef          	jal	2378 <uart_print>
    327c:	00200593          	li	x11,2
    3280:	1fe44503          	lbu	x10,510(x8)
    3284:	f19fe0ef          	jal	219c <uart_print_hex_digits>
    3288:	08c48513          	add	x10,x9,140
    328c:	8ecff0ef          	jal	2378 <uart_print>
    3290:	00200593          	li	x11,2
    3294:	1ff44503          	lbu	x10,511(x8)
    3298:	f05fe0ef          	jal	219c <uart_print_hex_digits>
    329c:	0000f537          	lui	x10,0xf
    32a0:	05450513          	add	x10,x10,84 # f054 <__clzsi2+0x6c8>
    32a4:	8d4ff0ef          	jal	2378 <uart_print>
    32a8:	00c12083          	lw	x1,12(x2)
    32ac:	00812403          	lw	x8,8(x2)
    32b0:	00412483          	lw	x9,4(x2)
    32b4:	01010113          	add	x2,x2,16
    32b8:	00008067          	ret

000032bc <sd_readsector>:
    32bc:	08060a63          	beqz	x12,3350 <sd_readsector+0x94>
    32c0:	fe010113          	add	x2,x2,-32
    32c4:	00112e23          	sw	x1,28(x2)
    32c8:	00812c23          	sw	x8,24(x2)
    32cc:	00912a23          	sw	x9,20(x2)
    32d0:	01212823          	sw	x18,16(x2)
    32d4:	01312623          	sw	x19,12(x2)
    32d8:	01412423          	sw	x20,8(x2)
    32dc:	01512223          	sw	x21,4(x2)
    32e0:	00050993          	mv	x19,x10
    32e4:	00058a93          	mv	x21,x11
    32e8:	00a60a33          	add	x20,x12,x10
    32ec:	00000413          	li	x8,0
    32f0:	0fe00913          	li	x18,254
    32f4:	000014b7          	lui	x9,0x1
    32f8:	38848493          	add	x9,x9,904 # 1388 <backup_load+0x164>
    32fc:	00098593          	mv	x11,x19
    3300:	01100513          	li	x10,17
    3304:	c55ff0ef          	jal	2f58 <sd_send_command>
    3308:	04051863          	bnez	x10,3358 <sd_readsector+0x9c>
    330c:	acdff0ef          	jal	2dd8 <spi_receive>
    3310:	01250863          	beq	x10,x18,3320 <sd_readsector+0x64>
    3314:	0484c663          	blt	x9,x8,3360 <sd_readsector+0xa4>
    3318:	00140413          	add	x8,x8,1
    331c:	ff1ff06f          	j	330c <sd_readsector+0x50>
    3320:	00198993          	add	x19,x19,1
    3324:	20000593          	li	x11,512
    3328:	000a8513          	mv	x10,x21
    332c:	b01ff0ef          	jal	2e2c <spi_readblock>
    3330:	200a8a93          	add	x21,x21,512
    3334:	aa5ff0ef          	jal	2dd8 <spi_receive>
    3338:	aa1ff0ef          	jal	2dd8 <spi_receive>
    333c:	0ff00513          	li	x10,255
    3340:	ac5ff0ef          	jal	2e04 <spi_sendrecv>
    3344:	fb3a1ce3          	bne	x20,x19,32fc <sd_readsector+0x40>
    3348:	00100513          	li	x10,1
    334c:	0180006f          	j	3364 <sd_readsector+0xa8>
    3350:	00000513          	li	x10,0
    3354:	00008067          	ret
    3358:	00000513          	li	x10,0
    335c:	0080006f          	j	3364 <sd_readsector+0xa8>
    3360:	00000513          	li	x10,0
    3364:	01c12083          	lw	x1,28(x2)
    3368:	01812403          	lw	x8,24(x2)
    336c:	01412483          	lw	x9,20(x2)
    3370:	01012903          	lw	x18,16(x2)
    3374:	00c12983          	lw	x19,12(x2)
    3378:	00812a03          	lw	x20,8(x2)
    337c:	00412a83          	lw	x21,4(x2)
    3380:	02010113          	add	x2,x2,32
    3384:	00008067          	ret

00003388 <sd_writesector>:
    3388:	fd010113          	add	x2,x2,-48
    338c:	02112623          	sw	x1,44(x2)
    3390:	01512a23          	sw	x21,20(x2)
    3394:	01612823          	sw	x22,16(x2)
    3398:	01712623          	sw	x23,12(x2)
    339c:	00050a93          	mv	x21,x10
    33a0:	00058b13          	mv	x22,x11
    33a4:	00060b93          	mv	x23,x12
    33a8:	00050593          	mv	x11,x10
    33ac:	0000f537          	lui	x10,0xf
    33b0:	09050513          	add	x10,x10,144 # f090 <__clzsi2+0x704>
    33b4:	9c8ff0ef          	jal	257c <uart_printf>
    33b8:	1c0b8e63          	beqz	x23,3594 <sd_writesector+0x20c>
    33bc:	02812423          	sw	x8,40(x2)
    33c0:	02912223          	sw	x9,36(x2)
    33c4:	03212023          	sw	x18,32(x2)
    33c8:	01412c23          	sw	x20,24(x2)
    33cc:	01812423          	sw	x24,8(x2)
    33d0:	01912223          	sw	x25,4(x2)
    33d4:	017a8bb3          	add	x23,x21,x23
    33d8:	00000413          	li	x8,0
    33dc:	02000a37          	lui	x20,0x2000
    33e0:	020a0a13          	add	x20,x20,32 # 2000020 <STACK_TOP+0x1f00020>
    33e4:	0fe00c93          	li	x25,254
    33e8:	0ff00493          	li	x9,255
    33ec:	00500c13          	li	x24,5
    33f0:	00001937          	lui	x18,0x1
    33f4:	38990913          	add	x18,x18,905 # 1389 <backup_load+0x165>
    33f8:	000a8593          	mv	x11,x21
    33fc:	01800513          	li	x10,24
    3400:	b59ff0ef          	jal	2f58 <sd_send_command>
    3404:	06051663          	bnez	x10,3470 <sd_writesector+0xe8>
    3408:	019a2023          	sw	x25,0(x20)
    340c:	000a2783          	lw	x15,0(x20)
    3410:	20000593          	li	x11,512
    3414:	000b0513          	mv	x10,x22
    3418:	ab9ff0ef          	jal	2ed0 <spi_writeblock>
    341c:	200b0b13          	add	x22,x22,512
    3420:	009a2023          	sw	x9,0(x20)
    3424:	000a2783          	lw	x15,0(x20)
    3428:	009a2023          	sw	x9,0(x20)
    342c:	000a2783          	lw	x15,0(x20)
    3430:	00048513          	mv	x10,x9
    3434:	9a5ff0ef          	jal	2dd8 <spi_receive>
    3438:	01f57793          	and	x15,x10,31
    343c:	07878463          	beq	x15,x24,34a4 <sd_writesector+0x11c>
    3440:	00050593          	mv	x11,x10
    3444:	0000f537          	lui	x10,0xf
    3448:	0cc50513          	add	x10,x10,204 # f0cc <__clzsi2+0x740>
    344c:	930ff0ef          	jal	257c <uart_printf>
    3450:	00000513          	li	x10,0
    3454:	02812403          	lw	x8,40(x2)
    3458:	02412483          	lw	x9,36(x2)
    345c:	02012903          	lw	x18,32(x2)
    3460:	01812a03          	lw	x20,24(x2)
    3464:	00812c03          	lw	x24,8(x2)
    3468:	00412c83          	lw	x25,4(x2)
    346c:	0700006f          	j	34dc <sd_writesector+0x154>
    3470:	00050593          	mv	x11,x10
    3474:	0000f537          	lui	x10,0xf
    3478:	0a850513          	add	x10,x10,168 # f0a8 <__clzsi2+0x71c>
    347c:	900ff0ef          	jal	257c <uart_printf>
    3480:	00000513          	li	x10,0
    3484:	02812403          	lw	x8,40(x2)
    3488:	02412483          	lw	x9,36(x2)
    348c:	02012903          	lw	x18,32(x2)
    3490:	01812a03          	lw	x20,24(x2)
    3494:	00812c03          	lw	x24,8(x2)
    3498:	00412c83          	lw	x25,4(x2)
    349c:	0400006f          	j	34dc <sd_writesector+0x154>
    34a0:	00140413          	add	x8,x8,1
    34a4:	00048513          	mv	x10,x9
    34a8:	95dff0ef          	jal	2e04 <spi_sendrecv>
    34ac:	04051463          	bnez	x10,34f4 <sd_writesector+0x16c>
    34b0:	ff2418e3          	bne	x8,x18,34a0 <sd_writesector+0x118>
    34b4:	0000f537          	lui	x10,0xf
    34b8:	0f050513          	add	x10,x10,240 # f0f0 <__clzsi2+0x764>
    34bc:	8c0ff0ef          	jal	257c <uart_printf>
    34c0:	00000513          	li	x10,0
    34c4:	02812403          	lw	x8,40(x2)
    34c8:	02412483          	lw	x9,36(x2)
    34cc:	02012903          	lw	x18,32(x2)
    34d0:	01812a03          	lw	x20,24(x2)
    34d4:	00812c03          	lw	x24,8(x2)
    34d8:	00412c83          	lw	x25,4(x2)
    34dc:	02c12083          	lw	x1,44(x2)
    34e0:	01412a83          	lw	x21,20(x2)
    34e4:	01012b03          	lw	x22,16(x2)
    34e8:	00c12b83          	lw	x23,12(x2)
    34ec:	03010113          	add	x2,x2,48
    34f0:	00008067          	ret
    34f4:	01312e23          	sw	x19,28(x2)
    34f8:	020007b7          	lui	x15,0x2000
    34fc:	0ff00713          	li	x14,255
    3500:	02e7a023          	sw	x14,32(x15) # 2000020 <STACK_TOP+0x1f00020>
    3504:	02078793          	add	x15,x15,32
    3508:	0007a783          	lw	x15,0(x15)
    350c:	00000413          	li	x8,0
    3510:	000019b7          	lui	x19,0x1
    3514:	38998993          	add	x19,x19,905 # 1389 <backup_load+0x165>
    3518:	00048513          	mv	x10,x9
    351c:	8e9ff0ef          	jal	2e04 <spi_sendrecv>
    3520:	04051063          	bnez	x10,3560 <sd_writesector+0x1d8>
    3524:	01340663          	beq	x8,x19,3530 <sd_writesector+0x1a8>
    3528:	00140413          	add	x8,x8,1
    352c:	fedff06f          	j	3518 <sd_writesector+0x190>
    3530:	0000f537          	lui	x10,0xf
    3534:	0f050513          	add	x10,x10,240 # f0f0 <__clzsi2+0x764>
    3538:	844ff0ef          	jal	257c <uart_printf>
    353c:	00000513          	li	x10,0
    3540:	02812403          	lw	x8,40(x2)
    3544:	02412483          	lw	x9,36(x2)
    3548:	02012903          	lw	x18,32(x2)
    354c:	01c12983          	lw	x19,28(x2)
    3550:	01812a03          	lw	x20,24(x2)
    3554:	00812c03          	lw	x24,8(x2)
    3558:	00412c83          	lw	x25,4(x2)
    355c:	f81ff06f          	j	34dc <sd_writesector+0x154>
    3560:	001a8a93          	add	x21,x21,1
    3564:	017a8663          	beq	x21,x23,3570 <sd_writesector+0x1e8>
    3568:	01c12983          	lw	x19,28(x2)
    356c:	e8dff06f          	j	33f8 <sd_writesector+0x70>
    3570:	00100513          	li	x10,1
    3574:	02812403          	lw	x8,40(x2)
    3578:	02412483          	lw	x9,36(x2)
    357c:	02012903          	lw	x18,32(x2)
    3580:	01c12983          	lw	x19,28(x2)
    3584:	01812a03          	lw	x20,24(x2)
    3588:	00812c03          	lw	x24,8(x2)
    358c:	00412c83          	lw	x25,4(x2)
    3590:	f4dff06f          	j	34dc <sd_writesector+0x154>
    3594:	00100513          	li	x10,1
    3598:	f45ff06f          	j	34dc <sd_writesector+0x154>

0000359c <disk_status>:
    359c:	00051a63          	bnez	x10,35b0 <disk_status+0x14>
    35a0:	000137b7          	lui	x15,0x13
    35a4:	aa47a503          	lw	x10,-1372(x15) # 12aa4 <sd_initialized>
    35a8:	00153513          	seqz	x10,x10
    35ac:	00008067          	ret
    35b0:	00100513          	li	x10,1
    35b4:	00008067          	ret

000035b8 <disk_initialize>:
    35b8:	00050663          	beqz	x10,35c4 <disk_initialize+0xc>
    35bc:	00100513          	li	x10,1
    35c0:	00008067          	ret
    35c4:	ff010113          	add	x2,x2,-16
    35c8:	00112623          	sw	x1,12(x2)
    35cc:	00812423          	sw	x8,8(x2)
    35d0:	00050413          	mv	x8,x10
    35d4:	af5ff0ef          	jal	30c8 <sd_init>
    35d8:	02051263          	bnez	x10,35fc <disk_initialize+0x44>
    35dc:	000137b7          	lui	x15,0x13
    35e0:	00100713          	li	x14,1
    35e4:	aae7a223          	sw	x14,-1372(x15) # 12aa4 <sd_initialized>
    35e8:	00040513          	mv	x10,x8
    35ec:	00c12083          	lw	x1,12(x2)
    35f0:	00812403          	lw	x8,8(x2)
    35f4:	01010113          	add	x2,x2,16
    35f8:	00008067          	ret
    35fc:	0000f537          	lui	x10,0xf
    3600:	10c50513          	add	x10,x10,268 # f10c <__clzsi2+0x780>
    3604:	ad1fe0ef          	jal	20d4 <print>
    3608:	000137b7          	lui	x15,0x13
    360c:	aa07a223          	sw	x0,-1372(x15) # 12aa4 <sd_initialized>
    3610:	00100513          	li	x10,1
    3614:	fd9ff06f          	j	35ec <disk_initialize+0x34>

00003618 <disk_read>:
    3618:	02051e63          	bnez	x10,3654 <disk_read+0x3c>
    361c:	00060793          	mv	x15,x12
    3620:	00013737          	lui	x14,0x13
    3624:	aa472703          	lw	x14,-1372(x14) # 12aa4 <sd_initialized>
    3628:	00300513          	li	x10,3
    362c:	02070863          	beqz	x14,365c <disk_read+0x44>
    3630:	ff010113          	add	x2,x2,-16
    3634:	00112623          	sw	x1,12(x2)
    3638:	00068613          	mv	x12,x13
    363c:	00078513          	mv	x10,x15
    3640:	c7dff0ef          	jal	32bc <sd_readsector>
    3644:	00153513          	seqz	x10,x10
    3648:	00c12083          	lw	x1,12(x2)
    364c:	01010113          	add	x2,x2,16
    3650:	00008067          	ret
    3654:	00400513          	li	x10,4
    3658:	00008067          	ret
    365c:	00008067          	ret

00003660 <disk_write>:
    3660:	02051e63          	bnez	x10,369c <disk_write+0x3c>
    3664:	00060793          	mv	x15,x12
    3668:	00013737          	lui	x14,0x13
    366c:	aa472703          	lw	x14,-1372(x14) # 12aa4 <sd_initialized>
    3670:	00300513          	li	x10,3
    3674:	02070863          	beqz	x14,36a4 <disk_write+0x44>
    3678:	ff010113          	add	x2,x2,-16
    367c:	00112623          	sw	x1,12(x2)
    3680:	00068613          	mv	x12,x13
    3684:	00078513          	mv	x10,x15
    3688:	d01ff0ef          	jal	3388 <sd_writesector>
    368c:	00153513          	seqz	x10,x10
    3690:	00c12083          	lw	x1,12(x2)
    3694:	01010113          	add	x2,x2,16
    3698:	00008067          	ret
    369c:	00400513          	li	x10,4
    36a0:	00008067          	ret
    36a4:	00008067          	ret

000036a8 <disk_ioctl>:
    36a8:	00051c63          	bnez	x10,36c0 <disk_ioctl+0x18>
    36ac:	00200793          	li	x15,2
    36b0:	00f58c63          	beq	x11,x15,36c8 <disk_ioctl+0x20>
    36b4:	ffd58593          	add	x11,x11,-3 # 3ffffffd <STACK_TOP+0x3feffffd>
    36b8:	0015b513          	seqz	x10,x11
    36bc:	00008067          	ret
    36c0:	00400513          	li	x10,4
    36c4:	00008067          	ret
    36c8:	20000513          	li	x10,512
    36cc:	00008067          	ret

000036d0 <ld_dword>:
    36d0:	00354783          	lbu	x15,3(x10)
    36d4:	00879793          	sll	x15,x15,0x8
    36d8:	00254703          	lbu	x14,2(x10)
    36dc:	00f76733          	or	x14,x14,x15
    36e0:	00871713          	sll	x14,x14,0x8
    36e4:	00154783          	lbu	x15,1(x10)
    36e8:	00e7e7b3          	or	x15,x15,x14
    36ec:	00879793          	sll	x15,x15,0x8
    36f0:	00054503          	lbu	x10,0(x10)
    36f4:	00f56533          	or	x10,x10,x15
    36f8:	00008067          	ret

000036fc <ld_qword>:
    36fc:	00754783          	lbu	x15,7(x10)
    3700:	00879793          	sll	x15,x15,0x8
    3704:	00654703          	lbu	x14,6(x10)
    3708:	00f76733          	or	x14,x14,x15
    370c:	00871713          	sll	x14,x14,0x8
    3710:	00554783          	lbu	x15,5(x10)
    3714:	00e7e7b3          	or	x15,x15,x14
    3718:	00879793          	sll	x15,x15,0x8
    371c:	00454683          	lbu	x13,4(x10)
    3720:	00f6e6b3          	or	x13,x13,x15
    3724:	0187d793          	srl	x15,x15,0x18
    3728:	00869693          	sll	x13,x13,0x8
    372c:	00354703          	lbu	x14,3(x10)
    3730:	00d76733          	or	x14,x14,x13
    3734:	0186d693          	srl	x13,x13,0x18
    3738:	00879793          	sll	x15,x15,0x8
    373c:	00f6e7b3          	or	x15,x13,x15
    3740:	00871713          	sll	x14,x14,0x8
    3744:	00254583          	lbu	x11,2(x10)
    3748:	00e5e5b3          	or	x11,x11,x14
    374c:	01875713          	srl	x14,x14,0x18
    3750:	00879793          	sll	x15,x15,0x8
    3754:	00f767b3          	or	x15,x14,x15
    3758:	00859593          	sll	x11,x11,0x8
    375c:	00154703          	lbu	x14,1(x10)
    3760:	00b76733          	or	x14,x14,x11
    3764:	0185d593          	srl	x11,x11,0x18
    3768:	00879793          	sll	x15,x15,0x8
    376c:	00871713          	sll	x14,x14,0x8
    3770:	00054503          	lbu	x10,0(x10)
    3774:	00e56533          	or	x10,x10,x14
    3778:	00f5e5b3          	or	x11,x11,x15
    377c:	00008067          	ret

00003780 <st_qword>:
    3780:	00b50023          	sb	x11,0(x10)
    3784:	0085d793          	srl	x15,x11,0x8
    3788:	00f500a3          	sb	x15,1(x10)
    378c:	0105d793          	srl	x15,x11,0x10
    3790:	00f50123          	sb	x15,2(x10)
    3794:	0185d593          	srl	x11,x11,0x18
    3798:	00b501a3          	sb	x11,3(x10)
    379c:	00c50223          	sb	x12,4(x10)
    37a0:	00865793          	srl	x15,x12,0x8
    37a4:	00f502a3          	sb	x15,5(x10)
    37a8:	01065793          	srl	x15,x12,0x10
    37ac:	00f50323          	sb	x15,6(x10)
    37b0:	01865613          	srl	x12,x12,0x18
    37b4:	00c503a3          	sb	x12,7(x10)
    37b8:	00008067          	ret

000037bc <clst2sect>:
    37bc:	ffe58593          	add	x11,x11,-2
    37c0:	01c52783          	lw	x15,28(x10)
    37c4:	ffe78793          	add	x15,x15,-2
    37c8:	02f5fa63          	bgeu	x11,x15,37fc <clst2sect+0x40>
    37cc:	ff010113          	add	x2,x2,-16
    37d0:	00112623          	sw	x1,12(x2)
    37d4:	00812423          	sw	x8,8(x2)
    37d8:	00050413          	mv	x8,x10
    37dc:	00a55503          	lhu	x10,10(x10)
    37e0:	5a1070ef          	jal	b580 <__mulsi3>
    37e4:	03042783          	lw	x15,48(x8)
    37e8:	00f50533          	add	x10,x10,x15
    37ec:	00c12083          	lw	x1,12(x2)
    37f0:	00812403          	lw	x8,8(x2)
    37f4:	01010113          	add	x2,x2,16
    37f8:	00008067          	ret
    37fc:	00000513          	li	x10,0
    3800:	00008067          	ret

00003804 <sum_sfn>:
    3804:	00050713          	mv	x14,x10
    3808:	00b50613          	add	x12,x10,11
    380c:	00000513          	li	x10,0
    3810:	00155793          	srl	x15,x10,0x1
    3814:	00751513          	sll	x10,x10,0x7
    3818:	00a7e7b3          	or	x15,x15,x10
    381c:	00170713          	add	x14,x14,1
    3820:	fff74683          	lbu	x13,-1(x14)
    3824:	00d787b3          	add	x15,x15,x13
    3828:	0ff7f513          	zext.b	x10,x15
    382c:	fec712e3          	bne	x14,x12,3810 <sum_sfn+0xc>
    3830:	00008067          	ret

00003834 <xdir_sum>:
    3834:	00050593          	mv	x11,x10
    3838:	00154603          	lbu	x12,1(x10)
    383c:	00160613          	add	x12,x12,1
    3840:	00561613          	sll	x12,x12,0x5
    3844:	00000513          	li	x10,0
    3848:	00000793          	li	x15,0
    384c:	00200813          	li	x16,2
    3850:	0080006f          	j	3858 <xdir_sum+0x24>
    3854:	00400793          	li	x15,4
    3858:	ff078ee3          	beq	x15,x16,3854 <xdir_sum+0x20>
    385c:	00155713          	srl	x14,x10,0x1
    3860:	00f51513          	sll	x10,x10,0xf
    3864:	00a76733          	or	x14,x14,x10
    3868:	00f586b3          	add	x13,x11,x15
    386c:	0006c683          	lbu	x13,0(x13)
    3870:	00d70733          	add	x14,x14,x13
    3874:	01071513          	sll	x10,x14,0x10
    3878:	01055513          	srl	x10,x10,0x10
    387c:	00178793          	add	x15,x15,1
    3880:	fcc7ece3          	bltu	x15,x12,3858 <xdir_sum+0x24>
    3884:	00008067          	ret

00003888 <init_alloc_info>:
    3888:	ff010113          	add	x2,x2,-16
    388c:	00112623          	sw	x1,12(x2)
    3890:	00812423          	sw	x8,8(x2)
    3894:	00912223          	sw	x9,4(x2)
    3898:	00050493          	mv	x9,x10
    389c:	00058413          	mv	x8,x11
    38a0:	01052503          	lw	x10,16(x10)
    38a4:	03450513          	add	x10,x10,52
    38a8:	e29ff0ef          	jal	36d0 <ld_dword>
    38ac:	00a42423          	sw	x10,8(x8)
    38b0:	0104a503          	lw	x10,16(x9)
    38b4:	03850513          	add	x10,x10,56
    38b8:	e45ff0ef          	jal	36fc <ld_qword>
    38bc:	00a42823          	sw	x10,16(x8)
    38c0:	00b42a23          	sw	x11,20(x8)
    38c4:	0104a783          	lw	x15,16(x9)
    38c8:	0217c783          	lbu	x15,33(x15)
    38cc:	0027f793          	and	x15,x15,2
    38d0:	00f403a3          	sb	x15,7(x8)
    38d4:	00042e23          	sw	x0,28(x8)
    38d8:	00c12083          	lw	x1,12(x2)
    38dc:	00812403          	lw	x8,8(x2)
    38e0:	00412483          	lw	x9,4(x2)
    38e4:	01010113          	add	x2,x2,16
    38e8:	00008067          	ret

000038ec <get_ldnumber>:
    38ec:	00050593          	mv	x11,x10
    38f0:	00052503          	lw	x10,0(x10)
    38f4:	06050063          	beqz	x10,3954 <get_ldnumber+0x68>
    38f8:	00050793          	mv	x15,x10
    38fc:	01f00693          	li	x13,31
    3900:	03a00613          	li	x12,58
    3904:	00178793          	add	x15,x15,1
    3908:	fff7c703          	lbu	x14,-1(x15)
    390c:	04e6f863          	bgeu	x13,x14,395c <get_ldnumber+0x70>
    3910:	fec71ae3          	bne	x14,x12,3904 <get_ldnumber+0x18>
    3914:	00054683          	lbu	x13,0(x10)
    3918:	fd068713          	add	x14,x13,-48
    391c:	0ff77713          	zext.b	x14,x14
    3920:	00900613          	li	x12,9
    3924:	00e67663          	bgeu	x12,x14,3930 <get_ldnumber+0x44>
    3928:	fff00513          	li	x10,-1
    392c:	00008067          	ret
    3930:	00250713          	add	x14,x10,2
    3934:	fff00513          	li	x10,-1
    3938:	fee79ae3          	bne	x15,x14,392c <get_ldnumber+0x40>
    393c:	fd068513          	add	x10,x13,-48
    3940:	00a05663          	blez	x10,394c <get_ldnumber+0x60>
    3944:	fff00513          	li	x10,-1
    3948:	00008067          	ret
    394c:	00f5a023          	sw	x15,0(x11)
    3950:	00008067          	ret
    3954:	fff00513          	li	x10,-1
    3958:	00008067          	ret
    395c:	00000513          	li	x10,0
    3960:	00008067          	ret

00003964 <ilog10>:
    3964:	fd010113          	add	x2,x2,-48
    3968:	02112623          	sw	x1,44(x2)
    396c:	02812423          	sw	x8,40(x2)
    3970:	02912223          	sw	x9,36(x2)
    3974:	03212023          	sw	x18,32(x2)
    3978:	01312e23          	sw	x19,28(x2)
    397c:	01412c23          	sw	x20,24(x2)
    3980:	01512a23          	sw	x21,20(x2)
    3984:	01612823          	sw	x22,16(x2)
    3988:	01712623          	sw	x23,12(x2)
    398c:	01812423          	sw	x24,8(x2)
    3990:	01912223          	sw	x25,4(x2)
    3994:	01a12023          	sw	x26,0(x2)
    3998:	00050c13          	mv	x24,x10
    399c:	00058c93          	mv	x25,x11
    39a0:	0000f7b7          	lui	x15,0xf
    39a4:	6f07a603          	lw	x12,1776(x15) # f6f0 <cvt1.1+0x1f8>
    39a8:	6f47a683          	lw	x13,1780(x15)
    39ac:	3b1090ef          	jal	d55c <__gedf2>
    39b0:	0a054463          	bltz	x10,3a58 <ilog10+0xf4>
    39b4:	00000d13          	li	x26,0
    39b8:	0000f737          	lui	x14,0xf
    39bc:	6f872903          	lw	x18,1784(x14) # f6f8 <cvt1.1+0x200>
    39c0:	6fc72983          	lw	x19,1788(x14)
    39c4:	0000f7b7          	lui	x15,0xf
    39c8:	6f07ab03          	lw	x22,1776(x15) # f6f0 <cvt1.1+0x1f8>
    39cc:	6f47ab83          	lw	x23,1780(x15)
    39d0:	00090a13          	mv	x20,x18
    39d4:	00098a93          	mv	x21,x19
    39d8:	000b0413          	mv	x8,x22
    39dc:	000b8493          	mv	x9,x23
    39e0:	03c0006f          	j	3a1c <ilog10+0xb8>
    39e4:	000b0613          	mv	x12,x22
    39e8:	000b8693          	mv	x13,x23
    39ec:	000c0513          	mv	x10,x24
    39f0:	000c8593          	mv	x11,x25
    39f4:	230090ef          	jal	cc24 <__divdf3>
    39f8:	00050c13          	mv	x24,x10
    39fc:	00058c93          	mv	x25,x11
    3a00:	001d0d13          	add	x26,x26,1
    3a04:	00040613          	mv	x12,x8
    3a08:	00048693          	mv	x13,x9
    3a0c:	000c0513          	mv	x10,x24
    3a10:	000c8593          	mv	x11,x25
    3a14:	349090ef          	jal	d55c <__gedf2>
    3a18:	10054663          	bltz	x10,3b24 <ilog10+0x1c0>
    3a1c:	00090613          	mv	x12,x18
    3a20:	00098693          	mv	x13,x19
    3a24:	000c0513          	mv	x10,x24
    3a28:	000c8593          	mv	x11,x25
    3a2c:	331090ef          	jal	d55c <__gedf2>
    3a30:	fa054ae3          	bltz	x10,39e4 <ilog10+0x80>
    3a34:	000a0613          	mv	x12,x20
    3a38:	000a8693          	mv	x13,x21
    3a3c:	000c0513          	mv	x10,x24
    3a40:	000c8593          	mv	x11,x25
    3a44:	1e0090ef          	jal	cc24 <__divdf3>
    3a48:	00050c13          	mv	x24,x10
    3a4c:	00058c93          	mv	x25,x11
    3a50:	005d0d13          	add	x26,x26,5
    3a54:	fb1ff06f          	j	3a04 <ilog10+0xa0>
    3a58:	0000f7b7          	lui	x15,0xf
    3a5c:	7007a603          	lw	x12,1792(x15) # f700 <cvt1.1+0x208>
    3a60:	7047a683          	lw	x13,1796(x15)
    3a64:	000c0513          	mv	x10,x24
    3a68:	000c8593          	mv	x11,x25
    3a6c:	3f1090ef          	jal	d65c <__ledf2>
    3a70:	00000d13          	li	x26,0
    3a74:	0a055663          	bgez	x10,3b20 <ilog10+0x1bc>
    3a78:	0000f7b7          	lui	x15,0xf
    3a7c:	7087a903          	lw	x18,1800(x15) # f708 <cvt1.1+0x210>
    3a80:	70c7a983          	lw	x19,1804(x15)
    3a84:	0000f7b7          	lui	x15,0xf
    3a88:	6f07aa03          	lw	x20,1776(x15) # f6f0 <cvt1.1+0x1f8>
    3a8c:	6f47aa83          	lw	x21,1780(x15)
    3a90:	0000f7b7          	lui	x15,0xf
    3a94:	6f87ab03          	lw	x22,1784(x15) # f6f8 <cvt1.1+0x200>
    3a98:	6fc7ab83          	lw	x23,1788(x15)
    3a9c:	0000f7b7          	lui	x15,0xf
    3aa0:	7007a403          	lw	x8,1792(x15) # f700 <cvt1.1+0x208>
    3aa4:	7047a483          	lw	x9,1796(x15)
    3aa8:	03c0006f          	j	3ae4 <ilog10+0x180>
    3aac:	000a0613          	mv	x12,x20
    3ab0:	000a8693          	mv	x13,x21
    3ab4:	000c0513          	mv	x10,x24
    3ab8:	000c8593          	mv	x11,x25
    3abc:	4a9090ef          	jal	d764 <__muldf3>
    3ac0:	00050c13          	mv	x24,x10
    3ac4:	00058c93          	mv	x25,x11
    3ac8:	fffd0d13          	add	x26,x26,-1
    3acc:	00040613          	mv	x12,x8
    3ad0:	00048693          	mv	x13,x9
    3ad4:	000c0513          	mv	x10,x24
    3ad8:	000c8593          	mv	x11,x25
    3adc:	381090ef          	jal	d65c <__ledf2>
    3ae0:	04055263          	bgez	x10,3b24 <ilog10+0x1c0>
    3ae4:	00090613          	mv	x12,x18
    3ae8:	00098693          	mv	x13,x19
    3aec:	000c0513          	mv	x10,x24
    3af0:	000c8593          	mv	x11,x25
    3af4:	369090ef          	jal	d65c <__ledf2>
    3af8:	fa055ae3          	bgez	x10,3aac <ilog10+0x148>
    3afc:	000b0613          	mv	x12,x22
    3b00:	000b8693          	mv	x13,x23
    3b04:	000c0513          	mv	x10,x24
    3b08:	000c8593          	mv	x11,x25
    3b0c:	459090ef          	jal	d764 <__muldf3>
    3b10:	00050c13          	mv	x24,x10
    3b14:	00058c93          	mv	x25,x11
    3b18:	ffbd0d13          	add	x26,x26,-5
    3b1c:	fb1ff06f          	j	3acc <ilog10+0x168>
    3b20:	00000d13          	li	x26,0
    3b24:	000d0513          	mv	x10,x26
    3b28:	02c12083          	lw	x1,44(x2)
    3b2c:	02812403          	lw	x8,40(x2)
    3b30:	02412483          	lw	x9,36(x2)
    3b34:	02012903          	lw	x18,32(x2)
    3b38:	01c12983          	lw	x19,28(x2)
    3b3c:	01812a03          	lw	x20,24(x2)
    3b40:	01412a83          	lw	x21,20(x2)
    3b44:	01012b03          	lw	x22,16(x2)
    3b48:	00c12b83          	lw	x23,12(x2)
    3b4c:	00812c03          	lw	x24,8(x2)
    3b50:	00412c83          	lw	x25,4(x2)
    3b54:	00012d03          	lw	x26,0(x2)
    3b58:	03010113          	add	x2,x2,48
    3b5c:	00008067          	ret

00003b60 <i10x>:
    3b60:	fe010113          	add	x2,x2,-32
    3b64:	00112e23          	sw	x1,28(x2)
    3b68:	00812c23          	sw	x8,24(x2)
    3b6c:	00912a23          	sw	x9,20(x2)
    3b70:	01212823          	sw	x18,16(x2)
    3b74:	01312623          	sw	x19,12(x2)
    3b78:	01412423          	sw	x20,8(x2)
    3b7c:	01512223          	sw	x21,4(x2)
    3b80:	00050413          	mv	x8,x10
    3b84:	04a05e63          	blez	x10,3be0 <i10x+0x80>
    3b88:	0000f7b7          	lui	x15,0xf
    3b8c:	7007a503          	lw	x10,1792(x15) # f700 <cvt1.1+0x208>
    3b90:	7047a583          	lw	x11,1796(x15)
    3b94:	00400493          	li	x9,4
    3b98:	0000f7b7          	lui	x15,0xf
    3b9c:	6f07aa03          	lw	x20,1776(x15) # f6f0 <cvt1.1+0x1f8>
    3ba0:	6f47aa83          	lw	x21,1780(x15)
    3ba4:	0000f7b7          	lui	x15,0xf
    3ba8:	6f87a903          	lw	x18,1784(x15) # f6f8 <cvt1.1+0x200>
    3bac:	6fc7a983          	lw	x19,1788(x15)
    3bb0:	0180006f          	j	3bc8 <i10x+0x68>
    3bb4:	000a0613          	mv	x12,x20
    3bb8:	000a8693          	mv	x13,x21
    3bbc:	3a9090ef          	jal	d764 <__muldf3>
    3bc0:	fff40413          	add	x8,x8,-1
    3bc4:	08805263          	blez	x8,3c48 <i10x+0xe8>
    3bc8:	fe84d6e3          	bge	x9,x8,3bb4 <i10x+0x54>
    3bcc:	00090613          	mv	x12,x18
    3bd0:	00098693          	mv	x13,x19
    3bd4:	391090ef          	jal	d764 <__muldf3>
    3bd8:	ffb40413          	add	x8,x8,-5
    3bdc:	fe9ff06f          	j	3bc4 <i10x+0x64>
    3be0:	04055e63          	bgez	x10,3c3c <i10x+0xdc>
    3be4:	0000f7b7          	lui	x15,0xf
    3be8:	7007a503          	lw	x10,1792(x15) # f700 <cvt1.1+0x208>
    3bec:	7047a583          	lw	x11,1796(x15)
    3bf0:	ffc00493          	li	x9,-4
    3bf4:	0000f7b7          	lui	x15,0xf
    3bf8:	6f07aa03          	lw	x20,1776(x15) # f6f0 <cvt1.1+0x1f8>
    3bfc:	6f47aa83          	lw	x21,1780(x15)
    3c00:	0000f7b7          	lui	x15,0xf
    3c04:	6f87a903          	lw	x18,1784(x15) # f6f8 <cvt1.1+0x200>
    3c08:	6fc7a983          	lw	x19,1788(x15)
    3c0c:	0180006f          	j	3c24 <i10x+0xc4>
    3c10:	000a0613          	mv	x12,x20
    3c14:	000a8693          	mv	x13,x21
    3c18:	00c090ef          	jal	cc24 <__divdf3>
    3c1c:	00140413          	add	x8,x8,1
    3c20:	02045463          	bgez	x8,3c48 <i10x+0xe8>
    3c24:	fe9456e3          	bge	x8,x9,3c10 <i10x+0xb0>
    3c28:	00090613          	mv	x12,x18
    3c2c:	00098693          	mv	x13,x19
    3c30:	7f5080ef          	jal	cc24 <__divdf3>
    3c34:	00540413          	add	x8,x8,5
    3c38:	fe9ff06f          	j	3c20 <i10x+0xc0>
    3c3c:	0000f7b7          	lui	x15,0xf
    3c40:	7007a503          	lw	x10,1792(x15) # f700 <cvt1.1+0x208>
    3c44:	7047a583          	lw	x11,1796(x15)
    3c48:	01c12083          	lw	x1,28(x2)
    3c4c:	01812403          	lw	x8,24(x2)
    3c50:	01412483          	lw	x9,20(x2)
    3c54:	01012903          	lw	x18,16(x2)
    3c58:	00c12983          	lw	x19,12(x2)
    3c5c:	00812a03          	lw	x20,8(x2)
    3c60:	00412a83          	lw	x21,4(x2)
    3c64:	02010113          	add	x2,x2,32
    3c68:	00008067          	ret

00003c6c <validate>:
    3c6c:	ff010113          	add	x2,x2,-16
    3c70:	00112623          	sw	x1,12(x2)
    3c74:	00812423          	sw	x8,8(x2)
    3c78:	00912223          	sw	x9,4(x2)
    3c7c:	00050413          	mv	x8,x10
    3c80:	00058493          	mv	x9,x11
    3c84:	04050c63          	beqz	x10,3cdc <validate+0x70>
    3c88:	00052783          	lw	x15,0(x10)
    3c8c:	04078c63          	beqz	x15,3ce4 <validate+0x78>
    3c90:	0007c703          	lbu	x14,0(x15)
    3c94:	04070e63          	beqz	x14,3cf0 <validate+0x84>
    3c98:	00455683          	lhu	x13,4(x10)
    3c9c:	0067d703          	lhu	x14,6(x15)
    3ca0:	02e68263          	beq	x13,x14,3cc4 <validate+0x58>
    3ca4:	00900513          	li	x10,9
    3ca8:	00000413          	li	x8,0
    3cac:	0084a023          	sw	x8,0(x9)
    3cb0:	00c12083          	lw	x1,12(x2)
    3cb4:	00812403          	lw	x8,8(x2)
    3cb8:	00412483          	lw	x9,4(x2)
    3cbc:	01010113          	add	x2,x2,16
    3cc0:	00008067          	ret
    3cc4:	0017c503          	lbu	x10,1(x15)
    3cc8:	8d5ff0ef          	jal	359c <disk_status>
    3ccc:	00157513          	and	x10,x10,1
    3cd0:	02051663          	bnez	x10,3cfc <validate+0x90>
    3cd4:	00042403          	lw	x8,0(x8)
    3cd8:	fd5ff06f          	j	3cac <validate+0x40>
    3cdc:	00900513          	li	x10,9
    3ce0:	fcdff06f          	j	3cac <validate+0x40>
    3ce4:	00078413          	mv	x8,x15
    3ce8:	00900513          	li	x10,9
    3cec:	fc1ff06f          	j	3cac <validate+0x40>
    3cf0:	00900513          	li	x10,9
    3cf4:	00000413          	li	x8,0
    3cf8:	fb5ff06f          	j	3cac <validate+0x40>
    3cfc:	00900513          	li	x10,9
    3d00:	00000413          	li	x8,0
    3d04:	fa9ff06f          	j	3cac <validate+0x40>

00003d08 <sync_window>:
    3d08:	ff010113          	add	x2,x2,-16
    3d0c:	00112623          	sw	x1,12(x2)
    3d10:	00912223          	sw	x9,4(x2)
    3d14:	00454783          	lbu	x15,4(x10)
    3d18:	00000493          	li	x9,0
    3d1c:	00079c63          	bnez	x15,3d34 <sync_window+0x2c>
    3d20:	00048513          	mv	x10,x9
    3d24:	00c12083          	lw	x1,12(x2)
    3d28:	00412483          	lw	x9,4(x2)
    3d2c:	01010113          	add	x2,x2,16
    3d30:	00008067          	ret
    3d34:	00812423          	sw	x8,8(x2)
    3d38:	01212023          	sw	x18,0(x2)
    3d3c:	00050413          	mv	x8,x10
    3d40:	03c50913          	add	x18,x10,60
    3d44:	00100693          	li	x13,1
    3d48:	03852603          	lw	x12,56(x10)
    3d4c:	00090593          	mv	x11,x18
    3d50:	00154503          	lbu	x10,1(x10)
    3d54:	90dff0ef          	jal	3660 <disk_write>
    3d58:	00050493          	mv	x9,x10
    3d5c:	04051a63          	bnez	x10,3db0 <sync_window+0xa8>
    3d60:	00040223          	sb	x0,4(x8)
    3d64:	03842603          	lw	x12,56(x8)
    3d68:	02042703          	lw	x14,32(x8)
    3d6c:	02842783          	lw	x15,40(x8)
    3d70:	40f607b3          	sub	x15,x12,x15
    3d74:	04e7f663          	bgeu	x15,x14,3dc0 <sync_window+0xb8>
    3d78:	00344683          	lbu	x13,3(x8)
    3d7c:	00200793          	li	x15,2
    3d80:	00f68863          	beq	x13,x15,3d90 <sync_window+0x88>
    3d84:	00812403          	lw	x8,8(x2)
    3d88:	00012903          	lw	x18,0(x2)
    3d8c:	f95ff06f          	j	3d20 <sync_window+0x18>
    3d90:	00100693          	li	x13,1
    3d94:	00e60633          	add	x12,x12,x14
    3d98:	00090593          	mv	x11,x18
    3d9c:	00144503          	lbu	x10,1(x8)
    3da0:	8c1ff0ef          	jal	3660 <disk_write>
    3da4:	00812403          	lw	x8,8(x2)
    3da8:	00012903          	lw	x18,0(x2)
    3dac:	f75ff06f          	j	3d20 <sync_window+0x18>
    3db0:	00100493          	li	x9,1
    3db4:	00812403          	lw	x8,8(x2)
    3db8:	00012903          	lw	x18,0(x2)
    3dbc:	f65ff06f          	j	3d20 <sync_window+0x18>
    3dc0:	00812403          	lw	x8,8(x2)
    3dc4:	00012903          	lw	x18,0(x2)
    3dc8:	f59ff06f          	j	3d20 <sync_window+0x18>

00003dcc <move_window>:
    3dcc:	03852783          	lw	x15,56(x10)
    3dd0:	00b79663          	bne	x15,x11,3ddc <move_window+0x10>
    3dd4:	00000513          	li	x10,0
    3dd8:	00008067          	ret
    3ddc:	ff010113          	add	x2,x2,-16
    3de0:	00112623          	sw	x1,12(x2)
    3de4:	00812423          	sw	x8,8(x2)
    3de8:	00912223          	sw	x9,4(x2)
    3dec:	00050413          	mv	x8,x10
    3df0:	00058493          	mv	x9,x11
    3df4:	f15ff0ef          	jal	3d08 <sync_window>
    3df8:	00050c63          	beqz	x10,3e10 <move_window+0x44>
    3dfc:	00c12083          	lw	x1,12(x2)
    3e00:	00812403          	lw	x8,8(x2)
    3e04:	00412483          	lw	x9,4(x2)
    3e08:	01010113          	add	x2,x2,16
    3e0c:	00008067          	ret
    3e10:	00100693          	li	x13,1
    3e14:	00048613          	mv	x12,x9
    3e18:	03c40593          	add	x11,x8,60
    3e1c:	00144503          	lbu	x10,1(x8)
    3e20:	ff8ff0ef          	jal	3618 <disk_read>
    3e24:	00050663          	beqz	x10,3e30 <move_window+0x64>
    3e28:	00100513          	li	x10,1
    3e2c:	fff00493          	li	x9,-1
    3e30:	02942c23          	sw	x9,56(x8)
    3e34:	fc9ff06f          	j	3dfc <move_window+0x30>

00003e38 <change_bitmap>:
    3e38:	fd010113          	add	x2,x2,-48
    3e3c:	02112623          	sw	x1,44(x2)
    3e40:	02812423          	sw	x8,40(x2)
    3e44:	02912223          	sw	x9,36(x2)
    3e48:	03212023          	sw	x18,32(x2)
    3e4c:	01312e23          	sw	x19,28(x2)
    3e50:	01412c23          	sw	x20,24(x2)
    3e54:	01512a23          	sw	x21,20(x2)
    3e58:	01612823          	sw	x22,16(x2)
    3e5c:	01712623          	sw	x23,12(x2)
    3e60:	00050913          	mv	x18,x10
    3e64:	00060b93          	mv	x23,x12
    3e68:	00068a13          	mv	x20,x13
    3e6c:	ffe58793          	add	x15,x11,-2
    3e70:	00c7d593          	srl	x11,x15,0xc
    3e74:	03452703          	lw	x14,52(x10)
    3e78:	00e585b3          	add	x11,x11,x14
    3e7c:	0037d493          	srl	x9,x15,0x3
    3e80:	1ff4f493          	and	x9,x9,511
    3e84:	0077f793          	and	x15,x15,7
    3e88:	00100413          	li	x8,1
    3e8c:	00f41433          	sll	x8,x8,x15
    3e90:	0ff47413          	zext.b	x8,x8
    3e94:	00100993          	li	x19,1
    3e98:	1ff00a93          	li	x21,511
    3e9c:	00158b13          	add	x22,x11,1
    3ea0:	00090513          	mv	x10,x18
    3ea4:	f29ff0ef          	jal	3dcc <move_window>
    3ea8:	00050693          	mv	x13,x10
    3eac:	08051663          	bnez	x10,3f38 <change_bitmap+0x100>
    3eb0:	009907b3          	add	x15,x18,x9
    3eb4:	03c7c783          	lbu	x15,60(x15)
    3eb8:	00f47733          	and	x14,x8,x15
    3ebc:	00e03733          	snez	x14,x14
    3ec0:	08ea0063          	beq	x20,x14,3f40 <change_bitmap+0x108>
    3ec4:	00990733          	add	x14,x18,x9
    3ec8:	00f447b3          	xor	x15,x8,x15
    3ecc:	02f70e23          	sb	x15,60(x14)
    3ed0:	01390223          	sb	x19,4(x18)
    3ed4:	fffb8513          	add	x10,x23,-1
    3ed8:	02051c63          	bnez	x10,3f10 <change_bitmap+0xd8>
    3edc:	0700006f          	j	3f4c <change_bitmap+0x114>
    3ee0:	00098413          	mv	x8,x19
    3ee4:	009907b3          	add	x15,x18,x9
    3ee8:	03c7c783          	lbu	x15,60(x15)
    3eec:	0087f733          	and	x14,x15,x8
    3ef0:	00e03733          	snez	x14,x14
    3ef4:	05470a63          	beq	x14,x20,3f48 <change_bitmap+0x110>
    3ef8:	00990733          	add	x14,x18,x9
    3efc:	0087c7b3          	xor	x15,x15,x8
    3f00:	02f70e23          	sb	x15,60(x14)
    3f04:	01390223          	sb	x19,4(x18)
    3f08:	fff50513          	add	x10,x10,-1
    3f0c:	04050063          	beqz	x10,3f4c <change_bitmap+0x114>
    3f10:	00141413          	sll	x8,x8,0x1
    3f14:	0ff47413          	zext.b	x8,x8
    3f18:	fc0416e3          	bnez	x8,3ee4 <change_bitmap+0xac>
    3f1c:	00148493          	add	x9,x9,1
    3f20:	00098413          	mv	x8,x19
    3f24:	fa9afee3          	bgeu	x21,x9,3ee0 <change_bitmap+0xa8>
    3f28:	000b0593          	mv	x11,x22
    3f2c:	00068493          	mv	x9,x13
    3f30:	00050b93          	mv	x23,x10
    3f34:	f69ff06f          	j	3e9c <change_bitmap+0x64>
    3f38:	00100513          	li	x10,1
    3f3c:	0100006f          	j	3f4c <change_bitmap+0x114>
    3f40:	00200513          	li	x10,2
    3f44:	0080006f          	j	3f4c <change_bitmap+0x114>
    3f48:	00200513          	li	x10,2
    3f4c:	02c12083          	lw	x1,44(x2)
    3f50:	02812403          	lw	x8,40(x2)
    3f54:	02412483          	lw	x9,36(x2)
    3f58:	02012903          	lw	x18,32(x2)
    3f5c:	01c12983          	lw	x19,28(x2)
    3f60:	01812a03          	lw	x20,24(x2)
    3f64:	01412a83          	lw	x21,20(x2)
    3f68:	01012b03          	lw	x22,16(x2)
    3f6c:	00c12b83          	lw	x23,12(x2)
    3f70:	03010113          	add	x2,x2,48
    3f74:	00008067          	ret

00003f78 <dir_clear>:
    3f78:	fe010113          	add	x2,x2,-32
    3f7c:	00112e23          	sw	x1,28(x2)
    3f80:	00912a23          	sw	x9,20(x2)
    3f84:	01212823          	sw	x18,16(x2)
    3f88:	00050493          	mv	x9,x10
    3f8c:	00058913          	mv	x18,x11
    3f90:	d79ff0ef          	jal	3d08 <sync_window>
    3f94:	00050e63          	beqz	x10,3fb0 <dir_clear+0x38>
    3f98:	00100513          	li	x10,1
    3f9c:	01c12083          	lw	x1,28(x2)
    3fa0:	01412483          	lw	x9,20(x2)
    3fa4:	01012903          	lw	x18,16(x2)
    3fa8:	02010113          	add	x2,x2,32
    3fac:	00008067          	ret
    3fb0:	00812c23          	sw	x8,24(x2)
    3fb4:	01312623          	sw	x19,12(x2)
    3fb8:	00050413          	mv	x8,x10
    3fbc:	00090593          	mv	x11,x18
    3fc0:	00048513          	mv	x10,x9
    3fc4:	ff8ff0ef          	jal	37bc <clst2sect>
    3fc8:	00050913          	mv	x18,x10
    3fcc:	02a4ac23          	sw	x10,56(x9)
    3fd0:	03c48993          	add	x19,x9,60
    3fd4:	20000613          	li	x12,512
    3fd8:	00000593          	li	x11,0
    3fdc:	00098513          	mv	x10,x19
    3fe0:	81dfe0ef          	jal	27fc <memset>
    3fe4:	00a4d783          	lhu	x15,10(x9)
    3fe8:	02078463          	beqz	x15,4010 <dir_clear+0x98>
    3fec:	00100693          	li	x13,1
    3ff0:	00890633          	add	x12,x18,x8
    3ff4:	00098593          	mv	x11,x19
    3ff8:	0014c503          	lbu	x10,1(x9)
    3ffc:	e64ff0ef          	jal	3660 <disk_write>
    4000:	00051863          	bnez	x10,4010 <dir_clear+0x98>
    4004:	00140413          	add	x8,x8,1
    4008:	00a4d783          	lhu	x15,10(x9)
    400c:	fef460e3          	bltu	x8,x15,3fec <dir_clear+0x74>
    4010:	00a4d503          	lhu	x10,10(x9)
    4014:	40850533          	sub	x10,x10,x8
    4018:	00a03533          	snez	x10,x10
    401c:	01812403          	lw	x8,24(x2)
    4020:	00c12983          	lw	x19,12(x2)
    4024:	f79ff06f          	j	3f9c <dir_clear+0x24>

00004028 <put_utf>:
    4028:	ff010113          	add	x2,x2,-16
    402c:	00112623          	sw	x1,12(x2)
    4030:	00812423          	sw	x8,8(x2)
    4034:	00912223          	sw	x9,4(x2)
    4038:	00058493          	mv	x9,x11
    403c:	00060413          	mv	x8,x12
    4040:	1b500593          	li	x11,437
    4044:	364070ef          	jal	b3a8 <ff_uni2oem>
    4048:	00050793          	mv	x15,x10
    404c:	0ff00713          	li	x14,255
    4050:	02a77c63          	bgeu	x14,x10,4088 <put_utf+0x60>
    4054:	00100713          	li	x14,1
    4058:	00000513          	li	x10,0
    405c:	00876c63          	bltu	x14,x8,4074 <put_utf+0x4c>
    4060:	00c12083          	lw	x1,12(x2)
    4064:	00812403          	lw	x8,8(x2)
    4068:	00412483          	lw	x9,4(x2)
    406c:	01010113          	add	x2,x2,16
    4070:	00008067          	ret
    4074:	0087d713          	srl	x14,x15,0x8
    4078:	00e48023          	sb	x14,0(x9)
    407c:	00f480a3          	sb	x15,1(x9)
    4080:	00200513          	li	x10,2
    4084:	fddff06f          	j	4060 <put_utf+0x38>
    4088:	00000513          	li	x10,0
    408c:	fc078ae3          	beqz	x15,4060 <put_utf+0x38>
    4090:	00040513          	mv	x10,x8
    4094:	fc0406e3          	beqz	x8,4060 <put_utf+0x38>
    4098:	00f48023          	sb	x15,0(x9)
    409c:	00100513          	li	x10,1
    40a0:	fc1ff06f          	j	4060 <put_utf+0x38>

000040a4 <xname_sum>:
    40a4:	ff010113          	add	x2,x2,-16
    40a8:	00112623          	sw	x1,12(x2)
    40ac:	00812423          	sw	x8,8(x2)
    40b0:	00912223          	sw	x9,4(x2)
    40b4:	00250493          	add	x9,x10,2
    40b8:	00055503          	lhu	x10,0(x10)
    40bc:	06050c63          	beqz	x10,4134 <xname_sum+0x90>
    40c0:	00000413          	li	x8,0
    40c4:	38c070ef          	jal	b450 <ff_wtoupper>
    40c8:	01051713          	sll	x14,x10,0x10
    40cc:	01075713          	srl	x14,x14,0x10
    40d0:	00145793          	srl	x15,x8,0x1
    40d4:	00f41413          	sll	x8,x8,0xf
    40d8:	0087e7b3          	or	x15,x15,x8
    40dc:	01079793          	sll	x15,x15,0x10
    40e0:	0107d793          	srl	x15,x15,0x10
    40e4:	0ff57513          	zext.b	x10,x10
    40e8:	00a787b3          	add	x15,x15,x10
    40ec:	01079413          	sll	x8,x15,0x10
    40f0:	01045413          	srl	x8,x8,0x10
    40f4:	00145413          	srl	x8,x8,0x1
    40f8:	00f79793          	sll	x15,x15,0xf
    40fc:	00f46433          	or	x8,x8,x15
    4100:	00875713          	srl	x14,x14,0x8
    4104:	00e40433          	add	x8,x8,x14
    4108:	01041413          	sll	x8,x8,0x10
    410c:	01045413          	srl	x8,x8,0x10
    4110:	00248493          	add	x9,x9,2
    4114:	ffe4d503          	lhu	x10,-2(x9)
    4118:	fa0516e3          	bnez	x10,40c4 <xname_sum+0x20>
    411c:	00040513          	mv	x10,x8
    4120:	00c12083          	lw	x1,12(x2)
    4124:	00812403          	lw	x8,8(x2)
    4128:	00412483          	lw	x9,4(x2)
    412c:	01010113          	add	x2,x2,16
    4130:	00008067          	ret
    4134:	00050413          	mv	x8,x10
    4138:	fe5ff06f          	j	411c <xname_sum+0x78>

0000413c <sync_fs>:
    413c:	ff010113          	add	x2,x2,-16
    4140:	00112623          	sw	x1,12(x2)
    4144:	00812423          	sw	x8,8(x2)
    4148:	00050413          	mv	x8,x10
    414c:	bbdff0ef          	jal	3d08 <sync_window>
    4150:	02051263          	bnez	x10,4174 <sync_fs+0x38>
    4154:	00044703          	lbu	x14,0(x8)
    4158:	00300793          	li	x15,3
    415c:	02f70463          	beq	x14,x15,4184 <sync_fs+0x48>
    4160:	00000613          	li	x12,0
    4164:	00000593          	li	x11,0
    4168:	00144503          	lbu	x10,1(x8)
    416c:	d3cff0ef          	jal	36a8 <disk_ioctl>
    4170:	00a03533          	snez	x10,x10
    4174:	00c12083          	lw	x1,12(x2)
    4178:	00812403          	lw	x8,8(x2)
    417c:	01010113          	add	x2,x2,16
    4180:	00008067          	ret
    4184:	00544703          	lbu	x14,5(x8)
    4188:	00100793          	li	x15,1
    418c:	fcf71ae3          	bne	x14,x15,4160 <sync_fs+0x24>
    4190:	00912223          	sw	x9,4(x2)
    4194:	03c40493          	add	x9,x8,60
    4198:	20000613          	li	x12,512
    419c:	00000593          	li	x11,0
    41a0:	00048513          	mv	x10,x9
    41a4:	e58fe0ef          	jal	27fc <memset>
    41a8:	05500793          	li	x15,85
    41ac:	22f40d23          	sb	x15,570(x8)
    41b0:	faa00793          	li	x15,-86
    41b4:	22f40da3          	sb	x15,571(x8)
    41b8:	05200793          	li	x15,82
    41bc:	02f40e23          	sb	x15,60(x8)
    41c0:	02f40ea3          	sb	x15,61(x8)
    41c4:	06100793          	li	x15,97
    41c8:	02f40f23          	sb	x15,62(x8)
    41cc:	04100713          	li	x14,65
    41d0:	02e40fa3          	sb	x14,63(x8)
    41d4:	07200693          	li	x13,114
    41d8:	22d40023          	sb	x13,544(x8)
    41dc:	22d400a3          	sb	x13,545(x8)
    41e0:	22e40123          	sb	x14,546(x8)
    41e4:	22f401a3          	sb	x15,547(x8)
    41e8:	01842783          	lw	x15,24(x8)
    41ec:	22f40223          	sb	x15,548(x8)
    41f0:	0087d713          	srl	x14,x15,0x8
    41f4:	22e402a3          	sb	x14,549(x8)
    41f8:	0107d713          	srl	x14,x15,0x10
    41fc:	22e40323          	sb	x14,550(x8)
    4200:	0187d793          	srl	x15,x15,0x18
    4204:	22f403a3          	sb	x15,551(x8)
    4208:	01442783          	lw	x15,20(x8)
    420c:	22f40423          	sb	x15,552(x8)
    4210:	0087d713          	srl	x14,x15,0x8
    4214:	22e404a3          	sb	x14,553(x8)
    4218:	0107d713          	srl	x14,x15,0x10
    421c:	22e40523          	sb	x14,554(x8)
    4220:	0187d793          	srl	x15,x15,0x18
    4224:	22f405a3          	sb	x15,555(x8)
    4228:	02442603          	lw	x12,36(x8)
    422c:	00160613          	add	x12,x12,1
    4230:	02c42c23          	sw	x12,56(x8)
    4234:	00100693          	li	x13,1
    4238:	00048593          	mv	x11,x9
    423c:	00144503          	lbu	x10,1(x8)
    4240:	c20ff0ef          	jal	3660 <disk_write>
    4244:	000402a3          	sb	x0,5(x8)
    4248:	00412483          	lw	x9,4(x2)
    424c:	f15ff06f          	j	4160 <sync_fs+0x24>

00004250 <put_fat>:
    4250:	fe010113          	add	x2,x2,-32
    4254:	00112e23          	sw	x1,28(x2)
    4258:	01312623          	sw	x19,12(x2)
    425c:	00100793          	li	x15,1
    4260:	00200993          	li	x19,2
    4264:	2ab7f463          	bgeu	x15,x11,450c <put_fat+0x2bc>
    4268:	00812c23          	sw	x8,24(x2)
    426c:	00912a23          	sw	x9,20(x2)
    4270:	01212823          	sw	x18,16(x2)
    4274:	00050493          	mv	x9,x10
    4278:	00058413          	mv	x8,x11
    427c:	00060913          	mv	x18,x12
    4280:	01c52783          	lw	x15,28(x10)
    4284:	00200993          	li	x19,2
    4288:	26f5fc63          	bgeu	x11,x15,4500 <put_fat+0x2b0>
    428c:	00054783          	lbu	x15,0(x10)
    4290:	00200713          	li	x14,2
    4294:	1ce78463          	beq	x15,x14,445c <put_fat+0x20c>
    4298:	0cf76663          	bltu	x14,x15,4364 <put_fat+0x114>
    429c:	00100713          	li	x14,1
    42a0:	0ae79a63          	bne	x15,x14,4354 <put_fat+0x104>
    42a4:	01412423          	sw	x20,8(x2)
    42a8:	0015da13          	srl	x20,x11,0x1
    42ac:	00ba0a33          	add	x20,x20,x11
    42b0:	009a5593          	srl	x11,x20,0x9
    42b4:	02852783          	lw	x15,40(x10)
    42b8:	00f585b3          	add	x11,x11,x15
    42bc:	b11ff0ef          	jal	3dcc <move_window>
    42c0:	00050993          	mv	x19,x10
    42c4:	24051e63          	bnez	x10,4520 <put_fat+0x2d0>
    42c8:	01512223          	sw	x21,4(x2)
    42cc:	01612023          	sw	x22,0(x2)
    42d0:	03c48a93          	add	x21,x9,60
    42d4:	001a0b13          	add	x22,x20,1
    42d8:	1ffa7a13          	and	x20,x20,511
    42dc:	014a8a33          	add	x20,x21,x20
    42e0:	00147413          	and	x8,x8,1
    42e4:	12040a63          	beqz	x8,4418 <put_fat+0x1c8>
    42e8:	000a4783          	lbu	x15,0(x20)
    42ec:	00f7f793          	and	x15,x15,15
    42f0:	00491713          	sll	x14,x18,0x4
    42f4:	00e7e7b3          	or	x15,x15,x14
    42f8:	00fa0023          	sb	x15,0(x20)
    42fc:	00100793          	li	x15,1
    4300:	00f48223          	sb	x15,4(x9)
    4304:	009b5593          	srl	x11,x22,0x9
    4308:	0284a783          	lw	x15,40(x9)
    430c:	00f585b3          	add	x11,x11,x15
    4310:	00048513          	mv	x10,x9
    4314:	ab9ff0ef          	jal	3dcc <move_window>
    4318:	1a051463          	bnez	x10,44c0 <put_fat+0x270>
    431c:	1ffb7b13          	and	x22,x22,511
    4320:	016a8ab3          	add	x21,x21,x22
    4324:	00495793          	srl	x15,x18,0x4
    4328:	0ff7f793          	zext.b	x15,x15
    432c:	00fa8023          	sb	x15,0(x21)
    4330:	00100793          	li	x15,1
    4334:	00f48223          	sb	x15,4(x9)
    4338:	01812403          	lw	x8,24(x2)
    433c:	01412483          	lw	x9,20(x2)
    4340:	01012903          	lw	x18,16(x2)
    4344:	00812a03          	lw	x20,8(x2)
    4348:	00412a83          	lw	x21,4(x2)
    434c:	00012b03          	lw	x22,0(x2)
    4350:	1bc0006f          	j	450c <put_fat+0x2bc>
    4354:	01812403          	lw	x8,24(x2)
    4358:	01412483          	lw	x9,20(x2)
    435c:	01012903          	lw	x18,16(x2)
    4360:	1ac0006f          	j	450c <put_fat+0x2bc>
    4364:	ffd78793          	add	x15,x15,-3
    4368:	0ff7f793          	zext.b	x15,x15
    436c:	00100713          	li	x14,1
    4370:	00200993          	li	x19,2
    4374:	08f76a63          	bltu	x14,x15,4408 <put_fat+0x1b8>
    4378:	0075d593          	srl	x11,x11,0x7
    437c:	02852783          	lw	x15,40(x10)
    4380:	00f585b3          	add	x11,x11,x15
    4384:	a49ff0ef          	jal	3dcc <move_window>
    4388:	00050993          	mv	x19,x10
    438c:	1a051463          	bnez	x10,4534 <put_fat+0x2e4>
    4390:	0004c703          	lbu	x14,0(x9)
    4394:	00400793          	li	x15,4
    4398:	02f70663          	beq	x14,x15,43c4 <put_fat+0x174>
    439c:	00491913          	sll	x18,x18,0x4
    43a0:	00495913          	srl	x18,x18,0x4
    43a4:	03c48513          	add	x10,x9,60
    43a8:	00241793          	sll	x15,x8,0x2
    43ac:	1fc7f793          	and	x15,x15,508
    43b0:	00f50533          	add	x10,x10,x15
    43b4:	b1cff0ef          	jal	36d0 <ld_dword>
    43b8:	f00007b7          	lui	x15,0xf0000
    43bc:	00f57533          	and	x10,x10,x15
    43c0:	01256933          	or	x18,x10,x18
    43c4:	03c48793          	add	x15,x9,60
    43c8:	00241413          	sll	x8,x8,0x2
    43cc:	1fc47413          	and	x8,x8,508
    43d0:	008787b3          	add	x15,x15,x8
    43d4:	01278023          	sb	x18,0(x15) # f0000000 <STACK_TOP+0xeff00000>
    43d8:	00895713          	srl	x14,x18,0x8
    43dc:	00e780a3          	sb	x14,1(x15)
    43e0:	01095713          	srl	x14,x18,0x10
    43e4:	00e78123          	sb	x14,2(x15)
    43e8:	01895613          	srl	x12,x18,0x18
    43ec:	00c781a3          	sb	x12,3(x15)
    43f0:	00100793          	li	x15,1
    43f4:	00f48223          	sb	x15,4(x9)
    43f8:	01812403          	lw	x8,24(x2)
    43fc:	01412483          	lw	x9,20(x2)
    4400:	01012903          	lw	x18,16(x2)
    4404:	1080006f          	j	450c <put_fat+0x2bc>
    4408:	01812403          	lw	x8,24(x2)
    440c:	01412483          	lw	x9,20(x2)
    4410:	01012903          	lw	x18,16(x2)
    4414:	0f80006f          	j	450c <put_fat+0x2bc>
    4418:	012a0023          	sb	x18,0(x20)
    441c:	00100793          	li	x15,1
    4420:	00f48223          	sb	x15,4(x9)
    4424:	009b5593          	srl	x11,x22,0x9
    4428:	0284a783          	lw	x15,40(x9)
    442c:	00f585b3          	add	x11,x11,x15
    4430:	00048513          	mv	x10,x9
    4434:	999ff0ef          	jal	3dcc <move_window>
    4438:	0a051463          	bnez	x10,44e0 <put_fat+0x290>
    443c:	1ffb7b13          	and	x22,x22,511
    4440:	016a8ab3          	add	x21,x21,x22
    4444:	00895793          	srl	x15,x18,0x8
    4448:	00f7f793          	and	x15,x15,15
    444c:	000ac703          	lbu	x14,0(x21)
    4450:	ff077713          	and	x14,x14,-16
    4454:	00e7e7b3          	or	x15,x15,x14
    4458:	ed5ff06f          	j	432c <put_fat+0xdc>
    445c:	0085d593          	srl	x11,x11,0x8
    4460:	02852783          	lw	x15,40(x10)
    4464:	00f585b3          	add	x11,x11,x15
    4468:	965ff0ef          	jal	3dcc <move_window>
    446c:	00050993          	mv	x19,x10
    4470:	00050a63          	beqz	x10,4484 <put_fat+0x234>
    4474:	01812403          	lw	x8,24(x2)
    4478:	01412483          	lw	x9,20(x2)
    447c:	01012903          	lw	x18,16(x2)
    4480:	08c0006f          	j	450c <put_fat+0x2bc>
    4484:	03c48793          	add	x15,x9,60
    4488:	00141413          	sll	x8,x8,0x1
    448c:	1fe47413          	and	x8,x8,510
    4490:	008787b3          	add	x15,x15,x8
    4494:	01278023          	sb	x18,0(x15)
    4498:	01091613          	sll	x12,x18,0x10
    449c:	01065613          	srl	x12,x12,0x10
    44a0:	00865613          	srl	x12,x12,0x8
    44a4:	00c780a3          	sb	x12,1(x15)
    44a8:	00100793          	li	x15,1
    44ac:	00f48223          	sb	x15,4(x9)
    44b0:	01812403          	lw	x8,24(x2)
    44b4:	01412483          	lw	x9,20(x2)
    44b8:	01012903          	lw	x18,16(x2)
    44bc:	0500006f          	j	450c <put_fat+0x2bc>
    44c0:	00050993          	mv	x19,x10
    44c4:	01812403          	lw	x8,24(x2)
    44c8:	01412483          	lw	x9,20(x2)
    44cc:	01012903          	lw	x18,16(x2)
    44d0:	00812a03          	lw	x20,8(x2)
    44d4:	00412a83          	lw	x21,4(x2)
    44d8:	00012b03          	lw	x22,0(x2)
    44dc:	0300006f          	j	450c <put_fat+0x2bc>
    44e0:	00050993          	mv	x19,x10
    44e4:	01812403          	lw	x8,24(x2)
    44e8:	01412483          	lw	x9,20(x2)
    44ec:	01012903          	lw	x18,16(x2)
    44f0:	00812a03          	lw	x20,8(x2)
    44f4:	00412a83          	lw	x21,4(x2)
    44f8:	00012b03          	lw	x22,0(x2)
    44fc:	0100006f          	j	450c <put_fat+0x2bc>
    4500:	01812403          	lw	x8,24(x2)
    4504:	01412483          	lw	x9,20(x2)
    4508:	01012903          	lw	x18,16(x2)
    450c:	00098513          	mv	x10,x19
    4510:	01c12083          	lw	x1,28(x2)
    4514:	00c12983          	lw	x19,12(x2)
    4518:	02010113          	add	x2,x2,32
    451c:	00008067          	ret
    4520:	01812403          	lw	x8,24(x2)
    4524:	01412483          	lw	x9,20(x2)
    4528:	01012903          	lw	x18,16(x2)
    452c:	00812a03          	lw	x20,8(x2)
    4530:	fddff06f          	j	450c <put_fat+0x2bc>
    4534:	01812403          	lw	x8,24(x2)
    4538:	01412483          	lw	x9,20(x2)
    453c:	01012903          	lw	x18,16(x2)
    4540:	fcdff06f          	j	450c <put_fat+0x2bc>

00004544 <fill_last_frag>:
    4544:	01c52783          	lw	x15,28(x10)
    4548:	08078463          	beqz	x15,45d0 <fill_last_frag+0x8c>
    454c:	fe010113          	add	x2,x2,-32
    4550:	00112e23          	sw	x1,28(x2)
    4554:	00812c23          	sw	x8,24(x2)
    4558:	00912a23          	sw	x9,20(x2)
    455c:	01212823          	sw	x18,16(x2)
    4560:	01312623          	sw	x19,12(x2)
    4564:	00050413          	mv	x8,x10
    4568:	00058493          	mv	x9,x11
    456c:	00060913          	mv	x18,x12
    4570:	00100993          	li	x19,1
    4574:	0200006f          	j	4594 <fill_last_frag+0x50>
    4578:	cd9ff0ef          	jal	4250 <put_fat>
    457c:	00050793          	mv	x15,x10
    4580:	02051863          	bnez	x10,45b0 <fill_last_frag+0x6c>
    4584:	01c42783          	lw	x15,28(x8)
    4588:	fff78793          	add	x15,x15,-1
    458c:	00f42e23          	sw	x15,28(x8)
    4590:	02078063          	beqz	x15,45b0 <fill_last_frag+0x6c>
    4594:	00042503          	lw	x10,0(x8)
    4598:	40f48733          	sub	x14,x9,x15
    459c:	00170593          	add	x11,x14,1
    45a0:	00090613          	mv	x12,x18
    45a4:	fcf9fae3          	bgeu	x19,x15,4578 <fill_last_frag+0x34>
    45a8:	00270613          	add	x12,x14,2
    45ac:	fcdff06f          	j	4578 <fill_last_frag+0x34>
    45b0:	00078513          	mv	x10,x15
    45b4:	01c12083          	lw	x1,28(x2)
    45b8:	01812403          	lw	x8,24(x2)
    45bc:	01412483          	lw	x9,20(x2)
    45c0:	01012903          	lw	x18,16(x2)
    45c4:	00c12983          	lw	x19,12(x2)
    45c8:	02010113          	add	x2,x2,32
    45cc:	00008067          	ret
    45d0:	00078513          	mv	x10,x15
    45d4:	00008067          	ret

000045d8 <fill_first_frag>:
    45d8:	00754703          	lbu	x14,7(x10)
    45dc:	00300793          	li	x15,3
    45e0:	00f70663          	beq	x14,x15,45ec <fill_first_frag+0x14>
    45e4:	00000513          	li	x10,0
    45e8:	00008067          	ret
    45ec:	ff010113          	add	x2,x2,-16
    45f0:	00112623          	sw	x1,12(x2)
    45f4:	00812423          	sw	x8,8(x2)
    45f8:	00912223          	sw	x9,4(x2)
    45fc:	01212023          	sw	x18,0(x2)
    4600:	00050493          	mv	x9,x10
    4604:	00852403          	lw	x8,8(x10)
    4608:	01852903          	lw	x18,24(x10)
    460c:	02090263          	beqz	x18,4630 <fill_first_frag+0x58>
    4610:	01240933          	add	x18,x8,x18
    4614:	00040593          	mv	x11,x8
    4618:	00140413          	add	x8,x8,1
    461c:	00040613          	mv	x12,x8
    4620:	0004a503          	lw	x10,0(x9)
    4624:	c2dff0ef          	jal	4250 <put_fat>
    4628:	00051863          	bnez	x10,4638 <fill_first_frag+0x60>
    462c:	ff2414e3          	bne	x8,x18,4614 <fill_first_frag+0x3c>
    4630:	000483a3          	sb	x0,7(x9)
    4634:	00000513          	li	x10,0
    4638:	00c12083          	lw	x1,12(x2)
    463c:	00812403          	lw	x8,8(x2)
    4640:	00412483          	lw	x9,4(x2)
    4644:	00012903          	lw	x18,0(x2)
    4648:	01010113          	add	x2,x2,16
    464c:	00008067          	ret

00004650 <st_clust>:
    4650:	00c58d23          	sb	x12,26(x11)
    4654:	01061793          	sll	x15,x12,0x10
    4658:	0107d793          	srl	x15,x15,0x10
    465c:	0087d793          	srl	x15,x15,0x8
    4660:	00f58da3          	sb	x15,27(x11)
    4664:	00054703          	lbu	x14,0(x10)
    4668:	00300793          	li	x15,3
    466c:	00f70463          	beq	x14,x15,4674 <st_clust+0x24>
    4670:	00008067          	ret
    4674:	01065613          	srl	x12,x12,0x10
    4678:	00c58a23          	sb	x12,20(x11)
    467c:	00865613          	srl	x12,x12,0x8
    4680:	00c58aa3          	sb	x12,21(x11)
    4684:	00008067          	ret

00004688 <get_fileinfo>:
    4688:	fd010113          	add	x2,x2,-48
    468c:	02112623          	sw	x1,44(x2)
    4690:	01512a23          	sw	x21,20(x2)
    4694:	00052a83          	lw	x21,0(x10)
    4698:	00058d23          	sb	x0,26(x11)
    469c:	03852783          	lw	x15,56(x10)
    46a0:	40078c63          	beqz	x15,4ab8 <get_fileinfo+0x430>
    46a4:	02812423          	sw	x8,40(x2)
    46a8:	02912223          	sw	x9,36(x2)
    46ac:	00050493          	mv	x9,x10
    46b0:	00058413          	mv	x8,x11
    46b4:	000ac703          	lbu	x14,0(x21)
    46b8:	00400793          	li	x15,4
    46bc:	04f70e63          	beq	x14,x15,4718 <get_fileinfo+0x90>
    46c0:	04c52703          	lw	x14,76(x10)
    46c4:	fff00793          	li	x15,-1
    46c8:	2cf70463          	beq	x14,x15,4990 <get_fileinfo+0x308>
    46cc:	03212023          	sw	x18,32(x2)
    46d0:	00caa783          	lw	x15,12(x21)
    46d4:	0007d783          	lhu	x15,0(x15)
    46d8:	2c078c63          	beqz	x15,49b0 <get_fileinfo+0x328>
    46dc:	01312e23          	sw	x19,28(x2)
    46e0:	01412c23          	sw	x20,24(x2)
    46e4:	01612823          	sw	x22,16(x2)
    46e8:	01712623          	sw	x23,12(x2)
    46ec:	01812423          	sw	x24,8(x2)
    46f0:	01912223          	sw	x25,4(x2)
    46f4:	00200a13          	li	x20,2
    46f8:	00000993          	li	x19,0
    46fc:	00000913          	li	x18,0
    4700:	0ff00b93          	li	x23,255
    4704:	00000c13          	li	x24,0
    4708:	00003b37          	lui	x22,0x3
    470c:	800b0b13          	add	x22,x22,-2048 # 2800 <memset+0x4>
    4710:	7ff00c93          	li	x25,2047
    4714:	22c0006f          	j	4940 <get_fileinfo+0x2b8>
    4718:	03212023          	sw	x18,32(x2)
    471c:	010aa783          	lw	x15,16(x21)
    4720:	0237c703          	lbu	x14,35(x15)
    4724:	06070063          	beqz	x14,4784 <get_fileinfo+0xfc>
    4728:	01312e23          	sw	x19,28(x2)
    472c:	01412c23          	sw	x20,24(x2)
    4730:	01612823          	sw	x22,16(x2)
    4734:	01712623          	sw	x23,12(x2)
    4738:	01812423          	sw	x24,8(x2)
    473c:	01912223          	sw	x25,4(x2)
    4740:	00000993          	li	x19,0
    4744:	00000513          	li	x10,0
    4748:	00000913          	li	x18,0
    474c:	04000493          	li	x9,64
    4750:	0ff00b93          	li	x23,255
    4754:	00000c13          	li	x24,0
    4758:	00003b37          	lui	x22,0x3
    475c:	800b0b13          	add	x22,x22,-2048 # 2800 <memset+0x4>
    4760:	7ff00c93          	li	x25,2047
    4764:	25f00a13          	li	x20,607
    4768:	0dc0006f          	j	4844 <get_fileinfo+0x1bc>
    476c:	01c12983          	lw	x19,28(x2)
    4770:	01812a03          	lw	x20,24(x2)
    4774:	01012b03          	lw	x22,16(x2)
    4778:	00c12b83          	lw	x23,12(x2)
    477c:	00812c03          	lw	x24,8(x2)
    4780:	00412c83          	lw	x25,4(x2)
    4784:	03f00793          	li	x15,63
    4788:	00f40d23          	sb	x15,26(x8)
    478c:	00100913          	li	x18,1
    4790:	01240933          	add	x18,x8,x18
    4794:	00090d23          	sb	x0,26(x18)
    4798:	000406a3          	sb	x0,13(x8)
    479c:	010aa783          	lw	x15,16(x21)
    47a0:	0047c783          	lbu	x15,4(x15)
    47a4:	0377f713          	and	x14,x15,55
    47a8:	00e40623          	sb	x14,12(x8)
    47ac:	0107f793          	and	x15,x15,16
    47b0:	00000513          	li	x10,0
    47b4:	00000593          	li	x11,0
    47b8:	00079863          	bnez	x15,47c8 <get_fileinfo+0x140>
    47bc:	010aa503          	lw	x10,16(x21)
    47c0:	03850513          	add	x10,x10,56
    47c4:	f39fe0ef          	jal	36fc <ld_qword>
    47c8:	00a42023          	sw	x10,0(x8)
    47cc:	00b42223          	sw	x11,4(x8)
    47d0:	010aa703          	lw	x14,16(x21)
    47d4:	00d74783          	lbu	x15,13(x14)
    47d8:	00879793          	sll	x15,x15,0x8
    47dc:	00c74703          	lbu	x14,12(x14)
    47e0:	00e7e7b3          	or	x15,x15,x14
    47e4:	00f41523          	sh	x15,10(x8)
    47e8:	010aa703          	lw	x14,16(x21)
    47ec:	00f74783          	lbu	x15,15(x14)
    47f0:	00879793          	sll	x15,x15,0x8
    47f4:	00e74703          	lbu	x14,14(x14)
    47f8:	00e7e7b3          	or	x15,x15,x14
    47fc:	00f41423          	sh	x15,8(x8)
    4800:	02812403          	lw	x8,40(x2)
    4804:	02412483          	lw	x9,36(x2)
    4808:	02012903          	lw	x18,32(x2)
    480c:	2ac0006f          	j	4ab8 <get_fileinfo+0x430>
    4810:	01a90593          	add	x11,x18,26
    4814:	01051513          	sll	x10,x10,0x10
    4818:	412b8633          	sub	x12,x23,x18
    481c:	00b405b3          	add	x11,x8,x11
    4820:	00f56533          	or	x10,x10,x15
    4824:	805ff0ef          	jal	4028 <put_utf>
    4828:	0a050463          	beqz	x10,48d0 <get_fileinfo+0x248>
    482c:	00a90933          	add	x18,x18,x10
    4830:	000c0513          	mv	x10,x24
    4834:	010aa783          	lw	x15,16(x21)
    4838:	0237c703          	lbu	x14,35(x15)
    483c:	04e9fa63          	bgeu	x19,x14,4890 <get_fileinfo+0x208>
    4840:	f29a66e3          	bltu	x20,x9,476c <get_fileinfo+0xe4>
    4844:	01f4f713          	and	x14,x9,31
    4848:	00071463          	bnez	x14,4850 <get_fileinfo+0x1c8>
    484c:	00248493          	add	x9,x9,2
    4850:	00978733          	add	x14,x15,x9
    4854:	00174783          	lbu	x15,1(x14)
    4858:	00879793          	sll	x15,x15,0x8
    485c:	00074703          	lbu	x14,0(x14)
    4860:	00e7e7b3          	or	x15,x15,x14
    4864:	01079793          	sll	x15,x15,0x10
    4868:	0107d793          	srl	x15,x15,0x10
    486c:	00248493          	add	x9,x9,2
    4870:	00198993          	add	x19,x19,1
    4874:	f8051ee3          	bnez	x10,4810 <get_fileinfo+0x188>
    4878:	01678733          	add	x14,x15,x22
    487c:	01071713          	sll	x14,x14,0x10
    4880:	01075713          	srl	x14,x14,0x10
    4884:	f8ece6e3          	bltu	x25,x14,4810 <get_fileinfo+0x188>
    4888:	00078513          	mv	x10,x15
    488c:	fa9ff06f          	j	4834 <get_fileinfo+0x1ac>
    4890:	04051e63          	bnez	x10,48ec <get_fileinfo+0x264>
    4894:	02090063          	beqz	x18,48b4 <get_fileinfo+0x22c>
    4898:	01c12983          	lw	x19,28(x2)
    489c:	01812a03          	lw	x20,24(x2)
    48a0:	01012b03          	lw	x22,16(x2)
    48a4:	00c12b83          	lw	x23,12(x2)
    48a8:	00812c03          	lw	x24,8(x2)
    48ac:	00412c83          	lw	x25,4(x2)
    48b0:	ee1ff06f          	j	4790 <get_fileinfo+0x108>
    48b4:	01c12983          	lw	x19,28(x2)
    48b8:	01812a03          	lw	x20,24(x2)
    48bc:	01012b03          	lw	x22,16(x2)
    48c0:	00c12b83          	lw	x23,12(x2)
    48c4:	00812c03          	lw	x24,8(x2)
    48c8:	00412c83          	lw	x25,4(x2)
    48cc:	eb9ff06f          	j	4784 <get_fileinfo+0xfc>
    48d0:	01c12983          	lw	x19,28(x2)
    48d4:	01812a03          	lw	x20,24(x2)
    48d8:	01012b03          	lw	x22,16(x2)
    48dc:	00c12b83          	lw	x23,12(x2)
    48e0:	00812c03          	lw	x24,8(x2)
    48e4:	00412c83          	lw	x25,4(x2)
    48e8:	e9dff06f          	j	4784 <get_fileinfo+0xfc>
    48ec:	01c12983          	lw	x19,28(x2)
    48f0:	01812a03          	lw	x20,24(x2)
    48f4:	01012b03          	lw	x22,16(x2)
    48f8:	00c12b83          	lw	x23,12(x2)
    48fc:	00812c03          	lw	x24,8(x2)
    4900:	00412c83          	lw	x25,4(x2)
    4904:	e81ff06f          	j	4784 <get_fileinfo+0xfc>
    4908:	01a90593          	add	x11,x18,26
    490c:	01099513          	sll	x10,x19,0x10
    4910:	412b8633          	sub	x12,x23,x18
    4914:	00b405b3          	add	x11,x8,x11
    4918:	00f56533          	or	x10,x10,x15
    491c:	f0cff0ef          	jal	4028 <put_utf>
    4920:	02050e63          	beqz	x10,495c <get_fileinfo+0x2d4>
    4924:	00a90933          	add	x18,x18,x10
    4928:	000c0993          	mv	x19,x24
    492c:	00caa783          	lw	x15,12(x21)
    4930:	014787b3          	add	x15,x15,x20
    4934:	0007d783          	lhu	x15,0(x15)
    4938:	002a0a13          	add	x20,x20,2
    493c:	02078263          	beqz	x15,4960 <get_fileinfo+0x2d8>
    4940:	fc0994e3          	bnez	x19,4908 <get_fileinfo+0x280>
    4944:	01678733          	add	x14,x15,x22
    4948:	01071713          	sll	x14,x14,0x10
    494c:	01075713          	srl	x14,x14,0x10
    4950:	faecece3          	bltu	x25,x14,4908 <get_fileinfo+0x280>
    4954:	00078993          	mv	x19,x15
    4958:	fd5ff06f          	j	492c <get_fileinfo+0x2a4>
    495c:	00050913          	mv	x18,x10
    4960:	0019b993          	seqz	x19,x19
    4964:	413009b3          	neg	x19,x19
    4968:	01397933          	and	x18,x18,x19
    496c:	01c12983          	lw	x19,28(x2)
    4970:	01812a03          	lw	x20,24(x2)
    4974:	01012b03          	lw	x22,16(x2)
    4978:	00c12b83          	lw	x23,12(x2)
    497c:	00812c03          	lw	x24,8(x2)
    4980:	00412c83          	lw	x25,4(x2)
    4984:	01240933          	add	x18,x8,x18
    4988:	00090d23          	sb	x0,26(x18)
    498c:	02012903          	lw	x18,32(x2)
    4990:	00000613          	li	x12,0
    4994:	00000793          	li	x15,0
    4998:	02000513          	li	x10,32
    499c:	00500893          	li	x17,5
    49a0:	00900813          	li	x16,9
    49a4:	00b00593          	li	x11,11
    49a8:	0e500313          	li	x6,229
    49ac:	0200006f          	j	49cc <get_fileinfo+0x344>
    49b0:	00000913          	li	x18,0
    49b4:	fd1ff06f          	j	4984 <get_fileinfo+0x2fc>
    49b8:	03078a63          	beq	x15,x16,49ec <get_fileinfo+0x364>
    49bc:	00c406b3          	add	x13,x8,x12
    49c0:	00e686a3          	sb	x14,13(x13)
    49c4:	00160613          	add	x12,x12,1
    49c8:	02b78e63          	beq	x15,x11,4a04 <get_fileinfo+0x37c>
    49cc:	03c4a703          	lw	x14,60(x9)
    49d0:	00f70733          	add	x14,x14,x15
    49d4:	00178793          	add	x15,x15,1
    49d8:	00074703          	lbu	x14,0(x14)
    49dc:	fea706e3          	beq	x14,x10,49c8 <get_fileinfo+0x340>
    49e0:	fd171ce3          	bne	x14,x17,49b8 <get_fileinfo+0x330>
    49e4:	00030713          	mv	x14,x6
    49e8:	fd1ff06f          	j	49b8 <get_fileinfo+0x330>
    49ec:	fcc5e8e3          	bltu	x11,x12,49bc <get_fileinfo+0x334>
    49f0:	00c406b3          	add	x13,x8,x12
    49f4:	02e00e13          	li	x28,46
    49f8:	01c686a3          	sb	x28,13(x13)
    49fc:	00160613          	add	x12,x12,1
    4a00:	fbdff06f          	j	49bc <get_fileinfo+0x334>
    4a04:	00c407b3          	add	x15,x8,x12
    4a08:	000786a3          	sb	x0,13(x15)
    4a0c:	01a44783          	lbu	x15,26(x8)
    4a10:	04079663          	bnez	x15,4a5c <get_fileinfo+0x3d4>
    4a14:	02060263          	beqz	x12,4a38 <get_fileinfo+0x3b0>
    4a18:	00d44783          	lbu	x15,13(x8)
    4a1c:	00e40713          	add	x14,x8,14
    4a20:	00800593          	li	x11,8
    4a24:	02e00613          	li	x12,46
    4a28:	01000813          	li	x16,16
    4a2c:	01900513          	li	x10,25
    4a30:	0a079863          	bnez	x15,4ae0 <get_fileinfo+0x458>
    4a34:	0100006f          	j	4a44 <get_fileinfo+0x3bc>
    4a38:	03f00793          	li	x15,63
    4a3c:	00f40d23          	sb	x15,26(x8)
    4a40:	00100793          	li	x15,1
    4a44:	00f407b3          	add	x15,x8,x15
    4a48:	00078d23          	sb	x0,26(x15)
    4a4c:	03c4a783          	lw	x15,60(x9)
    4a50:	00c7c783          	lbu	x15,12(x15)
    4a54:	00079463          	bnez	x15,4a5c <get_fileinfo+0x3d4>
    4a58:	000406a3          	sb	x0,13(x8)
    4a5c:	03c4a783          	lw	x15,60(x9)
    4a60:	00b7c783          	lbu	x15,11(x15)
    4a64:	03f7f793          	and	x15,x15,63
    4a68:	00f40623          	sb	x15,12(x8)
    4a6c:	03c4a503          	lw	x10,60(x9)
    4a70:	01c50513          	add	x10,x10,28
    4a74:	c5dfe0ef          	jal	36d0 <ld_dword>
    4a78:	00a42023          	sw	x10,0(x8)
    4a7c:	00042223          	sw	x0,4(x8)
    4a80:	03c4a703          	lw	x14,60(x9)
    4a84:	01774783          	lbu	x15,23(x14)
    4a88:	00879793          	sll	x15,x15,0x8
    4a8c:	01674703          	lbu	x14,22(x14)
    4a90:	00e7e7b3          	or	x15,x15,x14
    4a94:	00f41523          	sh	x15,10(x8)
    4a98:	03c4a703          	lw	x14,60(x9)
    4a9c:	01974783          	lbu	x15,25(x14)
    4aa0:	00879793          	sll	x15,x15,0x8
    4aa4:	01874703          	lbu	x14,24(x14)
    4aa8:	00e7e7b3          	or	x15,x15,x14
    4aac:	00f41423          	sh	x15,8(x8)
    4ab0:	02812403          	lw	x8,40(x2)
    4ab4:	02412483          	lw	x9,36(x2)
    4ab8:	02c12083          	lw	x1,44(x2)
    4abc:	01412a83          	lw	x21,20(x2)
    4ac0:	03010113          	add	x2,x2,48
    4ac4:	00008067          	ret
    4ac8:	00080593          	mv	x11,x16
    4acc:	00d70623          	sb	x13,12(x14)
    4ad0:	00170693          	add	x13,x14,1
    4ad4:	00074783          	lbu	x15,0(x14)
    4ad8:	02078c63          	beqz	x15,4b10 <get_fileinfo+0x488>
    4adc:	00068713          	mv	x14,x13
    4ae0:	00078693          	mv	x13,x15
    4ae4:	fec782e3          	beq	x15,x12,4ac8 <get_fileinfo+0x440>
    4ae8:	fbf78793          	add	x15,x15,-65
    4aec:	01079793          	sll	x15,x15,0x10
    4af0:	0107d793          	srl	x15,x15,0x10
    4af4:	fcf56ce3          	bltu	x10,x15,4acc <get_fileinfo+0x444>
    4af8:	03c4a783          	lw	x15,60(x9)
    4afc:	00c7c783          	lbu	x15,12(x15)
    4b00:	00f5f7b3          	and	x15,x11,x15
    4b04:	fc0784e3          	beqz	x15,4acc <get_fileinfo+0x444>
    4b08:	02068693          	add	x13,x13,32
    4b0c:	fc1ff06f          	j	4acc <get_fileinfo+0x444>
    4b10:	408707b3          	sub	x15,x14,x8
    4b14:	ff378793          	add	x15,x15,-13
    4b18:	f2dff06f          	j	4a44 <get_fileinfo+0x3bc>

00004b1c <get_fat>:
    4b1c:	00100713          	li	x14,1
    4b20:	28b77663          	bgeu	x14,x11,4dac <get_fat+0x290>
    4b24:	fe010113          	add	x2,x2,-32
    4b28:	00112e23          	sw	x1,28(x2)
    4b2c:	00812c23          	sw	x8,24(x2)
    4b30:	00912a23          	sw	x9,20(x2)
    4b34:	00050793          	mv	x15,x10
    4b38:	00058413          	mv	x8,x11
    4b3c:	00052483          	lw	x9,0(x10)
    4b40:	01c4a703          	lw	x14,28(x9)
    4b44:	00100513          	li	x10,1
    4b48:	06e5f663          	bgeu	x11,x14,4bb4 <get_fat+0x98>
    4b4c:	0004c703          	lbu	x14,0(x9)
    4b50:	00300693          	li	x13,3
    4b54:	16d70463          	beq	x14,x13,4cbc <get_fat+0x1a0>
    4b58:	06e6e863          	bltu	x13,x14,4bc8 <get_fat+0xac>
    4b5c:	00100793          	li	x15,1
    4b60:	0af70a63          	beq	x14,x15,4c14 <get_fat+0xf8>
    4b64:	00200793          	li	x15,2
    4b68:	04f71663          	bne	x14,x15,4bb4 <get_fat+0x98>
    4b6c:	0085d593          	srl	x11,x11,0x8
    4b70:	0284a783          	lw	x15,40(x9)
    4b74:	00f585b3          	add	x11,x11,x15
    4b78:	00048513          	mv	x10,x9
    4b7c:	a50ff0ef          	jal	3dcc <move_window>
    4b80:	00050793          	mv	x15,x10
    4b84:	fff00513          	li	x10,-1
    4b88:	02079663          	bnez	x15,4bb4 <get_fat+0x98>
    4b8c:	03c48493          	add	x9,x9,60
    4b90:	00141413          	sll	x8,x8,0x1
    4b94:	1fe47413          	and	x8,x8,510
    4b98:	008484b3          	add	x9,x9,x8
    4b9c:	0014c503          	lbu	x10,1(x9)
    4ba0:	00851513          	sll	x10,x10,0x8
    4ba4:	0004c783          	lbu	x15,0(x9)
    4ba8:	00f56533          	or	x10,x10,x15
    4bac:	01051513          	sll	x10,x10,0x10
    4bb0:	01055513          	srl	x10,x10,0x10
    4bb4:	01c12083          	lw	x1,28(x2)
    4bb8:	01812403          	lw	x8,24(x2)
    4bbc:	01412483          	lw	x9,20(x2)
    4bc0:	02010113          	add	x2,x2,32
    4bc4:	00008067          	ret
    4bc8:	00400693          	li	x13,4
    4bcc:	00100513          	li	x10,1
    4bd0:	fed712e3          	bne	x14,x13,4bb4 <get_fat+0x98>
    4bd4:	0107a683          	lw	x13,16(x15)
    4bd8:	0147a703          	lw	x14,20(x15)
    4bdc:	00e6e633          	or	x12,x13,x14
    4be0:	00060a63          	beqz	x12,4bf4 <get_fat+0xd8>
    4be4:	01212823          	sw	x18,16(x2)
    4be8:	0087a603          	lw	x12,8(x15)
    4bec:	10061863          	bnez	x12,4cfc <get_fat+0x1e0>
    4bf0:	01012903          	lw	x18,16(x2)
    4bf4:	0077c703          	lbu	x14,7(x15)
    4bf8:	00100513          	li	x10,1
    4bfc:	fa071ce3          	bnez	x14,4bb4 <get_fat+0x98>
    4c00:	01c7a783          	lw	x15,28(x15)
    4c04:	16078463          	beqz	x15,4d6c <get_fat+0x250>
    4c08:	80000537          	lui	x10,0x80000
    4c0c:	fff50513          	add	x10,x10,-1 # 7fffffff <STACK_TOP+0x7fefffff>
    4c10:	fa5ff06f          	j	4bb4 <get_fat+0x98>
    4c14:	01212823          	sw	x18,16(x2)
    4c18:	0015d913          	srl	x18,x11,0x1
    4c1c:	00b90933          	add	x18,x18,x11
    4c20:	00995593          	srl	x11,x18,0x9
    4c24:	0284a783          	lw	x15,40(x9)
    4c28:	00f585b3          	add	x11,x11,x15
    4c2c:	00048513          	mv	x10,x9
    4c30:	99cff0ef          	jal	3dcc <move_window>
    4c34:	00050793          	mv	x15,x10
    4c38:	fff00513          	li	x10,-1
    4c3c:	00078663          	beqz	x15,4c48 <get_fat+0x12c>
    4c40:	01012903          	lw	x18,16(x2)
    4c44:	f71ff06f          	j	4bb4 <get_fat+0x98>
    4c48:	01312623          	sw	x19,12(x2)
    4c4c:	00190993          	add	x19,x18,1
    4c50:	1ff97913          	and	x18,x18,511
    4c54:	01248933          	add	x18,x9,x18
    4c58:	03c94903          	lbu	x18,60(x18)
    4c5c:	0099d593          	srl	x11,x19,0x9
    4c60:	0284a783          	lw	x15,40(x9)
    4c64:	00f585b3          	add	x11,x11,x15
    4c68:	00048513          	mv	x10,x9
    4c6c:	960ff0ef          	jal	3dcc <move_window>
    4c70:	00050793          	mv	x15,x10
    4c74:	fff00513          	li	x10,-1
    4c78:	14079a63          	bnez	x15,4dcc <get_fat+0x2b0>
    4c7c:	1ff9f993          	and	x19,x19,511
    4c80:	013489b3          	add	x19,x9,x19
    4c84:	03c9c503          	lbu	x10,60(x19)
    4c88:	00851513          	sll	x10,x10,0x8
    4c8c:	01256533          	or	x10,x10,x18
    4c90:	00147413          	and	x8,x8,1
    4c94:	00040a63          	beqz	x8,4ca8 <get_fat+0x18c>
    4c98:	00455513          	srl	x10,x10,0x4
    4c9c:	01012903          	lw	x18,16(x2)
    4ca0:	00c12983          	lw	x19,12(x2)
    4ca4:	f11ff06f          	j	4bb4 <get_fat+0x98>
    4ca8:	01451513          	sll	x10,x10,0x14
    4cac:	01455513          	srl	x10,x10,0x14
    4cb0:	01012903          	lw	x18,16(x2)
    4cb4:	00c12983          	lw	x19,12(x2)
    4cb8:	efdff06f          	j	4bb4 <get_fat+0x98>
    4cbc:	0075d593          	srl	x11,x11,0x7
    4cc0:	0284a783          	lw	x15,40(x9)
    4cc4:	00f585b3          	add	x11,x11,x15
    4cc8:	00048513          	mv	x10,x9
    4ccc:	900ff0ef          	jal	3dcc <move_window>
    4cd0:	00050793          	mv	x15,x10
    4cd4:	fff00513          	li	x10,-1
    4cd8:	ec079ee3          	bnez	x15,4bb4 <get_fat+0x98>
    4cdc:	03c48513          	add	x10,x9,60
    4ce0:	00241413          	sll	x8,x8,0x2
    4ce4:	1fc47413          	and	x8,x8,508
    4ce8:	00850533          	add	x10,x10,x8
    4cec:	9e5fe0ef          	jal	36d0 <ld_dword>
    4cf0:	00451513          	sll	x10,x10,0x4
    4cf4:	00455513          	srl	x10,x10,0x4
    4cf8:	ebdff06f          	j	4bb4 <get_fat+0x98>
    4cfc:	40c58933          	sub	x18,x11,x12
    4d00:	0077c603          	lbu	x12,7(x15)
    4d04:	00200593          	li	x11,2
    4d08:	02b60063          	beq	x12,x11,4d28 <get_fat+0x20c>
    4d0c:	00300713          	li	x14,3
    4d10:	0ae61a63          	bne	x12,x14,4dc4 <get_fat+0x2a8>
    4d14:	0187a703          	lw	x14,24(x15)
    4d18:	04e97663          	bgeu	x18,x14,4d64 <get_fat+0x248>
    4d1c:	00140513          	add	x10,x8,1
    4d20:	01012903          	lw	x18,16(x2)
    4d24:	e91ff06f          	j	4bb4 <get_fat+0x98>
    4d28:	fff68513          	add	x10,x13,-1
    4d2c:	0016b693          	seqz	x13,x13
    4d30:	40d707b3          	sub	x15,x14,x13
    4d34:	01779793          	sll	x15,x15,0x17
    4d38:	00955513          	srl	x10,x10,0x9
    4d3c:	00a4d583          	lhu	x11,10(x9)
    4d40:	00a7e533          	or	x10,x15,x10
    4d44:	069060ef          	jal	b5ac <__hidden___udivsi3>
    4d48:	00050793          	mv	x15,x10
    4d4c:	00100513          	li	x10,1
    4d50:	0927e463          	bltu	x15,x18,4dd8 <get_fat+0x2bc>
    4d54:	06f90063          	beq	x18,x15,4db4 <get_fat+0x298>
    4d58:	00140513          	add	x10,x8,1
    4d5c:	01012903          	lw	x18,16(x2)
    4d60:	e55ff06f          	j	4bb4 <get_fat+0x98>
    4d64:	01012903          	lw	x18,16(x2)
    4d68:	e99ff06f          	j	4c00 <get_fat+0xe4>
    4d6c:	00745793          	srl	x15,x8,0x7
    4d70:	0284a583          	lw	x11,40(x9)
    4d74:	00b785b3          	add	x11,x15,x11
    4d78:	00048513          	mv	x10,x9
    4d7c:	850ff0ef          	jal	3dcc <move_window>
    4d80:	00050793          	mv	x15,x10
    4d84:	fff00513          	li	x10,-1
    4d88:	e20796e3          	bnez	x15,4bb4 <get_fat+0x98>
    4d8c:	03c48513          	add	x10,x9,60
    4d90:	00241793          	sll	x15,x8,0x2
    4d94:	1fc7f793          	and	x15,x15,508
    4d98:	00f50533          	add	x10,x10,x15
    4d9c:	935fe0ef          	jal	36d0 <ld_dword>
    4da0:	00151513          	sll	x10,x10,0x1
    4da4:	00155513          	srl	x10,x10,0x1
    4da8:	e0dff06f          	j	4bb4 <get_fat+0x98>
    4dac:	00100513          	li	x10,1
    4db0:	00008067          	ret
    4db4:	80000537          	lui	x10,0x80000
    4db8:	fff50513          	add	x10,x10,-1 # 7fffffff <STACK_TOP+0x7fefffff>
    4dbc:	01012903          	lw	x18,16(x2)
    4dc0:	df5ff06f          	j	4bb4 <get_fat+0x98>
    4dc4:	01012903          	lw	x18,16(x2)
    4dc8:	e39ff06f          	j	4c00 <get_fat+0xe4>
    4dcc:	01012903          	lw	x18,16(x2)
    4dd0:	00c12983          	lw	x19,12(x2)
    4dd4:	de1ff06f          	j	4bb4 <get_fat+0x98>
    4dd8:	01012903          	lw	x18,16(x2)
    4ddc:	dd9ff06f          	j	4bb4 <get_fat+0x98>

00004de0 <dir_sdi>:
    4de0:	fd010113          	add	x2,x2,-48
    4de4:	02112623          	sw	x1,44(x2)
    4de8:	03212023          	sw	x18,32(x2)
    4dec:	01312e23          	sw	x19,28(x2)
    4df0:	01412c23          	sw	x20,24(x2)
    4df4:	01512a23          	sw	x21,20(x2)
    4df8:	00050993          	mv	x19,x10
    4dfc:	00058913          	mv	x18,x11
    4e00:	00052a03          	lw	x20,0(x10)
    4e04:	000a4683          	lbu	x13,0(x20)
    4e08:	00400713          	li	x14,4
    4e0c:	002007b7          	lui	x15,0x200
    4e10:	04e68463          	beq	x13,x14,4e58 <dir_sdi+0x78>
    4e14:	00200a93          	li	x21,2
    4e18:	08f97263          	bgeu	x18,x15,4e9c <dir_sdi+0xbc>
    4e1c:	01f97a93          	and	x21,x18,31
    4e20:	100a9063          	bnez	x21,4f20 <dir_sdi+0x140>
    4e24:	02812423          	sw	x8,40(x2)
    4e28:	0329a823          	sw	x18,48(x19)
    4e2c:	0089a403          	lw	x8,8(x19)
    4e30:	08041663          	bnez	x8,4ebc <dir_sdi+0xdc>
    4e34:	000a4703          	lbu	x14,0(x20)
    4e38:	00200793          	li	x15,2
    4e3c:	02e7f263          	bgeu	x15,x14,4e60 <dir_sdi+0x80>
    4e40:	02ca2783          	lw	x15,44(x20)
    4e44:	000983a3          	sb	x0,7(x19)
    4e48:	00078c63          	beqz	x15,4e60 <dir_sdi+0x80>
    4e4c:	02912223          	sw	x9,36(x2)
    4e50:	00078413          	mv	x8,x15
    4e54:	06c0006f          	j	4ec0 <dir_sdi+0xe0>
    4e58:	100007b7          	lui	x15,0x10000
    4e5c:	fb9ff06f          	j	4e14 <dir_sdi+0x34>
    4e60:	00595793          	srl	x15,x18,0x5
    4e64:	008a5703          	lhu	x14,8(x20)
    4e68:	0ce7f063          	bgeu	x15,x14,4f28 <dir_sdi+0x148>
    4e6c:	02ca2503          	lw	x10,44(x20)
    4e70:	02a9ac23          	sw	x10,56(x19)
    4e74:	0289aa23          	sw	x8,52(x19)
    4e78:	10050263          	beqz	x10,4f7c <dir_sdi+0x19c>
    4e7c:	00995793          	srl	x15,x18,0x9
    4e80:	00a787b3          	add	x15,x15,x10
    4e84:	02f9ac23          	sw	x15,56(x19)
    4e88:	03ca0a13          	add	x20,x20,60
    4e8c:	1ff97593          	and	x11,x18,511
    4e90:	00ba0a33          	add	x20,x20,x11
    4e94:	0349ae23          	sw	x20,60(x19)
    4e98:	02812403          	lw	x8,40(x2)
    4e9c:	000a8513          	mv	x10,x21
    4ea0:	02c12083          	lw	x1,44(x2)
    4ea4:	02012903          	lw	x18,32(x2)
    4ea8:	01c12983          	lw	x19,28(x2)
    4eac:	01812a03          	lw	x20,24(x2)
    4eb0:	01412a83          	lw	x21,20(x2)
    4eb4:	03010113          	add	x2,x2,48
    4eb8:	00008067          	ret
    4ebc:	02912223          	sw	x9,36(x2)
    4ec0:	00aa5483          	lhu	x9,10(x20)
    4ec4:	00949493          	sll	x9,x9,0x9
    4ec8:	04996263          	bltu	x18,x9,4f0c <dir_sdi+0x12c>
    4ecc:	01612823          	sw	x22,16(x2)
    4ed0:	01712623          	sw	x23,12(x2)
    4ed4:	fff00b13          	li	x22,-1
    4ed8:	00100b93          	li	x23,1
    4edc:	00040593          	mv	x11,x8
    4ee0:	00098513          	mv	x10,x19
    4ee4:	c39ff0ef          	jal	4b1c <get_fat>
    4ee8:	00050413          	mv	x8,x10
    4eec:	05650463          	beq	x10,x22,4f34 <dir_sdi+0x154>
    4ef0:	04abfe63          	bgeu	x23,x10,4f4c <dir_sdi+0x16c>
    4ef4:	01ca2783          	lw	x15,28(x20)
    4ef8:	06f57663          	bgeu	x10,x15,4f64 <dir_sdi+0x184>
    4efc:	40990933          	sub	x18,x18,x9
    4f00:	fc997ee3          	bgeu	x18,x9,4edc <dir_sdi+0xfc>
    4f04:	01012b03          	lw	x22,16(x2)
    4f08:	00c12b83          	lw	x23,12(x2)
    4f0c:	00040593          	mv	x11,x8
    4f10:	000a0513          	mv	x10,x20
    4f14:	8a9fe0ef          	jal	37bc <clst2sect>
    4f18:	02412483          	lw	x9,36(x2)
    4f1c:	f55ff06f          	j	4e70 <dir_sdi+0x90>
    4f20:	00200a93          	li	x21,2
    4f24:	f79ff06f          	j	4e9c <dir_sdi+0xbc>
    4f28:	00200a93          	li	x21,2
    4f2c:	02812403          	lw	x8,40(x2)
    4f30:	f6dff06f          	j	4e9c <dir_sdi+0xbc>
    4f34:	00100a93          	li	x21,1
    4f38:	02812403          	lw	x8,40(x2)
    4f3c:	02412483          	lw	x9,36(x2)
    4f40:	01012b03          	lw	x22,16(x2)
    4f44:	00c12b83          	lw	x23,12(x2)
    4f48:	f55ff06f          	j	4e9c <dir_sdi+0xbc>
    4f4c:	00200a93          	li	x21,2
    4f50:	02812403          	lw	x8,40(x2)
    4f54:	02412483          	lw	x9,36(x2)
    4f58:	01012b03          	lw	x22,16(x2)
    4f5c:	00c12b83          	lw	x23,12(x2)
    4f60:	f3dff06f          	j	4e9c <dir_sdi+0xbc>
    4f64:	00200a93          	li	x21,2
    4f68:	02812403          	lw	x8,40(x2)
    4f6c:	02412483          	lw	x9,36(x2)
    4f70:	01012b03          	lw	x22,16(x2)
    4f74:	00c12b83          	lw	x23,12(x2)
    4f78:	f25ff06f          	j	4e9c <dir_sdi+0xbc>
    4f7c:	00200a93          	li	x21,2
    4f80:	02812403          	lw	x8,40(x2)
    4f84:	f19ff06f          	j	4e9c <dir_sdi+0xbc>

00004f88 <create_chain>:
    4f88:	fd010113          	add	x2,x2,-48
    4f8c:	02112623          	sw	x1,44(x2)
    4f90:	02812423          	sw	x8,40(x2)
    4f94:	02912223          	sw	x9,36(x2)
    4f98:	03212023          	sw	x18,32(x2)
    4f9c:	01312e23          	sw	x19,28(x2)
    4fa0:	00050913          	mv	x18,x10
    4fa4:	00058993          	mv	x19,x11
    4fa8:	00052483          	lw	x9,0(x10)
    4fac:	00059e63          	bnez	x11,4fc8 <create_chain+0x40>
    4fb0:	0144a403          	lw	x8,20(x9)
    4fb4:	02040c63          	beqz	x8,4fec <create_chain+0x64>
    4fb8:	01c4a783          	lw	x15,28(x9)
    4fbc:	02f46a63          	bltu	x8,x15,4ff0 <create_chain+0x68>
    4fc0:	00100413          	li	x8,1
    4fc4:	02c0006f          	j	4ff0 <create_chain+0x68>
    4fc8:	b55ff0ef          	jal	4b1c <get_fat>
    4fcc:	00100793          	li	x15,1
    4fd0:	38a7f263          	bgeu	x15,x10,5354 <create_chain+0x3cc>
    4fd4:	fff00793          	li	x15,-1
    4fd8:	32f50663          	beq	x10,x15,5304 <create_chain+0x37c>
    4fdc:	01c4a783          	lw	x15,28(x9)
    4fe0:	00098413          	mv	x8,x19
    4fe4:	00f57663          	bgeu	x10,x15,4ff0 <create_chain+0x68>
    4fe8:	31c0006f          	j	5304 <create_chain+0x37c>
    4fec:	00100413          	li	x8,1
    4ff0:	0184a503          	lw	x10,24(x9)
    4ff4:	30050863          	beqz	x10,5304 <create_chain+0x37c>
    4ff8:	01512a23          	sw	x21,20(x2)
    4ffc:	0004c703          	lbu	x14,0(x9)
    5000:	00400793          	li	x15,4
    5004:	02f70063          	beq	x14,x15,5024 <create_chain+0x9c>
    5008:	1d340c63          	beq	x8,x19,51e0 <create_chain+0x258>
    500c:	01412c23          	sw	x20,24(x2)
    5010:	01612823          	sw	x22,16(x2)
    5014:	00040a93          	mv	x21,x8
    5018:	00100a13          	li	x20,1
    501c:	fff00b13          	li	x22,-1
    5020:	2940006f          	j	52b4 <create_chain+0x32c>
    5024:	01412c23          	sw	x20,24(x2)
    5028:	01612823          	sw	x22,16(x2)
    502c:	01712623          	sw	x23,12(x2)
    5030:	01812423          	sw	x24,8(x2)
    5034:	ffe40a93          	add	x21,x8,-2
    5038:	01c4a783          	lw	x15,28(x9)
    503c:	ffe78793          	add	x15,x15,-2 # ffffffe <STACK_TOP+0xfeffffe>
    5040:	00fab7b3          	sltu	x15,x21,x15
    5044:	40f007b3          	neg	x15,x15
    5048:	00fafab3          	and	x21,x21,x15
    504c:	000a8a13          	mv	x20,x21
    5050:	00100b13          	li	x22,1
    5054:	00000b93          	li	x23,0
    5058:	1ff00c13          	li	x24,511
    505c:	00ca5593          	srl	x11,x20,0xc
    5060:	0344a783          	lw	x15,52(x9)
    5064:	00f585b3          	add	x11,x11,x15
    5068:	00048513          	mv	x10,x9
    506c:	d61fe0ef          	jal	3dcc <move_window>
    5070:	34051663          	bnez	x10,53bc <create_chain+0x434>
    5074:	003a5613          	srl	x12,x20,0x3
    5078:	1ff67613          	and	x12,x12,511
    507c:	007a7793          	and	x15,x20,7
    5080:	00fb17b3          	sll	x15,x22,x15
    5084:	0ff7f793          	zext.b	x15,x15
    5088:	01c4a583          	lw	x11,28(x9)
    508c:	ffe58593          	add	x11,x11,-2
    5090:	00050813          	mv	x16,x10
    5094:	02c0006f          	j	50c0 <create_chain+0x138>
    5098:	00080713          	mv	x14,x16
    509c:	20000613          	li	x12,512
    50a0:	000b8793          	mv	x15,x23
    50a4:	0380006f          	j	50dc <create_chain+0x154>
    50a8:	32ea8863          	beq	x21,x14,53d8 <create_chain+0x450>
    50ac:	00079863          	bnez	x15,50bc <create_chain+0x134>
    50b0:	00160613          	add	x12,x12,1
    50b4:	08cc6a63          	bltu	x24,x12,5148 <create_chain+0x1c0>
    50b8:	000b0793          	mv	x15,x22
    50bc:	00070a13          	mv	x20,x14
    50c0:	00c48733          	add	x14,x9,x12
    50c4:	03c74683          	lbu	x13,60(x14)
    50c8:	00d7f6b3          	and	x13,x15,x13
    50cc:	001a0713          	add	x14,x20,1
    50d0:	fcb774e3          	bgeu	x14,x11,5098 <create_chain+0x110>
    50d4:	00179793          	sll	x15,x15,0x1
    50d8:	0ff7f793          	zext.b	x15,x15
    50dc:	fc0696e3          	bnez	x13,50a8 <create_chain+0x120>
    50e0:	002a0a93          	add	x21,x20,2
    50e4:	001a0a13          	add	x20,x20,1
    50e8:	ffd00793          	li	x15,-3
    50ec:	2747e863          	bltu	x15,x20,535c <create_chain+0x3d4>
    50f0:	00100693          	li	x13,1
    50f4:	00100613          	li	x12,1
    50f8:	000a8593          	mv	x11,x21
    50fc:	00048513          	mv	x10,x9
    5100:	d39fe0ef          	jal	3e38 <change_bitmap>
    5104:	00050793          	mv	x15,x10
    5108:	00200713          	li	x14,2
    510c:	00100513          	li	x10,1
    5110:	2ee78063          	beq	x15,x14,53f0 <create_chain+0x468>
    5114:	00100713          	li	x14,1
    5118:	26e78063          	beq	x15,x14,5378 <create_chain+0x3f0>
    511c:	02099a63          	bnez	x19,5150 <create_chain+0x1c8>
    5120:	00200713          	li	x14,2
    5124:	00e903a3          	sb	x14,7(x18)
    5128:	1e078c63          	beqz	x15,5320 <create_chain+0x398>
    512c:	00100513          	li	x10,1
    5130:	01812a03          	lw	x20,24(x2)
    5134:	01412a83          	lw	x21,20(x2)
    5138:	01012b03          	lw	x22,16(x2)
    513c:	00c12b83          	lw	x23,12(x2)
    5140:	00812c03          	lw	x24,8(x2)
    5144:	1c00006f          	j	5304 <create_chain+0x37c>
    5148:	00070a13          	mv	x20,x14
    514c:	f11ff06f          	j	505c <create_chain+0xd4>
    5150:	00794683          	lbu	x13,7(x18)
    5154:	00200713          	li	x14,2
    5158:	04e68863          	beq	x13,x14,51a8 <create_chain+0x220>
    515c:	00198713          	add	x14,x19,1
    5160:	07570463          	beq	x14,x21,51c8 <create_chain+0x240>
    5164:	01c92783          	lw	x15,28(x18)
    5168:	00079663          	bnez	x15,5174 <create_chain+0x1ec>
    516c:	00100793          	li	x15,1
    5170:	00f92e23          	sw	x15,28(x18)
    5174:	000a8613          	mv	x12,x21
    5178:	00098593          	mv	x11,x19
    517c:	00090513          	mv	x10,x18
    5180:	bc4ff0ef          	jal	4544 <fill_last_frag>
    5184:	00050793          	mv	x15,x10
    5188:	1a051663          	bnez	x10,5334 <create_chain+0x3ac>
    518c:	00100793          	li	x15,1
    5190:	00f92e23          	sw	x15,28(x18)
    5194:	01812a03          	lw	x20,24(x2)
    5198:	01012b03          	lw	x22,16(x2)
    519c:	00c12b83          	lw	x23,12(x2)
    51a0:	00812c03          	lw	x24,8(x2)
    51a4:	0b00006f          	j	5254 <create_chain+0x2cc>
    51a8:	00140713          	add	x14,x8,1
    51ac:	f7570ee3          	beq	x14,x21,5128 <create_chain+0x1a0>
    51b0:	00892703          	lw	x14,8(x18)
    51b4:	40e40733          	sub	x14,x8,x14
    51b8:	00e92c23          	sw	x14,24(x18)
    51bc:	00300713          	li	x14,3
    51c0:	00e903a3          	sb	x14,7(x18)
    51c4:	f99ff06f          	j	515c <create_chain+0x1d4>
    51c8:	01c92683          	lw	x13,28(x18)
    51cc:	00200713          	li	x14,2
    51d0:	00068463          	beqz	x13,51d8 <create_chain+0x250>
    51d4:	00168713          	add	x14,x13,1
    51d8:	00e92e23          	sw	x14,28(x18)
    51dc:	f4dff06f          	j	5128 <create_chain+0x1a0>
    51e0:	00140a93          	add	x21,x8,1
    51e4:	01c4a783          	lw	x15,28(x9)
    51e8:	00fae463          	bltu	x21,x15,51f0 <create_chain+0x268>
    51ec:	00200a93          	li	x21,2
    51f0:	000a8593          	mv	x11,x21
    51f4:	00090513          	mv	x10,x18
    51f8:	925ff0ef          	jal	4b1c <get_fat>
    51fc:	00100793          	li	x15,1
    5200:	20f50463          	beq	x10,x15,5408 <create_chain+0x480>
    5204:	fff00793          	li	x15,-1
    5208:	20f50463          	beq	x10,x15,5410 <create_chain+0x488>
    520c:	02050463          	beqz	x10,5234 <create_chain+0x2ac>
    5210:	01412c23          	sw	x20,24(x2)
    5214:	01612823          	sw	x22,16(x2)
    5218:	0144a783          	lw	x15,20(x9)
    521c:	00100713          	li	x14,1
    5220:	def77ae3          	bgeu	x14,x15,5014 <create_chain+0x8c>
    5224:	01c4a703          	lw	x14,28(x9)
    5228:	dee7f6e3          	bgeu	x15,x14,5014 <create_chain+0x8c>
    522c:	00078413          	mv	x8,x15
    5230:	de5ff06f          	j	5014 <create_chain+0x8c>
    5234:	040a8a63          	beqz	x21,5288 <create_chain+0x300>
    5238:	fff00613          	li	x12,-1
    523c:	000a8593          	mv	x11,x21
    5240:	00048513          	mv	x10,x9
    5244:	80cff0ef          	jal	4250 <put_fat>
    5248:	00050793          	mv	x15,x10
    524c:	0a051463          	bnez	x10,52f4 <create_chain+0x36c>
    5250:	08099663          	bnez	x19,52dc <create_chain+0x354>
    5254:	0154aa23          	sw	x21,20(x9)
    5258:	0184a703          	lw	x14,24(x9)
    525c:	01c4a783          	lw	x15,28(x9)
    5260:	ffe78793          	add	x15,x15,-2
    5264:	00e7e663          	bltu	x15,x14,5270 <create_chain+0x2e8>
    5268:	fff70713          	add	x14,x14,-1
    526c:	00e4ac23          	sw	x14,24(x9)
    5270:	0054c783          	lbu	x15,5(x9)
    5274:	0017e793          	or	x15,x15,1
    5278:	00f482a3          	sb	x15,5(x9)
    527c:	000a8513          	mv	x10,x21
    5280:	01412a83          	lw	x21,20(x2)
    5284:	0800006f          	j	5304 <create_chain+0x37c>
    5288:	01412c23          	sw	x20,24(x2)
    528c:	01612823          	sw	x22,16(x2)
    5290:	00040a93          	mv	x21,x8
    5294:	d85ff06f          	j	5018 <create_chain+0x90>
    5298:	00040593          	mv	x11,x8
    529c:	00090513          	mv	x10,x18
    52a0:	87dff0ef          	jal	4b1c <get_fat>
    52a4:	02050463          	beqz	x10,52cc <create_chain+0x344>
    52a8:	17450863          	beq	x10,x20,5418 <create_chain+0x490>
    52ac:	17650e63          	beq	x10,x22,5428 <create_chain+0x4a0>
    52b0:	0f540c63          	beq	x8,x21,53a8 <create_chain+0x420>
    52b4:	00140413          	add	x8,x8,1
    52b8:	01c4a783          	lw	x15,28(x9)
    52bc:	fcf46ee3          	bltu	x8,x15,5298 <create_chain+0x310>
    52c0:	0d5a7a63          	bgeu	x20,x21,5394 <create_chain+0x40c>
    52c4:	00200413          	li	x8,2
    52c8:	fd1ff06f          	j	5298 <create_chain+0x310>
    52cc:	00040a93          	mv	x21,x8
    52d0:	01812a03          	lw	x20,24(x2)
    52d4:	01012b03          	lw	x22,16(x2)
    52d8:	f61ff06f          	j	5238 <create_chain+0x2b0>
    52dc:	000a8613          	mv	x12,x21
    52e0:	00098593          	mv	x11,x19
    52e4:	00048513          	mv	x10,x9
    52e8:	f69fe0ef          	jal	4250 <put_fat>
    52ec:	00050793          	mv	x15,x10
    52f0:	f60502e3          	beqz	x10,5254 <create_chain+0x2cc>
    52f4:	00100713          	li	x14,1
    52f8:	00100513          	li	x10,1
    52fc:	04e78663          	beq	x15,x14,5348 <create_chain+0x3c0>
    5300:	01412a83          	lw	x21,20(x2)
    5304:	02c12083          	lw	x1,44(x2)
    5308:	02812403          	lw	x8,40(x2)
    530c:	02412483          	lw	x9,36(x2)
    5310:	02012903          	lw	x18,32(x2)
    5314:	01c12983          	lw	x19,28(x2)
    5318:	03010113          	add	x2,x2,48
    531c:	00008067          	ret
    5320:	01812a03          	lw	x20,24(x2)
    5324:	01012b03          	lw	x22,16(x2)
    5328:	00c12b83          	lw	x23,12(x2)
    532c:	00812c03          	lw	x24,8(x2)
    5330:	f25ff06f          	j	5254 <create_chain+0x2cc>
    5334:	01812a03          	lw	x20,24(x2)
    5338:	01012b03          	lw	x22,16(x2)
    533c:	00c12b83          	lw	x23,12(x2)
    5340:	00812c03          	lw	x24,8(x2)
    5344:	fb1ff06f          	j	52f4 <create_chain+0x36c>
    5348:	fff00513          	li	x10,-1
    534c:	01412a83          	lw	x21,20(x2)
    5350:	fb5ff06f          	j	5304 <create_chain+0x37c>
    5354:	00100513          	li	x10,1
    5358:	fadff06f          	j	5304 <create_chain+0x37c>
    535c:	000a8513          	mv	x10,x21
    5360:	01812a03          	lw	x20,24(x2)
    5364:	01412a83          	lw	x21,20(x2)
    5368:	01012b03          	lw	x22,16(x2)
    536c:	00c12b83          	lw	x23,12(x2)
    5370:	00812c03          	lw	x24,8(x2)
    5374:	f91ff06f          	j	5304 <create_chain+0x37c>
    5378:	fff00513          	li	x10,-1
    537c:	01812a03          	lw	x20,24(x2)
    5380:	01412a83          	lw	x21,20(x2)
    5384:	01012b03          	lw	x22,16(x2)
    5388:	00c12b83          	lw	x23,12(x2)
    538c:	00812c03          	lw	x24,8(x2)
    5390:	f75ff06f          	j	5304 <create_chain+0x37c>
    5394:	00000513          	li	x10,0
    5398:	01812a03          	lw	x20,24(x2)
    539c:	01412a83          	lw	x21,20(x2)
    53a0:	01012b03          	lw	x22,16(x2)
    53a4:	f61ff06f          	j	5304 <create_chain+0x37c>
    53a8:	00000513          	li	x10,0
    53ac:	01812a03          	lw	x20,24(x2)
    53b0:	01412a83          	lw	x21,20(x2)
    53b4:	01012b03          	lw	x22,16(x2)
    53b8:	f4dff06f          	j	5304 <create_chain+0x37c>
    53bc:	fff00513          	li	x10,-1
    53c0:	01812a03          	lw	x20,24(x2)
    53c4:	01412a83          	lw	x21,20(x2)
    53c8:	01012b03          	lw	x22,16(x2)
    53cc:	00c12b83          	lw	x23,12(x2)
    53d0:	00812c03          	lw	x24,8(x2)
    53d4:	f31ff06f          	j	5304 <create_chain+0x37c>
    53d8:	01812a03          	lw	x20,24(x2)
    53dc:	01412a83          	lw	x21,20(x2)
    53e0:	01012b03          	lw	x22,16(x2)
    53e4:	00c12b83          	lw	x23,12(x2)
    53e8:	00812c03          	lw	x24,8(x2)
    53ec:	f19ff06f          	j	5304 <create_chain+0x37c>
    53f0:	01812a03          	lw	x20,24(x2)
    53f4:	01412a83          	lw	x21,20(x2)
    53f8:	01012b03          	lw	x22,16(x2)
    53fc:	00c12b83          	lw	x23,12(x2)
    5400:	00812c03          	lw	x24,8(x2)
    5404:	f01ff06f          	j	5304 <create_chain+0x37c>
    5408:	01412a83          	lw	x21,20(x2)
    540c:	ef9ff06f          	j	5304 <create_chain+0x37c>
    5410:	01412a83          	lw	x21,20(x2)
    5414:	ef1ff06f          	j	5304 <create_chain+0x37c>
    5418:	01812a03          	lw	x20,24(x2)
    541c:	01412a83          	lw	x21,20(x2)
    5420:	01012b03          	lw	x22,16(x2)
    5424:	ee1ff06f          	j	5304 <create_chain+0x37c>
    5428:	01812a03          	lw	x20,24(x2)
    542c:	01412a83          	lw	x21,20(x2)
    5430:	01012b03          	lw	x22,16(x2)
    5434:	ed1ff06f          	j	5304 <create_chain+0x37c>

00005438 <remove_chain>:
    5438:	fd010113          	add	x2,x2,-48
    543c:	02112623          	sw	x1,44(x2)
    5440:	02912223          	sw	x9,36(x2)
    5444:	00052483          	lw	x9,0(x10)
    5448:	00100793          	li	x15,1
    544c:	24b7fa63          	bgeu	x15,x11,56a0 <remove_chain+0x268>
    5450:	02812423          	sw	x8,40(x2)
    5454:	01312e23          	sw	x19,28(x2)
    5458:	01812423          	sw	x24,8(x2)
    545c:	00050993          	mv	x19,x10
    5460:	00058413          	mv	x8,x11
    5464:	00060c13          	mv	x24,x12
    5468:	01c4a783          	lw	x15,28(x9)
    546c:	00200513          	li	x10,2
    5470:	32f5f863          	bgeu	x11,x15,57a0 <remove_chain+0x368>
    5474:	02060863          	beqz	x12,54a4 <remove_chain+0x6c>
    5478:	0004c703          	lbu	x14,0(x9)
    547c:	00400793          	li	x15,4
    5480:	00f71863          	bne	x14,x15,5490 <remove_chain+0x58>
    5484:	0079c703          	lbu	x14,7(x19)
    5488:	00200793          	li	x15,2
    548c:	00f70c63          	beq	x14,x15,54a4 <remove_chain+0x6c>
    5490:	fff00613          	li	x12,-1
    5494:	000c0593          	mv	x11,x24
    5498:	00048513          	mv	x10,x9
    549c:	db5fe0ef          	jal	4250 <put_fat>
    54a0:	30051e63          	bnez	x10,57bc <remove_chain+0x384>
    54a4:	03212023          	sw	x18,32(x2)
    54a8:	01412c23          	sw	x20,24(x2)
    54ac:	01512a23          	sw	x21,20(x2)
    54b0:	01612823          	sw	x22,16(x2)
    54b4:	01712623          	sw	x23,12(x2)
    54b8:	00040b93          	mv	x23,x8
    54bc:	00100a93          	li	x21,1
    54c0:	fff00b13          	li	x22,-1
    54c4:	00400a13          	li	x20,4
    54c8:	0580006f          	j	5520 <remove_chain+0xe8>
    54cc:	00000613          	li	x12,0
    54d0:	00090593          	mv	x11,x18
    54d4:	00048513          	mv	x10,x9
    54d8:	d79fe0ef          	jal	4250 <put_fat>
    54dc:	06050663          	beqz	x10,5548 <remove_chain+0x110>
    54e0:	02812403          	lw	x8,40(x2)
    54e4:	02012903          	lw	x18,32(x2)
    54e8:	01c12983          	lw	x19,28(x2)
    54ec:	01812a03          	lw	x20,24(x2)
    54f0:	01412a83          	lw	x21,20(x2)
    54f4:	01012b03          	lw	x22,16(x2)
    54f8:	00c12b83          	lw	x23,12(x2)
    54fc:	00812c03          	lw	x24,8(x2)
    5500:	2ac0006f          	j	57ac <remove_chain+0x374>
    5504:	00190913          	add	x18,x18,1
    5508:	00890863          	beq	x18,x8,5518 <remove_chain+0xe0>
    550c:	0004c783          	lbu	x15,0(x9)
    5510:	07478063          	beq	x15,x20,5570 <remove_chain+0x138>
    5514:	00040b93          	mv	x23,x8
    5518:	01c4a783          	lw	x15,28(x9)
    551c:	06f47a63          	bgeu	x8,x15,5590 <remove_chain+0x158>
    5520:	00040913          	mv	x18,x8
    5524:	00040593          	mv	x11,x8
    5528:	00098513          	mv	x10,x19
    552c:	df0ff0ef          	jal	4b1c <get_fat>
    5530:	00050413          	mv	x8,x10
    5534:	04050e63          	beqz	x10,5590 <remove_chain+0x158>
    5538:	17550863          	beq	x10,x21,56a8 <remove_chain+0x270>
    553c:	19650a63          	beq	x10,x22,56d0 <remove_chain+0x298>
    5540:	0004c783          	lbu	x15,0(x9)
    5544:	f94794e3          	bne	x15,x20,54cc <remove_chain+0x94>
    5548:	0184a703          	lw	x14,24(x9)
    554c:	01c4a783          	lw	x15,28(x9)
    5550:	ffe78793          	add	x15,x15,-2
    5554:	faf778e3          	bgeu	x14,x15,5504 <remove_chain+0xcc>
    5558:	00170713          	add	x14,x14,1
    555c:	00e4ac23          	sw	x14,24(x9)
    5560:	0054c783          	lbu	x15,5(x9)
    5564:	0017e793          	or	x15,x15,1
    5568:	00f482a3          	sb	x15,5(x9)
    556c:	f99ff06f          	j	5504 <remove_chain+0xcc>
    5570:	00000693          	li	x13,0
    5574:	41790633          	sub	x12,x18,x23
    5578:	000b8593          	mv	x11,x23
    557c:	00048513          	mv	x10,x9
    5580:	8b9fe0ef          	jal	3e38 <change_bitmap>
    5584:	24051463          	bnez	x10,57cc <remove_chain+0x394>
    5588:	00040b93          	mv	x23,x8
    558c:	f8dff06f          	j	5518 <remove_chain+0xe0>
    5590:	0004c703          	lbu	x14,0(x9)
    5594:	00400793          	li	x15,4
    5598:	00000513          	li	x10,0
    559c:	02f70463          	beq	x14,x15,55c4 <remove_chain+0x18c>
    55a0:	02812403          	lw	x8,40(x2)
    55a4:	02012903          	lw	x18,32(x2)
    55a8:	01c12983          	lw	x19,28(x2)
    55ac:	01812a03          	lw	x20,24(x2)
    55b0:	01412a83          	lw	x21,20(x2)
    55b4:	01012b03          	lw	x22,16(x2)
    55b8:	00c12b83          	lw	x23,12(x2)
    55bc:	00812c03          	lw	x24,8(x2)
    55c0:	1ec0006f          	j	57ac <remove_chain+0x374>
    55c4:	020c1863          	bnez	x24,55f4 <remove_chain+0x1bc>
    55c8:	000983a3          	sb	x0,7(x19)
    55cc:	000c0513          	mv	x10,x24
    55d0:	02812403          	lw	x8,40(x2)
    55d4:	02012903          	lw	x18,32(x2)
    55d8:	01c12983          	lw	x19,28(x2)
    55dc:	01812a03          	lw	x20,24(x2)
    55e0:	01412a83          	lw	x21,20(x2)
    55e4:	01012b03          	lw	x22,16(x2)
    55e8:	00c12b83          	lw	x23,12(x2)
    55ec:	00812c03          	lw	x24,8(x2)
    55f0:	1bc0006f          	j	57ac <remove_chain+0x374>
    55f4:	0079c783          	lbu	x15,7(x19)
    55f8:	02079c63          	bnez	x15,5630 <remove_chain+0x1f8>
    55fc:	0089a403          	lw	x8,8(x19)
    5600:	00100493          	li	x9,1
    5604:	fff00913          	li	x18,-1
    5608:	17840463          	beq	x8,x24,5770 <remove_chain+0x338>
    560c:	00040593          	mv	x11,x8
    5610:	00098513          	mv	x10,x19
    5614:	d08ff0ef          	jal	4b1c <get_fat>
    5618:	0ea4f063          	bgeu	x9,x10,56f8 <remove_chain+0x2c0>
    561c:	11250263          	beq	x10,x18,5720 <remove_chain+0x2e8>
    5620:	00140413          	add	x8,x8,1
    5624:	12a41263          	bne	x8,x10,5748 <remove_chain+0x310>
    5628:	00050413          	mv	x8,x10
    562c:	fddff06f          	j	5608 <remove_chain+0x1d0>
    5630:	00300713          	li	x14,3
    5634:	00000513          	li	x10,0
    5638:	02e78463          	beq	x15,x14,5660 <remove_chain+0x228>
    563c:	02812403          	lw	x8,40(x2)
    5640:	02012903          	lw	x18,32(x2)
    5644:	01c12983          	lw	x19,28(x2)
    5648:	01812a03          	lw	x20,24(x2)
    564c:	01412a83          	lw	x21,20(x2)
    5650:	01012b03          	lw	x22,16(x2)
    5654:	00c12b83          	lw	x23,12(x2)
    5658:	00812c03          	lw	x24,8(x2)
    565c:	1500006f          	j	57ac <remove_chain+0x374>
    5660:	0089a783          	lw	x15,8(x19)
    5664:	18fc6663          	bltu	x24,x15,57f0 <remove_chain+0x3b8>
    5668:	0189a703          	lw	x14,24(x19)
    566c:	00e787b3          	add	x15,x15,x14
    5670:	1b87e263          	bltu	x15,x24,5814 <remove_chain+0x3dc>
    5674:	00200793          	li	x15,2
    5678:	00f983a3          	sb	x15,7(x19)
    567c:	02812403          	lw	x8,40(x2)
    5680:	02012903          	lw	x18,32(x2)
    5684:	01c12983          	lw	x19,28(x2)
    5688:	01812a03          	lw	x20,24(x2)
    568c:	01412a83          	lw	x21,20(x2)
    5690:	01012b03          	lw	x22,16(x2)
    5694:	00c12b83          	lw	x23,12(x2)
    5698:	00812c03          	lw	x24,8(x2)
    569c:	1100006f          	j	57ac <remove_chain+0x374>
    56a0:	00200513          	li	x10,2
    56a4:	1080006f          	j	57ac <remove_chain+0x374>
    56a8:	00200513          	li	x10,2
    56ac:	02812403          	lw	x8,40(x2)
    56b0:	02012903          	lw	x18,32(x2)
    56b4:	01c12983          	lw	x19,28(x2)
    56b8:	01812a03          	lw	x20,24(x2)
    56bc:	01412a83          	lw	x21,20(x2)
    56c0:	01012b03          	lw	x22,16(x2)
    56c4:	00c12b83          	lw	x23,12(x2)
    56c8:	00812c03          	lw	x24,8(x2)
    56cc:	0e00006f          	j	57ac <remove_chain+0x374>
    56d0:	00100513          	li	x10,1
    56d4:	02812403          	lw	x8,40(x2)
    56d8:	02012903          	lw	x18,32(x2)
    56dc:	01c12983          	lw	x19,28(x2)
    56e0:	01812a03          	lw	x20,24(x2)
    56e4:	01412a83          	lw	x21,20(x2)
    56e8:	01012b03          	lw	x22,16(x2)
    56ec:	00c12b83          	lw	x23,12(x2)
    56f0:	00812c03          	lw	x24,8(x2)
    56f4:	0b80006f          	j	57ac <remove_chain+0x374>
    56f8:	00200513          	li	x10,2
    56fc:	02812403          	lw	x8,40(x2)
    5700:	02012903          	lw	x18,32(x2)
    5704:	01c12983          	lw	x19,28(x2)
    5708:	01812a03          	lw	x20,24(x2)
    570c:	01412a83          	lw	x21,20(x2)
    5710:	01012b03          	lw	x22,16(x2)
    5714:	00c12b83          	lw	x23,12(x2)
    5718:	00812c03          	lw	x24,8(x2)
    571c:	0900006f          	j	57ac <remove_chain+0x374>
    5720:	00100513          	li	x10,1
    5724:	02812403          	lw	x8,40(x2)
    5728:	02012903          	lw	x18,32(x2)
    572c:	01c12983          	lw	x19,28(x2)
    5730:	01812a03          	lw	x20,24(x2)
    5734:	01412a83          	lw	x21,20(x2)
    5738:	01012b03          	lw	x22,16(x2)
    573c:	00c12b83          	lw	x23,12(x2)
    5740:	00812c03          	lw	x24,8(x2)
    5744:	0680006f          	j	57ac <remove_chain+0x374>
    5748:	00000513          	li	x10,0
    574c:	02812403          	lw	x8,40(x2)
    5750:	02012903          	lw	x18,32(x2)
    5754:	01c12983          	lw	x19,28(x2)
    5758:	01812a03          	lw	x20,24(x2)
    575c:	01412a83          	lw	x21,20(x2)
    5760:	01012b03          	lw	x22,16(x2)
    5764:	00c12b83          	lw	x23,12(x2)
    5768:	00812c03          	lw	x24,8(x2)
    576c:	0400006f          	j	57ac <remove_chain+0x374>
    5770:	00200793          	li	x15,2
    5774:	00f983a3          	sb	x15,7(x19)
    5778:	00000513          	li	x10,0
    577c:	02812403          	lw	x8,40(x2)
    5780:	02012903          	lw	x18,32(x2)
    5784:	01c12983          	lw	x19,28(x2)
    5788:	01812a03          	lw	x20,24(x2)
    578c:	01412a83          	lw	x21,20(x2)
    5790:	01012b03          	lw	x22,16(x2)
    5794:	00c12b83          	lw	x23,12(x2)
    5798:	00812c03          	lw	x24,8(x2)
    579c:	0100006f          	j	57ac <remove_chain+0x374>
    57a0:	02812403          	lw	x8,40(x2)
    57a4:	01c12983          	lw	x19,28(x2)
    57a8:	00812c03          	lw	x24,8(x2)
    57ac:	02c12083          	lw	x1,44(x2)
    57b0:	02412483          	lw	x9,36(x2)
    57b4:	03010113          	add	x2,x2,48
    57b8:	00008067          	ret
    57bc:	02812403          	lw	x8,40(x2)
    57c0:	01c12983          	lw	x19,28(x2)
    57c4:	00812c03          	lw	x24,8(x2)
    57c8:	fe5ff06f          	j	57ac <remove_chain+0x374>
    57cc:	02812403          	lw	x8,40(x2)
    57d0:	02012903          	lw	x18,32(x2)
    57d4:	01c12983          	lw	x19,28(x2)
    57d8:	01812a03          	lw	x20,24(x2)
    57dc:	01412a83          	lw	x21,20(x2)
    57e0:	01012b03          	lw	x22,16(x2)
    57e4:	00c12b83          	lw	x23,12(x2)
    57e8:	00812c03          	lw	x24,8(x2)
    57ec:	fc1ff06f          	j	57ac <remove_chain+0x374>
    57f0:	02812403          	lw	x8,40(x2)
    57f4:	02012903          	lw	x18,32(x2)
    57f8:	01c12983          	lw	x19,28(x2)
    57fc:	01812a03          	lw	x20,24(x2)
    5800:	01412a83          	lw	x21,20(x2)
    5804:	01012b03          	lw	x22,16(x2)
    5808:	00c12b83          	lw	x23,12(x2)
    580c:	00812c03          	lw	x24,8(x2)
    5810:	f9dff06f          	j	57ac <remove_chain+0x374>
    5814:	02812403          	lw	x8,40(x2)
    5818:	02012903          	lw	x18,32(x2)
    581c:	01c12983          	lw	x19,28(x2)
    5820:	01812a03          	lw	x20,24(x2)
    5824:	01412a83          	lw	x21,20(x2)
    5828:	01012b03          	lw	x22,16(x2)
    582c:	00c12b83          	lw	x23,12(x2)
    5830:	00812c03          	lw	x24,8(x2)
    5834:	f79ff06f          	j	57ac <remove_chain+0x374>

00005838 <dir_next>:
    5838:	fe010113          	add	x2,x2,-32
    583c:	00112e23          	sw	x1,28(x2)
    5840:	00812c23          	sw	x8,24(x2)
    5844:	00912a23          	sw	x9,20(x2)
    5848:	01212823          	sw	x18,16(x2)
    584c:	01412423          	sw	x20,8(x2)
    5850:	00050413          	mv	x8,x10
    5854:	00058a13          	mv	x20,x11
    5858:	00052483          	lw	x9,0(x10)
    585c:	03052903          	lw	x18,48(x10)
    5860:	02090913          	add	x18,x18,32
    5864:	0004c683          	lbu	x13,0(x9)
    5868:	00400713          	li	x14,4
    586c:	002007b7          	lui	x15,0x200
    5870:	00e68a63          	beq	x13,x14,5884 <dir_next+0x4c>
    5874:	00f96c63          	bltu	x18,x15,588c <dir_next+0x54>
    5878:	02042c23          	sw	x0,56(x8)
    587c:	00400513          	li	x10,4
    5880:	0540006f          	j	58d4 <dir_next+0x9c>
    5884:	100007b7          	lui	x15,0x10000
    5888:	fedff06f          	j	5874 <dir_next+0x3c>
    588c:	03842783          	lw	x15,56(x8)
    5890:	12078a63          	beqz	x15,59c4 <dir_next+0x18c>
    5894:	01312623          	sw	x19,12(x2)
    5898:	1ff97993          	and	x19,x18,511
    589c:	02099063          	bnez	x19,58bc <dir_next+0x84>
    58a0:	00178793          	add	x15,x15,1 # 10000001 <STACK_TOP+0xff00001>
    58a4:	02f42c23          	sw	x15,56(x8)
    58a8:	03442583          	lw	x11,52(x8)
    58ac:	04059a63          	bnez	x11,5900 <dir_next+0xc8>
    58b0:	00595793          	srl	x15,x18,0x5
    58b4:	0084d703          	lhu	x14,8(x9)
    58b8:	02e7fc63          	bgeu	x15,x14,58f0 <dir_next+0xb8>
    58bc:	03242823          	sw	x18,48(x8)
    58c0:	03c48493          	add	x9,x9,60
    58c4:	013484b3          	add	x9,x9,x19
    58c8:	02942e23          	sw	x9,60(x8)
    58cc:	00000513          	li	x10,0
    58d0:	00c12983          	lw	x19,12(x2)
    58d4:	01c12083          	lw	x1,28(x2)
    58d8:	01812403          	lw	x8,24(x2)
    58dc:	01412483          	lw	x9,20(x2)
    58e0:	01012903          	lw	x18,16(x2)
    58e4:	00812a03          	lw	x20,8(x2)
    58e8:	02010113          	add	x2,x2,32
    58ec:	00008067          	ret
    58f0:	02042c23          	sw	x0,56(x8)
    58f4:	00400513          	li	x10,4
    58f8:	00c12983          	lw	x19,12(x2)
    58fc:	fd9ff06f          	j	58d4 <dir_next+0x9c>
    5900:	00a4d783          	lhu	x15,10(x9)
    5904:	fff78793          	add	x15,x15,-1
    5908:	00995713          	srl	x14,x18,0x9
    590c:	00e7f7b3          	and	x15,x15,x14
    5910:	fa0796e3          	bnez	x15,58bc <dir_next+0x84>
    5914:	01512223          	sw	x21,4(x2)
    5918:	00040513          	mv	x10,x8
    591c:	a00ff0ef          	jal	4b1c <get_fat>
    5920:	00050a93          	mv	x21,x10
    5924:	00100793          	li	x15,1
    5928:	0aa7f263          	bgeu	x15,x10,59cc <dir_next+0x194>
    592c:	fff00793          	li	x15,-1
    5930:	00100513          	li	x10,1
    5934:	0afa8c63          	beq	x21,x15,59ec <dir_next+0x1b4>
    5938:	01c4a783          	lw	x15,28(x9)
    593c:	04faec63          	bltu	x21,x15,5994 <dir_next+0x15c>
    5940:	060a0863          	beqz	x20,59b0 <dir_next+0x178>
    5944:	03442583          	lw	x11,52(x8)
    5948:	00040513          	mv	x10,x8
    594c:	e3cff0ef          	jal	4f88 <create_chain>
    5950:	00050a93          	mv	x21,x10
    5954:	00700513          	li	x10,7
    5958:	0a0a8063          	beqz	x21,59f8 <dir_next+0x1c0>
    595c:	00100793          	li	x15,1
    5960:	06fa8e63          	beq	x21,x15,59dc <dir_next+0x1a4>
    5964:	fff00793          	li	x15,-1
    5968:	00100513          	li	x10,1
    596c:	08fa8c63          	beq	x21,x15,5a04 <dir_next+0x1cc>
    5970:	000a8593          	mv	x11,x21
    5974:	00048513          	mv	x10,x9
    5978:	e00fe0ef          	jal	3f78 <dir_clear>
    597c:	00050793          	mv	x15,x10
    5980:	00100513          	li	x10,1
    5984:	08079663          	bnez	x15,5a10 <dir_next+0x1d8>
    5988:	00744783          	lbu	x15,7(x8)
    598c:	0047e793          	or	x15,x15,4
    5990:	00f403a3          	sb	x15,7(x8)
    5994:	03542a23          	sw	x21,52(x8)
    5998:	000a8593          	mv	x11,x21
    599c:	00048513          	mv	x10,x9
    59a0:	e1dfd0ef          	jal	37bc <clst2sect>
    59a4:	02a42c23          	sw	x10,56(x8)
    59a8:	00412a83          	lw	x21,4(x2)
    59ac:	f11ff06f          	j	58bc <dir_next+0x84>
    59b0:	02042c23          	sw	x0,56(x8)
    59b4:	00400513          	li	x10,4
    59b8:	00c12983          	lw	x19,12(x2)
    59bc:	00412a83          	lw	x21,4(x2)
    59c0:	f15ff06f          	j	58d4 <dir_next+0x9c>
    59c4:	00400513          	li	x10,4
    59c8:	f0dff06f          	j	58d4 <dir_next+0x9c>
    59cc:	00200513          	li	x10,2
    59d0:	00c12983          	lw	x19,12(x2)
    59d4:	00412a83          	lw	x21,4(x2)
    59d8:	efdff06f          	j	58d4 <dir_next+0x9c>
    59dc:	00200513          	li	x10,2
    59e0:	00c12983          	lw	x19,12(x2)
    59e4:	00412a83          	lw	x21,4(x2)
    59e8:	eedff06f          	j	58d4 <dir_next+0x9c>
    59ec:	00c12983          	lw	x19,12(x2)
    59f0:	00412a83          	lw	x21,4(x2)
    59f4:	ee1ff06f          	j	58d4 <dir_next+0x9c>
    59f8:	00c12983          	lw	x19,12(x2)
    59fc:	00412a83          	lw	x21,4(x2)
    5a00:	ed5ff06f          	j	58d4 <dir_next+0x9c>
    5a04:	00c12983          	lw	x19,12(x2)
    5a08:	00412a83          	lw	x21,4(x2)
    5a0c:	ec9ff06f          	j	58d4 <dir_next+0x9c>
    5a10:	00c12983          	lw	x19,12(x2)
    5a14:	00412a83          	lw	x21,4(x2)
    5a18:	ebdff06f          	j	58d4 <dir_next+0x9c>

00005a1c <dir_alloc>:
    5a1c:	fe010113          	add	x2,x2,-32
    5a20:	00112e23          	sw	x1,28(x2)
    5a24:	00812c23          	sw	x8,24(x2)
    5a28:	00912a23          	sw	x9,20(x2)
    5a2c:	01212823          	sw	x18,16(x2)
    5a30:	01312623          	sw	x19,12(x2)
    5a34:	00050413          	mv	x8,x10
    5a38:	00058993          	mv	x19,x11
    5a3c:	00052903          	lw	x18,0(x10)
    5a40:	00000593          	li	x11,0
    5a44:	b9cff0ef          	jal	4de0 <dir_sdi>
    5a48:	00050493          	mv	x9,x10
    5a4c:	08051863          	bnez	x10,5adc <dir_alloc+0xc0>
    5a50:	01412423          	sw	x20,8(x2)
    5a54:	01512223          	sw	x21,4(x2)
    5a58:	00400a13          	li	x20,4
    5a5c:	0e500a93          	li	x21,229
    5a60:	0300006f          	j	5a90 <dir_alloc+0x74>
    5a64:	03c42783          	lw	x15,60(x8)
    5a68:	00078783          	lb	x15,0(x15)
    5a6c:	0007d663          	bgez	x15,5a78 <dir_alloc+0x5c>
    5a70:	00050493          	mv	x9,x10
    5a74:	00c0006f          	j	5a80 <dir_alloc+0x64>
    5a78:	00148493          	add	x9,x9,1
    5a7c:	09348463          	beq	x9,x19,5b04 <dir_alloc+0xe8>
    5a80:	00100593          	li	x11,1
    5a84:	00040513          	mv	x10,x8
    5a88:	db1ff0ef          	jal	5838 <dir_next>
    5a8c:	02051a63          	bnez	x10,5ac0 <dir_alloc+0xa4>
    5a90:	03842583          	lw	x11,56(x8)
    5a94:	00090513          	mv	x10,x18
    5a98:	b34fe0ef          	jal	3dcc <move_window>
    5a9c:	02051a63          	bnez	x10,5ad0 <dir_alloc+0xb4>
    5aa0:	00094783          	lbu	x15,0(x18)
    5aa4:	fd4780e3          	beq	x15,x20,5a64 <dir_alloc+0x48>
    5aa8:	03c42783          	lw	x15,60(x8)
    5aac:	0007c783          	lbu	x15,0(x15)
    5ab0:	fd5784e3          	beq	x15,x21,5a78 <dir_alloc+0x5c>
    5ab4:	fc0782e3          	beqz	x15,5a78 <dir_alloc+0x5c>
    5ab8:	00050493          	mv	x9,x10
    5abc:	fc5ff06f          	j	5a80 <dir_alloc+0x64>
    5ac0:	00050493          	mv	x9,x10
    5ac4:	00812a03          	lw	x20,8(x2)
    5ac8:	00412a83          	lw	x21,4(x2)
    5acc:	0100006f          	j	5adc <dir_alloc+0xc0>
    5ad0:	00050493          	mv	x9,x10
    5ad4:	00812a03          	lw	x20,8(x2)
    5ad8:	00412a83          	lw	x21,4(x2)
    5adc:	00400793          	li	x15,4
    5ae0:	02f48a63          	beq	x9,x15,5b14 <dir_alloc+0xf8>
    5ae4:	00048513          	mv	x10,x9
    5ae8:	01c12083          	lw	x1,28(x2)
    5aec:	01812403          	lw	x8,24(x2)
    5af0:	01412483          	lw	x9,20(x2)
    5af4:	01012903          	lw	x18,16(x2)
    5af8:	00c12983          	lw	x19,12(x2)
    5afc:	02010113          	add	x2,x2,32
    5b00:	00008067          	ret
    5b04:	00050493          	mv	x9,x10
    5b08:	00812a03          	lw	x20,8(x2)
    5b0c:	00412a83          	lw	x21,4(x2)
    5b10:	fd5ff06f          	j	5ae4 <dir_alloc+0xc8>
    5b14:	00700493          	li	x9,7
    5b18:	fcdff06f          	j	5ae4 <dir_alloc+0xc8>

00005b1c <dir_remove>:
    5b1c:	fe010113          	add	x2,x2,-32
    5b20:	00112e23          	sw	x1,28(x2)
    5b24:	00812c23          	sw	x8,24(x2)
    5b28:	00912a23          	sw	x9,20(x2)
    5b2c:	01212823          	sw	x18,16(x2)
    5b30:	00050413          	mv	x8,x10
    5b34:	00052483          	lw	x9,0(x10)
    5b38:	03052903          	lw	x18,48(x10)
    5b3c:	04c52583          	lw	x11,76(x10)
    5b40:	fff00793          	li	x15,-1
    5b44:	02f59063          	bne	x11,x15,5b64 <dir_remove+0x48>
    5b48:	01312623          	sw	x19,12(x2)
    5b4c:	01412423          	sw	x20,8(x2)
    5b50:	01512223          	sw	x21,4(x2)
    5b54:	00400a13          	li	x20,4
    5b58:	fe500a93          	li	x21,-27
    5b5c:	00100993          	li	x19,1
    5b60:	0500006f          	j	5bb0 <dir_remove+0x94>
    5b64:	a7cff0ef          	jal	4de0 <dir_sdi>
    5b68:	fe0500e3          	beqz	x10,5b48 <dir_remove+0x2c>
    5b6c:	01c12083          	lw	x1,28(x2)
    5b70:	01812403          	lw	x8,24(x2)
    5b74:	01412483          	lw	x9,20(x2)
    5b78:	01012903          	lw	x18,16(x2)
    5b7c:	02010113          	add	x2,x2,32
    5b80:	00008067          	ret
    5b84:	03c42703          	lw	x14,60(x8)
    5b88:	00074783          	lbu	x15,0(x14)
    5b8c:	07f7f793          	and	x15,x15,127
    5b90:	00f70023          	sb	x15,0(x14)
    5b94:	01348223          	sb	x19,4(x9)
    5b98:	03042783          	lw	x15,48(x8)
    5b9c:	0727f263          	bgeu	x15,x18,5c00 <dir_remove+0xe4>
    5ba0:	00000593          	li	x11,0
    5ba4:	00040513          	mv	x10,x8
    5ba8:	c91ff0ef          	jal	5838 <dir_next>
    5bac:	02051463          	bnez	x10,5bd4 <dir_remove+0xb8>
    5bb0:	03842583          	lw	x11,56(x8)
    5bb4:	00048513          	mv	x10,x9
    5bb8:	a14fe0ef          	jal	3dcc <move_window>
    5bbc:	00051c63          	bnez	x10,5bd4 <dir_remove+0xb8>
    5bc0:	0004c783          	lbu	x15,0(x9)
    5bc4:	fd4780e3          	beq	x15,x20,5b84 <dir_remove+0x68>
    5bc8:	03c42783          	lw	x15,60(x8)
    5bcc:	01578023          	sb	x21,0(x15)
    5bd0:	fc5ff06f          	j	5b94 <dir_remove+0x78>
    5bd4:	00400793          	li	x15,4
    5bd8:	00f50a63          	beq	x10,x15,5bec <dir_remove+0xd0>
    5bdc:	00c12983          	lw	x19,12(x2)
    5be0:	00812a03          	lw	x20,8(x2)
    5be4:	00412a83          	lw	x21,4(x2)
    5be8:	f85ff06f          	j	5b6c <dir_remove+0x50>
    5bec:	00200513          	li	x10,2
    5bf0:	00c12983          	lw	x19,12(x2)
    5bf4:	00812a03          	lw	x20,8(x2)
    5bf8:	00412a83          	lw	x21,4(x2)
    5bfc:	f71ff06f          	j	5b6c <dir_remove+0x50>
    5c00:	00c12983          	lw	x19,12(x2)
    5c04:	00812a03          	lw	x20,8(x2)
    5c08:	00412a83          	lw	x21,4(x2)
    5c0c:	f61ff06f          	j	5b6c <dir_remove+0x50>

00005c10 <load_xdir>:
    5c10:	fe010113          	add	x2,x2,-32
    5c14:	00112e23          	sw	x1,28(x2)
    5c18:	00812c23          	sw	x8,24(x2)
    5c1c:	00912a23          	sw	x9,20(x2)
    5c20:	01212823          	sw	x18,16(x2)
    5c24:	00050493          	mv	x9,x10
    5c28:	00052503          	lw	x10,0(x10)
    5c2c:	01052903          	lw	x18,16(x10)
    5c30:	0384a583          	lw	x11,56(x9)
    5c34:	998fe0ef          	jal	3dcc <move_window>
    5c38:	00050413          	mv	x8,x10
    5c3c:	00051c63          	bnez	x10,5c54 <load_xdir+0x44>
    5c40:	03c4a583          	lw	x11,60(x9)
    5c44:	0005c703          	lbu	x14,0(x11)
    5c48:	08500793          	li	x15,133
    5c4c:	00200413          	li	x8,2
    5c50:	02f70063          	beq	x14,x15,5c70 <load_xdir+0x60>
    5c54:	00040513          	mv	x10,x8
    5c58:	01c12083          	lw	x1,28(x2)
    5c5c:	01812403          	lw	x8,24(x2)
    5c60:	01412483          	lw	x9,20(x2)
    5c64:	01012903          	lw	x18,16(x2)
    5c68:	02010113          	add	x2,x2,32
    5c6c:	00008067          	ret
    5c70:	01412423          	sw	x20,8(x2)
    5c74:	02000613          	li	x12,32
    5c78:	00090513          	mv	x10,x18
    5c7c:	b05fc0ef          	jal	2780 <memcpy>
    5c80:	00194783          	lbu	x15,1(x18)
    5c84:	00178793          	add	x15,x15,1
    5c88:	00579a13          	sll	x20,x15,0x5
    5c8c:	fa0a0713          	add	x14,x20,-96
    5c90:	20000793          	li	x15,512
    5c94:	16e7ec63          	bltu	x15,x14,5e0c <load_xdir+0x1fc>
    5c98:	00000593          	li	x11,0
    5c9c:	00048513          	mv	x10,x9
    5ca0:	b99ff0ef          	jal	5838 <dir_next>
    5ca4:	00050413          	mv	x8,x10
    5ca8:	00400793          	li	x15,4
    5cac:	12f50263          	beq	x10,x15,5dd0 <load_xdir+0x1c0>
    5cb0:	00050663          	beqz	x10,5cbc <load_xdir+0xac>
    5cb4:	00812a03          	lw	x20,8(x2)
    5cb8:	f9dff06f          	j	5c54 <load_xdir+0x44>
    5cbc:	0384a583          	lw	x11,56(x9)
    5cc0:	0004a503          	lw	x10,0(x9)
    5cc4:	908fe0ef          	jal	3dcc <move_window>
    5cc8:	00050413          	mv	x8,x10
    5ccc:	14051463          	bnez	x10,5e14 <load_xdir+0x204>
    5cd0:	03c4a583          	lw	x11,60(x9)
    5cd4:	0005c703          	lbu	x14,0(x11)
    5cd8:	0c000793          	li	x15,192
    5cdc:	00200413          	li	x8,2
    5ce0:	00f70663          	beq	x14,x15,5cec <load_xdir+0xdc>
    5ce4:	00812a03          	lw	x20,8(x2)
    5ce8:	f6dff06f          	j	5c54 <load_xdir+0x44>
    5cec:	02000613          	li	x12,32
    5cf0:	02090513          	add	x10,x18,32
    5cf4:	a8dfc0ef          	jal	2780 <memcpy>
    5cf8:	02394503          	lbu	x10,35(x18)
    5cfc:	00f00593          	li	x11,15
    5d00:	02c50513          	add	x10,x10,44
    5d04:	0a9050ef          	jal	b5ac <__hidden___udivsi3>
    5d08:	00551513          	sll	x10,x10,0x5
    5d0c:	10aa6863          	bltu	x20,x10,5e1c <load_xdir+0x20c>
    5d10:	01312623          	sw	x19,12(x2)
    5d14:	01512223          	sw	x21,4(x2)
    5d18:	01612023          	sw	x22,0(x2)
    5d1c:	04000993          	li	x19,64
    5d20:	00400a93          	li	x21,4
    5d24:	0c100b13          	li	x22,193
    5d28:	00000593          	li	x11,0
    5d2c:	00048513          	mv	x10,x9
    5d30:	b09ff0ef          	jal	5838 <dir_next>
    5d34:	00050413          	mv	x8,x10
    5d38:	0b550263          	beq	x10,x21,5ddc <load_xdir+0x1cc>
    5d3c:	0e051463          	bnez	x10,5e24 <load_xdir+0x214>
    5d40:	0384a583          	lw	x11,56(x9)
    5d44:	0004a503          	lw	x10,0(x9)
    5d48:	884fe0ef          	jal	3dcc <move_window>
    5d4c:	00050413          	mv	x8,x10
    5d50:	0e051463          	bnez	x10,5e38 <load_xdir+0x228>
    5d54:	03c4a583          	lw	x11,60(x9)
    5d58:	0005c783          	lbu	x15,0(x11)
    5d5c:	09679c63          	bne	x15,x22,5df4 <load_xdir+0x1e4>
    5d60:	02000613          	li	x12,32
    5d64:	01390533          	add	x10,x18,x19
    5d68:	a19fc0ef          	jal	2780 <memcpy>
    5d6c:	02098993          	add	x19,x19,32
    5d70:	fb49ece3          	bltu	x19,x20,5d28 <load_xdir+0x118>
    5d74:	26000793          	li	x15,608
    5d78:	0137fc63          	bgeu	x15,x19,5d90 <load_xdir+0x180>
    5d7c:	00c12983          	lw	x19,12(x2)
    5d80:	00812a03          	lw	x20,8(x2)
    5d84:	00412a83          	lw	x21,4(x2)
    5d88:	00012b03          	lw	x22,0(x2)
    5d8c:	ec9ff06f          	j	5c54 <load_xdir+0x44>
    5d90:	00090513          	mv	x10,x18
    5d94:	aa1fd0ef          	jal	3834 <xdir_sum>
    5d98:	00394783          	lbu	x15,3(x18)
    5d9c:	00879793          	sll	x15,x15,0x8
    5da0:	00294703          	lbu	x14,2(x18)
    5da4:	00e7e7b3          	or	x15,x15,x14
    5da8:	01079793          	sll	x15,x15,0x10
    5dac:	0107d793          	srl	x15,x15,0x10
    5db0:	40a78433          	sub	x8,x15,x10
    5db4:	00803433          	snez	x8,x8
    5db8:	00141413          	sll	x8,x8,0x1
    5dbc:	00c12983          	lw	x19,12(x2)
    5dc0:	00812a03          	lw	x20,8(x2)
    5dc4:	00412a83          	lw	x21,4(x2)
    5dc8:	00012b03          	lw	x22,0(x2)
    5dcc:	e89ff06f          	j	5c54 <load_xdir+0x44>
    5dd0:	00200413          	li	x8,2
    5dd4:	00812a03          	lw	x20,8(x2)
    5dd8:	e7dff06f          	j	5c54 <load_xdir+0x44>
    5ddc:	00200413          	li	x8,2
    5de0:	00c12983          	lw	x19,12(x2)
    5de4:	00812a03          	lw	x20,8(x2)
    5de8:	00412a83          	lw	x21,4(x2)
    5dec:	00012b03          	lw	x22,0(x2)
    5df0:	e65ff06f          	j	5c54 <load_xdir+0x44>
    5df4:	00200413          	li	x8,2
    5df8:	00c12983          	lw	x19,12(x2)
    5dfc:	00812a03          	lw	x20,8(x2)
    5e00:	00412a83          	lw	x21,4(x2)
    5e04:	00012b03          	lw	x22,0(x2)
    5e08:	e4dff06f          	j	5c54 <load_xdir+0x44>
    5e0c:	00812a03          	lw	x20,8(x2)
    5e10:	e45ff06f          	j	5c54 <load_xdir+0x44>
    5e14:	00812a03          	lw	x20,8(x2)
    5e18:	e3dff06f          	j	5c54 <load_xdir+0x44>
    5e1c:	00812a03          	lw	x20,8(x2)
    5e20:	e35ff06f          	j	5c54 <load_xdir+0x44>
    5e24:	00c12983          	lw	x19,12(x2)
    5e28:	00812a03          	lw	x20,8(x2)
    5e2c:	00412a83          	lw	x21,4(x2)
    5e30:	00012b03          	lw	x22,0(x2)
    5e34:	e21ff06f          	j	5c54 <load_xdir+0x44>
    5e38:	00c12983          	lw	x19,12(x2)
    5e3c:	00812a03          	lw	x20,8(x2)
    5e40:	00412a83          	lw	x21,4(x2)
    5e44:	00012b03          	lw	x22,0(x2)
    5e48:	e0dff06f          	j	5c54 <load_xdir+0x44>

00005e4c <store_xdir>:
    5e4c:	fe010113          	add	x2,x2,-32
    5e50:	00112e23          	sw	x1,28(x2)
    5e54:	00812c23          	sw	x8,24(x2)
    5e58:	00912a23          	sw	x9,20(x2)
    5e5c:	01212823          	sw	x18,16(x2)
    5e60:	00050413          	mv	x8,x10
    5e64:	00052783          	lw	x15,0(x10)
    5e68:	0107a483          	lw	x9,16(x15)
    5e6c:	00048513          	mv	x10,x9
    5e70:	9c5fd0ef          	jal	3834 <xdir_sum>
    5e74:	00a48123          	sb	x10,2(x9)
    5e78:	00855513          	srl	x10,x10,0x8
    5e7c:	00a481a3          	sb	x10,3(x9)
    5e80:	0014c903          	lbu	x18,1(x9)
    5e84:	04c42583          	lw	x11,76(x8)
    5e88:	00040513          	mv	x10,x8
    5e8c:	f55fe0ef          	jal	4de0 <dir_sdi>
    5e90:	06051663          	bnez	x10,5efc <store_xdir+0xb0>
    5e94:	01312623          	sw	x19,12(x2)
    5e98:	00190913          	add	x18,x18,1
    5e9c:	00100993          	li	x19,1
    5ea0:	03842583          	lw	x11,56(x8)
    5ea4:	00042503          	lw	x10,0(x8)
    5ea8:	f25fd0ef          	jal	3dcc <move_window>
    5eac:	04051663          	bnez	x10,5ef8 <store_xdir+0xac>
    5eb0:	02000613          	li	x12,32
    5eb4:	00048593          	mv	x11,x9
    5eb8:	03c42503          	lw	x10,60(x8)
    5ebc:	8c5fc0ef          	jal	2780 <memcpy>
    5ec0:	00042783          	lw	x15,0(x8)
    5ec4:	01378223          	sb	x19,4(x15)
    5ec8:	fff90913          	add	x18,x18,-1
    5ecc:	02090063          	beqz	x18,5eec <store_xdir+0xa0>
    5ed0:	02048493          	add	x9,x9,32
    5ed4:	00000593          	li	x11,0
    5ed8:	00040513          	mv	x10,x8
    5edc:	95dff0ef          	jal	5838 <dir_next>
    5ee0:	fc0500e3          	beqz	x10,5ea0 <store_xdir+0x54>
    5ee4:	00c12983          	lw	x19,12(x2)
    5ee8:	0140006f          	j	5efc <store_xdir+0xb0>
    5eec:	00090513          	mv	x10,x18
    5ef0:	00c12983          	lw	x19,12(x2)
    5ef4:	0080006f          	j	5efc <store_xdir+0xb0>
    5ef8:	00c12983          	lw	x19,12(x2)
    5efc:	00200793          	li	x15,2
    5f00:	00a7f463          	bgeu	x15,x10,5f08 <store_xdir+0xbc>
    5f04:	00200513          	li	x10,2
    5f08:	01c12083          	lw	x1,28(x2)
    5f0c:	01812403          	lw	x8,24(x2)
    5f10:	01412483          	lw	x9,20(x2)
    5f14:	01012903          	lw	x18,16(x2)
    5f18:	02010113          	add	x2,x2,32
    5f1c:	00008067          	ret

00005f20 <check_fs>:
    5f20:	ff010113          	add	x2,x2,-16
    5f24:	00112623          	sw	x1,12(x2)
    5f28:	00812423          	sw	x8,8(x2)
    5f2c:	00912223          	sw	x9,4(x2)
    5f30:	00050413          	mv	x8,x10
    5f34:	00050223          	sb	x0,4(x10)
    5f38:	fff00793          	li	x15,-1
    5f3c:	02f52c23          	sw	x15,56(x10)
    5f40:	e8dfd0ef          	jal	3dcc <move_window>
    5f44:	00400493          	li	x9,4
    5f48:	06051263          	bnez	x10,5fac <check_fs+0x8c>
    5f4c:	01212023          	sw	x18,0(x2)
    5f50:	00050493          	mv	x9,x10
    5f54:	23b44903          	lbu	x18,571(x8)
    5f58:	00891913          	sll	x18,x18,0x8
    5f5c:	23a44783          	lbu	x15,570(x8)
    5f60:	00f96933          	or	x18,x18,x15
    5f64:	01091913          	sll	x18,x18,0x10
    5f68:	01095913          	srl	x18,x18,0x10
    5f6c:	0000b7b7          	lui	x15,0xb
    5f70:	a5578793          	add	x15,x15,-1451 # aa55 <f_printf+0xe1>
    5f74:	04f90863          	beq	x18,x15,5fc4 <check_fs+0xa4>
    5f78:	03c44783          	lbu	x15,60(x8)
    5f7c:	0eb00713          	li	x14,235
    5f80:	18e78c63          	beq	x15,x14,6118 <check_fs+0x1f8>
    5f84:	01878793          	add	x15,x15,24
    5f88:	0ff7f793          	zext.b	x15,x15
    5f8c:	00100713          	li	x14,1
    5f90:	18f77463          	bgeu	x14,x15,6118 <check_fs+0x1f8>
    5f94:	0000b4b7          	lui	x9,0xb
    5f98:	a5548493          	add	x9,x9,-1451 # aa55 <f_printf+0xe1>
    5f9c:	409904b3          	sub	x9,x18,x9
    5fa0:	009034b3          	snez	x9,x9
    5fa4:	00248493          	add	x9,x9,2
    5fa8:	00012903          	lw	x18,0(x2)
    5fac:	00048513          	mv	x10,x9
    5fb0:	00c12083          	lw	x1,12(x2)
    5fb4:	00812403          	lw	x8,8(x2)
    5fb8:	00412483          	lw	x9,4(x2)
    5fbc:	01010113          	add	x2,x2,16
    5fc0:	00008067          	ret
    5fc4:	00b00613          	li	x12,11
    5fc8:	0000f5b7          	lui	x11,0xf
    5fcc:	12458593          	add	x11,x11,292 # f124 <__clzsi2+0x798>
    5fd0:	03c40513          	add	x10,x8,60
    5fd4:	845fc0ef          	jal	2818 <memcmp>
    5fd8:	12050463          	beqz	x10,6100 <check_fs+0x1e0>
    5fdc:	03c44783          	lbu	x15,60(x8)
    5fe0:	0eb00713          	li	x14,235
    5fe4:	00e78a63          	beq	x15,x14,5ff8 <check_fs+0xd8>
    5fe8:	01878793          	add	x15,x15,24
    5fec:	0ff7f793          	zext.b	x15,x15
    5ff0:	00100713          	li	x14,1
    5ff4:	faf760e3          	bltu	x14,x15,5f94 <check_fs+0x74>
    5ff8:	00800613          	li	x12,8
    5ffc:	0000f5b7          	lui	x11,0xf
    6000:	13058593          	add	x11,x11,304 # f130 <__clzsi2+0x7a4>
    6004:	08e40513          	add	x10,x8,142
    6008:	811fc0ef          	jal	2818 <memcmp>
    600c:	02050a63          	beqz	x10,6040 <check_fs+0x120>
    6010:	04844783          	lbu	x15,72(x8)
    6014:	00879793          	sll	x15,x15,0x8
    6018:	04744703          	lbu	x14,71(x8)
    601c:	00e7e7b3          	or	x15,x15,x14
    6020:	01079793          	sll	x15,x15,0x10
    6024:	0107d793          	srl	x15,x15,0x10
    6028:	fff78713          	add	x14,x15,-1
    602c:	00f77733          	and	x14,x14,x15
    6030:	10070c63          	beqz	x14,6148 <check_fs+0x228>
    6034:	00200493          	li	x9,2
    6038:	00012903          	lw	x18,0(x2)
    603c:	f71ff06f          	j	5fac <check_fs+0x8c>
    6040:	00012903          	lw	x18,0(x2)
    6044:	f69ff06f          	j	5fac <check_fs+0x8c>
    6048:	20000713          	li	x14,512
    604c:	0ce79063          	bne	x15,x14,610c <check_fs+0x1ec>
    6050:	04944783          	lbu	x15,73(x8)
    6054:	f40780e3          	beqz	x15,5f94 <check_fs+0x74>
    6058:	fff78713          	add	x14,x15,-1
    605c:	00f777b3          	and	x15,x14,x15
    6060:	f2079ae3          	bnez	x15,5f94 <check_fs+0x74>
    6064:	04b44783          	lbu	x15,75(x8)
    6068:	00879793          	sll	x15,x15,0x8
    606c:	04a44703          	lbu	x14,74(x8)
    6070:	00e7e7b3          	or	x15,x15,x14
    6074:	01079793          	sll	x15,x15,0x10
    6078:	4107d793          	sra	x15,x15,0x10
    607c:	f0078ce3          	beqz	x15,5f94 <check_fs+0x74>
    6080:	04c44783          	lbu	x15,76(x8)
    6084:	fff78793          	add	x15,x15,-1
    6088:	00100713          	li	x14,1
    608c:	f0f764e3          	bltu	x14,x15,5f94 <check_fs+0x74>
    6090:	04e44783          	lbu	x15,78(x8)
    6094:	00879793          	sll	x15,x15,0x8
    6098:	04d44703          	lbu	x14,77(x8)
    609c:	00e7e7b3          	or	x15,x15,x14
    60a0:	01079793          	sll	x15,x15,0x10
    60a4:	4107d793          	sra	x15,x15,0x10
    60a8:	ee0786e3          	beqz	x15,5f94 <check_fs+0x74>
    60ac:	05044783          	lbu	x15,80(x8)
    60b0:	00879793          	sll	x15,x15,0x8
    60b4:	04f44703          	lbu	x14,79(x8)
    60b8:	00e7e7b3          	or	x15,x15,x14
    60bc:	01079793          	sll	x15,x15,0x10
    60c0:	0107d793          	srl	x15,x15,0x10
    60c4:	07f00713          	li	x14,127
    60c8:	00f76a63          	bltu	x14,x15,60dc <check_fs+0x1bc>
    60cc:	05c40513          	add	x10,x8,92
    60d0:	e00fd0ef          	jal	36d0 <ld_dword>
    60d4:	000107b7          	lui	x15,0x10
    60d8:	eaf56ee3          	bltu	x10,x15,5f94 <check_fs+0x74>
    60dc:	05344783          	lbu	x15,83(x8)
    60e0:	00879793          	sll	x15,x15,0x8
    60e4:	05244703          	lbu	x14,82(x8)
    60e8:	00e7e7b3          	or	x15,x15,x14
    60ec:	01079793          	sll	x15,x15,0x10
    60f0:	4107d793          	sra	x15,x15,0x10
    60f4:	ea0780e3          	beqz	x15,5f94 <check_fs+0x74>
    60f8:	00012903          	lw	x18,0(x2)
    60fc:	eb1ff06f          	j	5fac <check_fs+0x8c>
    6100:	00100493          	li	x9,1
    6104:	00012903          	lw	x18,0(x2)
    6108:	ea5ff06f          	j	5fac <check_fs+0x8c>
    610c:	00300493          	li	x9,3
    6110:	00012903          	lw	x18,0(x2)
    6114:	e99ff06f          	j	5fac <check_fs+0x8c>
    6118:	04844783          	lbu	x15,72(x8)
    611c:	00879793          	sll	x15,x15,0x8
    6120:	04744703          	lbu	x14,71(x8)
    6124:	00e7e7b3          	or	x15,x15,x14
    6128:	01079793          	sll	x15,x15,0x10
    612c:	0107d793          	srl	x15,x15,0x10
    6130:	fff78713          	add	x14,x15,-1 # ffff <load_fname_cheat+0x12b>
    6134:	00f77733          	and	x14,x14,x15
    6138:	f00708e3          	beqz	x14,6048 <check_fs+0x128>
    613c:	00300493          	li	x9,3
    6140:	00012903          	lw	x18,0(x2)
    6144:	e69ff06f          	j	5fac <check_fs+0x8c>
    6148:	20000713          	li	x14,512
    614c:	00e78863          	beq	x15,x14,615c <check_fs+0x23c>
    6150:	00200493          	li	x9,2
    6154:	00012903          	lw	x18,0(x2)
    6158:	e55ff06f          	j	5fac <check_fs+0x8c>
    615c:	04944783          	lbu	x15,73(x8)
    6160:	ef5ff06f          	j	6054 <check_fs+0x134>

00006164 <mount_volume>:
    6164:	fc010113          	add	x2,x2,-64
    6168:	02112e23          	sw	x1,60(x2)
    616c:	02812c23          	sw	x8,56(x2)
    6170:	03212823          	sw	x18,48(x2)
    6174:	00058913          	mv	x18,x11
    6178:	00060413          	mv	x8,x12
    617c:	0005a023          	sw	x0,0(x11)
    6180:	f6cfd0ef          	jal	38ec <get_ldnumber>
    6184:	6c054063          	bltz	x10,6844 <mount_volume+0x6e0>
    6188:	02912a23          	sw	x9,52(x2)
    618c:	00251513          	sll	x10,x10,0x2
    6190:	000137b7          	lui	x15,0x13
    6194:	aac78793          	add	x15,x15,-1364 # 12aac <FatFs>
    6198:	00f50533          	add	x10,x10,x15
    619c:	00052483          	lw	x9,0(x10)
    61a0:	6c048063          	beqz	x9,6860 <mount_volume+0x6fc>
    61a4:	00992023          	sw	x9,0(x18)
    61a8:	0fe47913          	and	x18,x8,254
    61ac:	0004c783          	lbu	x15,0(x9)
    61b0:	02078863          	beqz	x15,61e0 <mount_volume+0x7c>
    61b4:	0014c503          	lbu	x10,1(x9)
    61b8:	be4fd0ef          	jal	359c <disk_status>
    61bc:	00157793          	and	x15,x10,1
    61c0:	02079063          	bnez	x15,61e0 <mount_volume+0x7c>
    61c4:	00000413          	li	x8,0
    61c8:	140902e3          	beqz	x18,6b0c <mount_volume+0x9a8>
    61cc:	01d51513          	sll	x10,x10,0x1d
    61d0:	41f55513          	sra	x10,x10,0x1f
    61d4:	00a57413          	and	x8,x10,10
    61d8:	03412483          	lw	x9,52(x2)
    61dc:	66c0006f          	j	6848 <mount_volume+0x6e4>
    61e0:	00048023          	sb	x0,0(x9)
    61e4:	0014c503          	lbu	x10,1(x9)
    61e8:	bd0fd0ef          	jal	35b8 <disk_initialize>
    61ec:	00157793          	and	x15,x10,1
    61f0:	00300413          	li	x8,3
    61f4:	120790e3          	bnez	x15,6b14 <mount_volume+0x9b0>
    61f8:	00090863          	beqz	x18,6208 <mount_volume+0xa4>
    61fc:	00457513          	and	x10,x10,4
    6200:	00a00413          	li	x8,10
    6204:	10051ce3          	bnez	x10,6b1c <mount_volume+0x9b8>
    6208:	00000593          	li	x11,0
    620c:	00048513          	mv	x10,x9
    6210:	d11ff0ef          	jal	5f20 <check_fs>
    6214:	00050413          	mv	x8,x10
    6218:	00200793          	li	x15,2
    621c:	26f50863          	beq	x10,x15,648c <mount_volume+0x328>
    6220:	00400793          	li	x15,4
    6224:	64f40463          	beq	x8,x15,686c <mount_volume+0x708>
    6228:	00100793          	li	x15,1
    622c:	6487e663          	bltu	x15,x8,6878 <mount_volume+0x714>
    6230:	0384a903          	lw	x18,56(x9)
    6234:	00100793          	li	x15,1
    6238:	2cf40663          	beq	x8,x15,6504 <mount_volume+0x3a0>
    623c:	0484c783          	lbu	x15,72(x9)
    6240:	00879793          	sll	x15,x15,0x8
    6244:	0474c703          	lbu	x14,71(x9)
    6248:	00e7e7b3          	or	x15,x15,x14
    624c:	01079793          	sll	x15,x15,0x10
    6250:	4107d793          	sra	x15,x15,0x10
    6254:	20000713          	li	x14,512
    6258:	00d00413          	li	x8,13
    625c:	0ee792e3          	bne	x15,x14,6b40 <mount_volume+0x9dc>
    6260:	03312623          	sw	x19,44(x2)
    6264:	03512223          	sw	x21,36(x2)
    6268:	0534c783          	lbu	x15,83(x9)
    626c:	00879793          	sll	x15,x15,0x8
    6270:	0524c703          	lbu	x14,82(x9)
    6274:	00e7e7b3          	or	x15,x15,x14
    6278:	01079993          	sll	x19,x15,0x10
    627c:	0109d993          	srl	x19,x19,0x10
    6280:	01079713          	sll	x14,x15,0x10
    6284:	01075713          	srl	x14,x14,0x10
    6288:	00071863          	bnez	x14,6298 <mount_volume+0x134>
    628c:	06048513          	add	x10,x9,96
    6290:	c40fd0ef          	jal	36d0 <ld_dword>
    6294:	00050993          	mv	x19,x10
    6298:	0334a023          	sw	x19,32(x9)
    629c:	04c4ca83          	lbu	x21,76(x9)
    62a0:	015481a3          	sb	x21,3(x9)
    62a4:	fffa8793          	add	x15,x21,-1
    62a8:	0ff7f793          	zext.b	x15,x15
    62ac:	00100713          	li	x14,1
    62b0:	00d00413          	li	x8,13
    62b4:	08f76ae3          	bltu	x14,x15,6b48 <mount_volume+0x9e4>
    62b8:	03412423          	sw	x20,40(x2)
    62bc:	0494ca03          	lbu	x20,73(x9)
    62c0:	01449523          	sh	x20,10(x9)
    62c4:	080a0ae3          	beqz	x20,6b58 <mount_volume+0x9f4>
    62c8:	fffa0793          	add	x15,x20,-1
    62cc:	0147f7b3          	and	x15,x15,x20
    62d0:	08079ee3          	bnez	x15,6b6c <mount_volume+0xa08>
    62d4:	03612023          	sw	x22,32(x2)
    62d8:	01712e23          	sw	x23,28(x2)
    62dc:	04e4c783          	lbu	x15,78(x9)
    62e0:	00879793          	sll	x15,x15,0x8
    62e4:	04d4c703          	lbu	x14,77(x9)
    62e8:	00e7e7b3          	or	x15,x15,x14
    62ec:	01079b93          	sll	x23,x15,0x10
    62f0:	410bdb93          	sra	x23,x23,0x10
    62f4:	01079b13          	sll	x22,x15,0x10
    62f8:	010b5b13          	srl	x22,x22,0x10
    62fc:	01649423          	sh	x22,8(x9)
    6300:	00f7f793          	and	x15,x15,15
    6304:	06079ee3          	bnez	x15,6b80 <mount_volume+0xa1c>
    6308:	01812c23          	sw	x24,24(x2)
    630c:	01912a23          	sw	x25,20(x2)
    6310:	0504c783          	lbu	x15,80(x9)
    6314:	00879793          	sll	x15,x15,0x8
    6318:	04f4c703          	lbu	x14,79(x9)
    631c:	00e7e7b3          	or	x15,x15,x14
    6320:	01079c13          	sll	x24,x15,0x10
    6324:	010c5c13          	srl	x24,x24,0x10
    6328:	01079713          	sll	x14,x15,0x10
    632c:	01075713          	srl	x14,x14,0x10
    6330:	00071863          	bnez	x14,6340 <mount_volume+0x1dc>
    6334:	05c48513          	add	x10,x9,92
    6338:	b98fd0ef          	jal	36d0 <ld_dword>
    633c:	00050c13          	mv	x24,x10
    6340:	04b4c783          	lbu	x15,75(x9)
    6344:	00879793          	sll	x15,x15,0x8
    6348:	04a4c703          	lbu	x14,74(x9)
    634c:	00e7e7b3          	or	x15,x15,x14
    6350:	01079c93          	sll	x25,x15,0x10
    6354:	010cdc93          	srl	x25,x25,0x10
    6358:	00d00413          	li	x8,13
    635c:	01079713          	sll	x14,x15,0x10
    6360:	01075713          	srl	x14,x14,0x10
    6364:	02070ce3          	beqz	x14,6b9c <mount_volume+0xa38>
    6368:	01a12823          	sw	x26,16(x2)
    636c:	00098593          	mv	x11,x19
    6370:	000a8513          	mv	x10,x21
    6374:	20c050ef          	jal	b580 <__mulsi3>
    6378:	00050d13          	mv	x26,x10
    637c:	004b5a93          	srl	x21,x22,0x4
    6380:	019a8ab3          	add	x21,x21,x25
    6384:	00aa8ab3          	add	x21,x21,x10
    6388:	035c6ce3          	bltu	x24,x21,6bc0 <mount_volume+0xa5c>
    638c:	415c0c33          	sub	x24,x24,x21
    6390:	000a0593          	mv	x11,x20
    6394:	000c0513          	mv	x10,x24
    6398:	214050ef          	jal	b5ac <__hidden___udivsi3>
    639c:	054c66e3          	bltu	x24,x20,6be8 <mount_volume+0xa84>
    63a0:	100007b7          	lui	x15,0x10000
    63a4:	ff578793          	add	x15,x15,-11 # ffffff5 <STACK_TOP+0xfeffff5>
    63a8:	06a7e4e3          	bltu	x15,x10,6c10 <mount_volume+0xaac>
    63ac:	000107b7          	lui	x15,0x10
    63b0:	ff578793          	add	x15,x15,-11 # fff5 <load_fname_cheat+0x121>
    63b4:	62a7e863          	bltu	x15,x10,69e4 <mount_volume+0x880>
    63b8:	000017b7          	lui	x15,0x1
    63bc:	ff578793          	add	x15,x15,-11 # ff5 <loadnes+0x175>
    63c0:	6ea7e863          	bltu	x15,x10,6ab0 <mount_volume+0x94c>
    63c4:	00250713          	add	x14,x10,2
    63c8:	012c8cb3          	add	x25,x25,x18
    63cc:	00e4ae23          	sw	x14,28(x9)
    63d0:	0324a223          	sw	x18,36(x9)
    63d4:	0394a423          	sw	x25,40(x9)
    63d8:	01590ab3          	add	x21,x18,x21
    63dc:	0354a823          	sw	x21,48(x9)
    63e0:	00d00413          	li	x8,13
    63e4:	5c0b0c63          	beqz	x22,69bc <mount_volume+0x858>
    63e8:	01ac8cb3          	add	x25,x25,x26
    63ec:	00171793          	sll	x15,x14,0x1
    63f0:	00e787b3          	add	x15,x15,x14
    63f4:	0017d793          	srl	x15,x15,0x1
    63f8:	00177713          	and	x14,x14,1
    63fc:	00e787b3          	add	x15,x15,x14
    6400:	00100713          	li	x14,1
    6404:	0394a623          	sw	x25,44(x9)
    6408:	1ff78793          	add	x15,x15,511
    640c:	0097d793          	srl	x15,x15,0x9
    6410:	00d00413          	li	x8,13
    6414:	58f9e063          	bltu	x19,x15,6994 <mount_volume+0x830>
    6418:	fff00793          	li	x15,-1
    641c:	00f4ac23          	sw	x15,24(x9)
    6420:	00f4aa23          	sw	x15,20(x9)
    6424:	f8000793          	li	x15,-128
    6428:	00f482a3          	sb	x15,5(x9)
    642c:	01812c03          	lw	x24,24(x2)
    6430:	01412c83          	lw	x25,20(x2)
    6434:	01012d03          	lw	x26,16(x2)
    6438:	00e48023          	sb	x14,0(x9)
    643c:	00013737          	lui	x14,0x13
    6440:	aa875783          	lhu	x15,-1368(x14) # 12aa8 <Fsid>
    6444:	00178793          	add	x15,x15,1
    6448:	01079793          	sll	x15,x15,0x10
    644c:	0107d793          	srl	x15,x15,0x10
    6450:	aaf71423          	sh	x15,-1368(x14)
    6454:	00f49323          	sh	x15,6(x9)
    6458:	000127b7          	lui	x15,0x12
    645c:	61078793          	add	x15,x15,1552 # 12610 <LfnBuf>
    6460:	00f4a623          	sw	x15,12(x9)
    6464:	20078793          	add	x15,x15,512
    6468:	00f4a823          	sw	x15,16(x9)
    646c:	00000413          	li	x8,0
    6470:	03412483          	lw	x9,52(x2)
    6474:	02c12983          	lw	x19,44(x2)
    6478:	02812a03          	lw	x20,40(x2)
    647c:	02412a83          	lw	x21,36(x2)
    6480:	02012b03          	lw	x22,32(x2)
    6484:	01c12b83          	lw	x23,28(x2)
    6488:	3c00006f          	j	6848 <mount_volume+0x6e4>
    648c:	03312623          	sw	x19,44(x2)
    6490:	03412423          	sw	x20,40(x2)
    6494:	20248413          	add	x8,x9,514
    6498:	00010913          	mv	x18,x2
    649c:	24248a13          	add	x20,x9,578
    64a0:	00090993          	mv	x19,x18
    64a4:	00040513          	mv	x10,x8
    64a8:	a28fd0ef          	jal	36d0 <ld_dword>
    64ac:	00a9a023          	sw	x10,0(x19)
    64b0:	01040413          	add	x8,x8,16
    64b4:	00498993          	add	x19,x19,4
    64b8:	ff4416e3          	bne	x8,x20,64a4 <mount_volume+0x340>
    64bc:	01090993          	add	x19,x18,16
    64c0:	00100a13          	li	x20,1
    64c4:	00c0006f          	j	64d0 <mount_volume+0x36c>
    64c8:	00490913          	add	x18,x18,4
    64cc:	03298663          	beq	x19,x18,64f8 <mount_volume+0x394>
    64d0:	00092583          	lw	x11,0(x18)
    64d4:	00300413          	li	x8,3
    64d8:	fe0588e3          	beqz	x11,64c8 <mount_volume+0x364>
    64dc:	00048513          	mv	x10,x9
    64e0:	a41ff0ef          	jal	5f20 <check_fs>
    64e4:	00050413          	mv	x8,x10
    64e8:	feaa60e3          	bltu	x20,x10,64c8 <mount_volume+0x364>
    64ec:	02c12983          	lw	x19,44(x2)
    64f0:	02812a03          	lw	x20,40(x2)
    64f4:	d3dff06f          	j	6230 <mount_volume+0xcc>
    64f8:	02c12983          	lw	x19,44(x2)
    64fc:	02812a03          	lw	x20,40(x2)
    6500:	d21ff06f          	j	6220 <mount_volume+0xbc>
    6504:	00b00793          	li	x15,11
    6508:	04000693          	li	x13,64
    650c:	00f48733          	add	x14,x9,x15
    6510:	03c74703          	lbu	x14,60(x14)
    6514:	12071063          	bnez	x14,6634 <mount_volume+0x4d0>
    6518:	00178793          	add	x15,x15,1
    651c:	fed798e3          	bne	x15,x13,650c <mount_volume+0x3a8>
    6520:	03312623          	sw	x19,44(x2)
    6524:	03412423          	sw	x20,40(x2)
    6528:	0a54c783          	lbu	x15,165(x9)
    652c:	00879793          	sll	x15,x15,0x8
    6530:	0a44c703          	lbu	x14,164(x9)
    6534:	00e7e7b3          	or	x15,x15,x14
    6538:	01079793          	sll	x15,x15,0x10
    653c:	4107d793          	sra	x15,x15,0x10
    6540:	10000713          	li	x14,256
    6544:	42e79e63          	bne	x15,x14,6980 <mount_volume+0x81c>
    6548:	0a84c703          	lbu	x14,168(x9)
    654c:	00900793          	li	x15,9
    6550:	32f71a63          	bne	x14,x15,6884 <mount_volume+0x720>
    6554:	08448513          	add	x10,x9,132
    6558:	9a4fd0ef          	jal	36fc <ld_qword>
    655c:	00a907b3          	add	x15,x18,x10
    6560:	0127ba33          	sltu	x20,x15,x18
    6564:	00078993          	mv	x19,x15
    6568:	00ba0a33          	add	x20,x20,x11
    656c:	320a1663          	bnez	x20,6898 <mount_volume+0x734>
    6570:	09048513          	add	x10,x9,144
    6574:	95cfd0ef          	jal	36d0 <ld_dword>
    6578:	02a4a023          	sw	x10,32(x9)
    657c:	0aa4c783          	lbu	x15,170(x9)
    6580:	00f481a3          	sb	x15,3(x9)
    6584:	00100713          	li	x14,1
    6588:	32e79263          	bne	x15,x14,68ac <mount_volume+0x748>
    658c:	03612023          	sw	x22,32(x2)
    6590:	0a94c783          	lbu	x15,169(x9)
    6594:	00100b13          	li	x22,1
    6598:	00fb1b33          	sll	x22,x22,x15
    659c:	010b1793          	sll	x15,x22,0x10
    65a0:	0107d793          	srl	x15,x15,0x10
    65a4:	00f49523          	sh	x15,10(x9)
    65a8:	30078c63          	beqz	x15,68c0 <mount_volume+0x75c>
    65ac:	01712e23          	sw	x23,28(x2)
    65b0:	09848513          	add	x10,x9,152
    65b4:	91cfd0ef          	jal	36d0 <ld_dword>
    65b8:	00050b93          	mv	x23,x10
    65bc:	800007b7          	lui	x15,0x80000
    65c0:	ffd78793          	add	x15,x15,-3 # 7ffffffd <STACK_TOP+0x7feffffd>
    65c4:	30a7ea63          	bltu	x15,x10,68d8 <mount_volume+0x774>
    65c8:	03512223          	sw	x21,36(x2)
    65cc:	00250793          	add	x15,x10,2
    65d0:	00f4ae23          	sw	x15,28(x9)
    65d4:	0324a223          	sw	x18,36(x9)
    65d8:	09448513          	add	x10,x9,148
    65dc:	8f4fd0ef          	jal	36d0 <ld_dword>
    65e0:	01250ab3          	add	x21,x10,x18
    65e4:	0354a823          	sw	x21,48(x9)
    65e8:	08c48513          	add	x10,x9,140
    65ec:	8e4fd0ef          	jal	36d0 <ld_dword>
    65f0:	012507b3          	add	x15,x10,x18
    65f4:	02f4a423          	sw	x15,40(x9)
    65f8:	000b8593          	mv	x11,x23
    65fc:	010b1513          	sll	x10,x22,0x10
    6600:	01055513          	srl	x10,x10,0x10
    6604:	77d040ef          	jal	b580 <__mulsi3>
    6608:	01550ab3          	add	x21,x10,x21
    660c:	00aab533          	sltu	x10,x21,x10
    6610:	02aa6a63          	bltu	x20,x10,6644 <mount_volume+0x4e0>
    6614:	03450663          	beq	x10,x20,6640 <mount_volume+0x4dc>
    6618:	09c48513          	add	x10,x9,156
    661c:	8b4fd0ef          	jal	36d0 <ld_dword>
    6620:	02a4a623          	sw	x10,44(x9)
    6624:	00000913          	li	x18,0
    6628:	00000993          	li	x19,0
    662c:	08100a13          	li	x20,129
    6630:	04c0006f          	j	667c <mount_volume+0x518>
    6634:	00d00413          	li	x8,13
    6638:	03412483          	lw	x9,52(x2)
    663c:	20c0006f          	j	6848 <mount_volume+0x6e4>
    6640:	fd59fce3          	bgeu	x19,x21,6618 <mount_volume+0x4b4>
    6644:	00d00413          	li	x8,13
    6648:	03412483          	lw	x9,52(x2)
    664c:	02c12983          	lw	x19,44(x2)
    6650:	02812a03          	lw	x20,40(x2)
    6654:	02412a83          	lw	x21,36(x2)
    6658:	02012b03          	lw	x22,32(x2)
    665c:	01c12b83          	lw	x23,28(x2)
    6660:	1e80006f          	j	6848 <mount_volume+0x6e4>
    6664:	00198993          	add	x19,x19,1
    6668:	012487b3          	add	x15,x9,x18
    666c:	03c7c783          	lbu	x15,60(x15)
    6670:	05478863          	beq	x15,x20,66c0 <mount_volume+0x55c>
    6674:	02090913          	add	x18,x18,32
    6678:	1ff97913          	and	x18,x18,511
    667c:	fe0916e3          	bnez	x18,6668 <mount_volume+0x504>
    6680:	00a4d783          	lhu	x15,10(x9)
    6684:	26f9f863          	bgeu	x19,x15,68f4 <mount_volume+0x790>
    6688:	02c4a583          	lw	x11,44(x9)
    668c:	00048513          	mv	x10,x9
    6690:	92cfd0ef          	jal	37bc <clst2sect>
    6694:	013505b3          	add	x11,x10,x19
    6698:	00048513          	mv	x10,x9
    669c:	f30fd0ef          	jal	3dcc <move_window>
    66a0:	fc0502e3          	beqz	x10,6664 <mount_volume+0x500>
    66a4:	03412483          	lw	x9,52(x2)
    66a8:	02c12983          	lw	x19,44(x2)
    66ac:	02812a03          	lw	x20,40(x2)
    66b0:	02412a83          	lw	x21,36(x2)
    66b4:	02012b03          	lw	x22,32(x2)
    66b8:	01c12b83          	lw	x23,28(x2)
    66bc:	18c0006f          	j	6848 <mount_volume+0x6e4>
    66c0:	03c48993          	add	x19,x9,60
    66c4:	01490513          	add	x10,x18,20
    66c8:	00a98533          	add	x10,x19,x10
    66cc:	804fd0ef          	jal	36d0 <ld_dword>
    66d0:	00050913          	mv	x18,x10
    66d4:	00100793          	li	x15,1
    66d8:	22a7fe63          	bgeu	x15,x10,6914 <mount_volume+0x7b0>
    66dc:	01c4a783          	lw	x15,28(x9)
    66e0:	24f57a63          	bgeu	x10,x15,6934 <mount_volume+0x7d0>
    66e4:	ffe50593          	add	x11,x10,-2
    66e8:	00a4d503          	lhu	x10,10(x9)
    66ec:	695040ef          	jal	b580 <__mulsi3>
    66f0:	0304a783          	lw	x15,48(x9)
    66f4:	00f507b3          	add	x15,x10,x15
    66f8:	02f4aa23          	sw	x15,52(x9)
    66fc:	fff00a13          	li	x20,-1
    6700:	00795793          	srl	x15,x18,0x7
    6704:	0284a583          	lw	x11,40(x9)
    6708:	00b785b3          	add	x11,x15,x11
    670c:	00048513          	mv	x10,x9
    6710:	ebcfd0ef          	jal	3dcc <move_window>
    6714:	40051863          	bnez	x10,6b24 <mount_volume+0x9c0>
    6718:	07f97513          	and	x10,x18,127
    671c:	00251513          	sll	x10,x10,0x2
    6720:	00a98533          	add	x10,x19,x10
    6724:	fadfc0ef          	jal	36d0 <ld_dword>
    6728:	03450663          	beq	x10,x20,6754 <mount_volume+0x5f0>
    672c:	00190913          	add	x18,x18,1
    6730:	fd2508e3          	beq	x10,x18,6700 <mount_volume+0x59c>
    6734:	00d00413          	li	x8,13
    6738:	03412483          	lw	x9,52(x2)
    673c:	02c12983          	lw	x19,44(x2)
    6740:	02812a03          	lw	x20,40(x2)
    6744:	02412a83          	lw	x21,36(x2)
    6748:	02012b03          	lw	x22,32(x2)
    674c:	01c12b83          	lw	x23,28(x2)
    6750:	0f80006f          	j	6848 <mount_volume+0x6e4>
    6754:	fff00793          	li	x15,-1
    6758:	00f4ac23          	sw	x15,24(x9)
    675c:	00f4aa23          	sw	x15,20(x9)
    6760:	00400713          	li	x14,4
    6764:	cd5ff06f          	j	6438 <mount_volume+0x2d4>
    6768:	00190593          	add	x11,x18,1
    676c:	00048513          	mv	x10,x9
    6770:	e5cfd0ef          	jal	3dcc <move_window>
    6774:	00300713          	li	x14,3
    6778:	0a051e63          	bnez	x10,6834 <mount_volume+0x6d0>
    677c:	000482a3          	sb	x0,5(x9)
    6780:	23b4c783          	lbu	x15,571(x9)
    6784:	00879793          	sll	x15,x15,0x8
    6788:	23a4c703          	lbu	x14,570(x9)
    678c:	00e7e7b3          	or	x15,x15,x14
    6790:	01079793          	sll	x15,x15,0x10
    6794:	4107d793          	sra	x15,x15,0x10
    6798:	ffffb6b7          	lui	x13,0xffffb
    679c:	a5568693          	add	x13,x13,-1451 # ffffaa55 <STACK_TOP+0xffefaa55>
    67a0:	00300713          	li	x14,3
    67a4:	00d78a63          	beq	x15,x13,67b8 <mount_volume+0x654>
    67a8:	01812c03          	lw	x24,24(x2)
    67ac:	01412c83          	lw	x25,20(x2)
    67b0:	01012d03          	lw	x26,16(x2)
    67b4:	c85ff06f          	j	6438 <mount_volume+0x2d4>
    67b8:	03c48513          	add	x10,x9,60
    67bc:	f15fc0ef          	jal	36d0 <ld_dword>
    67c0:	416157b7          	lui	x15,0x41615
    67c4:	25278793          	add	x15,x15,594 # 41615252 <STACK_TOP+0x41515252>
    67c8:	00300713          	li	x14,3
    67cc:	00f50a63          	beq	x10,x15,67e0 <mount_volume+0x67c>
    67d0:	01812c03          	lw	x24,24(x2)
    67d4:	01412c83          	lw	x25,20(x2)
    67d8:	01012d03          	lw	x26,16(x2)
    67dc:	c5dff06f          	j	6438 <mount_volume+0x2d4>
    67e0:	22048513          	add	x10,x9,544
    67e4:	eedfc0ef          	jal	36d0 <ld_dword>
    67e8:	614177b7          	lui	x15,0x61417
    67ec:	27278793          	add	x15,x15,626 # 61417272 <STACK_TOP+0x61317272>
    67f0:	00300713          	li	x14,3
    67f4:	00f50a63          	beq	x10,x15,6808 <mount_volume+0x6a4>
    67f8:	01812c03          	lw	x24,24(x2)
    67fc:	01412c83          	lw	x25,20(x2)
    6800:	01012d03          	lw	x26,16(x2)
    6804:	c35ff06f          	j	6438 <mount_volume+0x2d4>
    6808:	22448513          	add	x10,x9,548
    680c:	ec5fc0ef          	jal	36d0 <ld_dword>
    6810:	00a4ac23          	sw	x10,24(x9)
    6814:	22848513          	add	x10,x9,552
    6818:	eb9fc0ef          	jal	36d0 <ld_dword>
    681c:	00a4aa23          	sw	x10,20(x9)
    6820:	00300713          	li	x14,3
    6824:	01812c03          	lw	x24,24(x2)
    6828:	01412c83          	lw	x25,20(x2)
    682c:	01012d03          	lw	x26,16(x2)
    6830:	c09ff06f          	j	6438 <mount_volume+0x2d4>
    6834:	01812c03          	lw	x24,24(x2)
    6838:	01412c83          	lw	x25,20(x2)
    683c:	01012d03          	lw	x26,16(x2)
    6840:	bf9ff06f          	j	6438 <mount_volume+0x2d4>
    6844:	00b00413          	li	x8,11
    6848:	00040513          	mv	x10,x8
    684c:	03c12083          	lw	x1,60(x2)
    6850:	03812403          	lw	x8,56(x2)
    6854:	03012903          	lw	x18,48(x2)
    6858:	04010113          	add	x2,x2,64
    685c:	00008067          	ret
    6860:	00c00413          	li	x8,12
    6864:	03412483          	lw	x9,52(x2)
    6868:	fe1ff06f          	j	6848 <mount_volume+0x6e4>
    686c:	00100413          	li	x8,1
    6870:	03412483          	lw	x9,52(x2)
    6874:	fd5ff06f          	j	6848 <mount_volume+0x6e4>
    6878:	00d00413          	li	x8,13
    687c:	03412483          	lw	x9,52(x2)
    6880:	fc9ff06f          	j	6848 <mount_volume+0x6e4>
    6884:	00d00413          	li	x8,13
    6888:	03412483          	lw	x9,52(x2)
    688c:	02c12983          	lw	x19,44(x2)
    6890:	02812a03          	lw	x20,40(x2)
    6894:	fb5ff06f          	j	6848 <mount_volume+0x6e4>
    6898:	00d00413          	li	x8,13
    689c:	03412483          	lw	x9,52(x2)
    68a0:	02c12983          	lw	x19,44(x2)
    68a4:	02812a03          	lw	x20,40(x2)
    68a8:	fa1ff06f          	j	6848 <mount_volume+0x6e4>
    68ac:	00d00413          	li	x8,13
    68b0:	03412483          	lw	x9,52(x2)
    68b4:	02c12983          	lw	x19,44(x2)
    68b8:	02812a03          	lw	x20,40(x2)
    68bc:	f8dff06f          	j	6848 <mount_volume+0x6e4>
    68c0:	00d00413          	li	x8,13
    68c4:	03412483          	lw	x9,52(x2)
    68c8:	02c12983          	lw	x19,44(x2)
    68cc:	02812a03          	lw	x20,40(x2)
    68d0:	02012b03          	lw	x22,32(x2)
    68d4:	f75ff06f          	j	6848 <mount_volume+0x6e4>
    68d8:	00d00413          	li	x8,13
    68dc:	03412483          	lw	x9,52(x2)
    68e0:	02c12983          	lw	x19,44(x2)
    68e4:	02812a03          	lw	x20,40(x2)
    68e8:	02012b03          	lw	x22,32(x2)
    68ec:	01c12b83          	lw	x23,28(x2)
    68f0:	f59ff06f          	j	6848 <mount_volume+0x6e4>
    68f4:	00d00413          	li	x8,13
    68f8:	03412483          	lw	x9,52(x2)
    68fc:	02c12983          	lw	x19,44(x2)
    6900:	02812a03          	lw	x20,40(x2)
    6904:	02412a83          	lw	x21,36(x2)
    6908:	02012b03          	lw	x22,32(x2)
    690c:	01c12b83          	lw	x23,28(x2)
    6910:	f39ff06f          	j	6848 <mount_volume+0x6e4>
    6914:	00d00413          	li	x8,13
    6918:	03412483          	lw	x9,52(x2)
    691c:	02c12983          	lw	x19,44(x2)
    6920:	02812a03          	lw	x20,40(x2)
    6924:	02412a83          	lw	x21,36(x2)
    6928:	02012b03          	lw	x22,32(x2)
    692c:	01c12b83          	lw	x23,28(x2)
    6930:	f19ff06f          	j	6848 <mount_volume+0x6e4>
    6934:	00d00413          	li	x8,13
    6938:	03412483          	lw	x9,52(x2)
    693c:	02c12983          	lw	x19,44(x2)
    6940:	02812a03          	lw	x20,40(x2)
    6944:	02412a83          	lw	x21,36(x2)
    6948:	02012b03          	lw	x22,32(x2)
    694c:	01c12b83          	lw	x23,28(x2)
    6950:	ef9ff06f          	j	6848 <mount_volume+0x6e4>
    6954:	00d00413          	li	x8,13
    6958:	03412483          	lw	x9,52(x2)
    695c:	02c12983          	lw	x19,44(x2)
    6960:	02812a03          	lw	x20,40(x2)
    6964:	02412a83          	lw	x21,36(x2)
    6968:	02012b03          	lw	x22,32(x2)
    696c:	01c12b83          	lw	x23,28(x2)
    6970:	01812c03          	lw	x24,24(x2)
    6974:	01412c83          	lw	x25,20(x2)
    6978:	01012d03          	lw	x26,16(x2)
    697c:	ecdff06f          	j	6848 <mount_volume+0x6e4>
    6980:	00d00413          	li	x8,13
    6984:	03412483          	lw	x9,52(x2)
    6988:	02c12983          	lw	x19,44(x2)
    698c:	02812a03          	lw	x20,40(x2)
    6990:	eb9ff06f          	j	6848 <mount_volume+0x6e4>
    6994:	03412483          	lw	x9,52(x2)
    6998:	02c12983          	lw	x19,44(x2)
    699c:	02812a03          	lw	x20,40(x2)
    69a0:	02412a83          	lw	x21,36(x2)
    69a4:	02012b03          	lw	x22,32(x2)
    69a8:	01c12b83          	lw	x23,28(x2)
    69ac:	01812c03          	lw	x24,24(x2)
    69b0:	01412c83          	lw	x25,20(x2)
    69b4:	01012d03          	lw	x26,16(x2)
    69b8:	e91ff06f          	j	6848 <mount_volume+0x6e4>
    69bc:	03412483          	lw	x9,52(x2)
    69c0:	02c12983          	lw	x19,44(x2)
    69c4:	02812a03          	lw	x20,40(x2)
    69c8:	02412a83          	lw	x21,36(x2)
    69cc:	02012b03          	lw	x22,32(x2)
    69d0:	01c12b83          	lw	x23,28(x2)
    69d4:	01812c03          	lw	x24,24(x2)
    69d8:	01412c83          	lw	x25,20(x2)
    69dc:	01012d03          	lw	x26,16(x2)
    69e0:	e69ff06f          	j	6848 <mount_volume+0x6e4>
    69e4:	00250a13          	add	x20,x10,2
    69e8:	0144ae23          	sw	x20,28(x9)
    69ec:	0324a223          	sw	x18,36(x9)
    69f0:	012c8cb3          	add	x25,x25,x18
    69f4:	0394a423          	sw	x25,40(x9)
    69f8:	01590ab3          	add	x21,x18,x21
    69fc:	0354a823          	sw	x21,48(x9)
    6a00:	0674c783          	lbu	x15,103(x9)
    6a04:	00879793          	sll	x15,x15,0x8
    6a08:	0664c703          	lbu	x14,102(x9)
    6a0c:	00e7e7b3          	or	x15,x15,x14
    6a10:	00fbe7b3          	or	x15,x23,x15
    6a14:	01079793          	sll	x15,x15,0x10
    6a18:	4107d793          	sra	x15,x15,0x10
    6a1c:	00d00413          	li	x8,13
    6a20:	06079463          	bnez	x15,6a88 <mount_volume+0x924>
    6a24:	06848513          	add	x10,x9,104
    6a28:	ca9fc0ef          	jal	36d0 <ld_dword>
    6a2c:	02a4a623          	sw	x10,44(x9)
    6a30:	002a1793          	sll	x15,x20,0x2
    6a34:	1ff78793          	add	x15,x15,511
    6a38:	0097d793          	srl	x15,x15,0x9
    6a3c:	f0f9ece3          	bltu	x19,x15,6954 <mount_volume+0x7f0>
    6a40:	fff00793          	li	x15,-1
    6a44:	00f4ac23          	sw	x15,24(x9)
    6a48:	00f4aa23          	sw	x15,20(x9)
    6a4c:	f8000793          	li	x15,-128
    6a50:	00f482a3          	sb	x15,5(x9)
    6a54:	06d4c783          	lbu	x15,109(x9)
    6a58:	00879793          	sll	x15,x15,0x8
    6a5c:	06c4c703          	lbu	x14,108(x9)
    6a60:	00e7e7b3          	or	x15,x15,x14
    6a64:	01079793          	sll	x15,x15,0x10
    6a68:	4107d793          	sra	x15,x15,0x10
    6a6c:	00100713          	li	x14,1
    6a70:	cee78ce3          	beq	x15,x14,6768 <mount_volume+0x604>
    6a74:	00300713          	li	x14,3
    6a78:	01812c03          	lw	x24,24(x2)
    6a7c:	01412c83          	lw	x25,20(x2)
    6a80:	01012d03          	lw	x26,16(x2)
    6a84:	9b5ff06f          	j	6438 <mount_volume+0x2d4>
    6a88:	03412483          	lw	x9,52(x2)
    6a8c:	02c12983          	lw	x19,44(x2)
    6a90:	02812a03          	lw	x20,40(x2)
    6a94:	02412a83          	lw	x21,36(x2)
    6a98:	02012b03          	lw	x22,32(x2)
    6a9c:	01c12b83          	lw	x23,28(x2)
    6aa0:	01812c03          	lw	x24,24(x2)
    6aa4:	01412c83          	lw	x25,20(x2)
    6aa8:	01012d03          	lw	x26,16(x2)
    6aac:	d9dff06f          	j	6848 <mount_volume+0x6e4>
    6ab0:	00250793          	add	x15,x10,2
    6ab4:	012c8cb3          	add	x25,x25,x18
    6ab8:	00f4ae23          	sw	x15,28(x9)
    6abc:	0324a223          	sw	x18,36(x9)
    6ac0:	0394a423          	sw	x25,40(x9)
    6ac4:	01590933          	add	x18,x18,x21
    6ac8:	0324a823          	sw	x18,48(x9)
    6acc:	00d00413          	li	x8,13
    6ad0:	000b0a63          	beqz	x22,6ae4 <mount_volume+0x980>
    6ad4:	019d0cb3          	add	x25,x26,x25
    6ad8:	00179793          	sll	x15,x15,0x1
    6adc:	00200713          	li	x14,2
    6ae0:	925ff06f          	j	6404 <mount_volume+0x2a0>
    6ae4:	03412483          	lw	x9,52(x2)
    6ae8:	02c12983          	lw	x19,44(x2)
    6aec:	02812a03          	lw	x20,40(x2)
    6af0:	02412a83          	lw	x21,36(x2)
    6af4:	02012b03          	lw	x22,32(x2)
    6af8:	01c12b83          	lw	x23,28(x2)
    6afc:	01812c03          	lw	x24,24(x2)
    6b00:	01412c83          	lw	x25,20(x2)
    6b04:	01012d03          	lw	x26,16(x2)
    6b08:	d41ff06f          	j	6848 <mount_volume+0x6e4>
    6b0c:	03412483          	lw	x9,52(x2)
    6b10:	d39ff06f          	j	6848 <mount_volume+0x6e4>
    6b14:	03412483          	lw	x9,52(x2)
    6b18:	d31ff06f          	j	6848 <mount_volume+0x6e4>
    6b1c:	03412483          	lw	x9,52(x2)
    6b20:	d29ff06f          	j	6848 <mount_volume+0x6e4>
    6b24:	03412483          	lw	x9,52(x2)
    6b28:	02c12983          	lw	x19,44(x2)
    6b2c:	02812a03          	lw	x20,40(x2)
    6b30:	02412a83          	lw	x21,36(x2)
    6b34:	02012b03          	lw	x22,32(x2)
    6b38:	01c12b83          	lw	x23,28(x2)
    6b3c:	d0dff06f          	j	6848 <mount_volume+0x6e4>
    6b40:	03412483          	lw	x9,52(x2)
    6b44:	d05ff06f          	j	6848 <mount_volume+0x6e4>
    6b48:	03412483          	lw	x9,52(x2)
    6b4c:	02c12983          	lw	x19,44(x2)
    6b50:	02412a83          	lw	x21,36(x2)
    6b54:	cf5ff06f          	j	6848 <mount_volume+0x6e4>
    6b58:	03412483          	lw	x9,52(x2)
    6b5c:	02c12983          	lw	x19,44(x2)
    6b60:	02812a03          	lw	x20,40(x2)
    6b64:	02412a83          	lw	x21,36(x2)
    6b68:	ce1ff06f          	j	6848 <mount_volume+0x6e4>
    6b6c:	03412483          	lw	x9,52(x2)
    6b70:	02c12983          	lw	x19,44(x2)
    6b74:	02812a03          	lw	x20,40(x2)
    6b78:	02412a83          	lw	x21,36(x2)
    6b7c:	ccdff06f          	j	6848 <mount_volume+0x6e4>
    6b80:	03412483          	lw	x9,52(x2)
    6b84:	02c12983          	lw	x19,44(x2)
    6b88:	02812a03          	lw	x20,40(x2)
    6b8c:	02412a83          	lw	x21,36(x2)
    6b90:	02012b03          	lw	x22,32(x2)
    6b94:	01c12b83          	lw	x23,28(x2)
    6b98:	cb1ff06f          	j	6848 <mount_volume+0x6e4>
    6b9c:	03412483          	lw	x9,52(x2)
    6ba0:	02c12983          	lw	x19,44(x2)
    6ba4:	02812a03          	lw	x20,40(x2)
    6ba8:	02412a83          	lw	x21,36(x2)
    6bac:	02012b03          	lw	x22,32(x2)
    6bb0:	01c12b83          	lw	x23,28(x2)
    6bb4:	01812c03          	lw	x24,24(x2)
    6bb8:	01412c83          	lw	x25,20(x2)
    6bbc:	c8dff06f          	j	6848 <mount_volume+0x6e4>
    6bc0:	03412483          	lw	x9,52(x2)
    6bc4:	02c12983          	lw	x19,44(x2)
    6bc8:	02812a03          	lw	x20,40(x2)
    6bcc:	02412a83          	lw	x21,36(x2)
    6bd0:	02012b03          	lw	x22,32(x2)
    6bd4:	01c12b83          	lw	x23,28(x2)
    6bd8:	01812c03          	lw	x24,24(x2)
    6bdc:	01412c83          	lw	x25,20(x2)
    6be0:	01012d03          	lw	x26,16(x2)
    6be4:	c65ff06f          	j	6848 <mount_volume+0x6e4>
    6be8:	03412483          	lw	x9,52(x2)
    6bec:	02c12983          	lw	x19,44(x2)
    6bf0:	02812a03          	lw	x20,40(x2)
    6bf4:	02412a83          	lw	x21,36(x2)
    6bf8:	02012b03          	lw	x22,32(x2)
    6bfc:	01c12b83          	lw	x23,28(x2)
    6c00:	01812c03          	lw	x24,24(x2)
    6c04:	01412c83          	lw	x25,20(x2)
    6c08:	01012d03          	lw	x26,16(x2)
    6c0c:	c3dff06f          	j	6848 <mount_volume+0x6e4>
    6c10:	03412483          	lw	x9,52(x2)
    6c14:	02c12983          	lw	x19,44(x2)
    6c18:	02812a03          	lw	x20,40(x2)
    6c1c:	02412a83          	lw	x21,36(x2)
    6c20:	02012b03          	lw	x22,32(x2)
    6c24:	01c12b83          	lw	x23,28(x2)
    6c28:	01812c03          	lw	x24,24(x2)
    6c2c:	01412c83          	lw	x25,20(x2)
    6c30:	01012d03          	lw	x26,16(x2)
    6c34:	c15ff06f          	j	6848 <mount_volume+0x6e4>

00006c38 <dir_read>:
    6c38:	fc010113          	add	x2,x2,-64
    6c3c:	02112e23          	sw	x1,60(x2)
    6c40:	02812c23          	sw	x8,56(x2)
    6c44:	02912a23          	sw	x9,52(x2)
    6c48:	03212823          	sw	x18,48(x2)
    6c4c:	03312623          	sw	x19,44(x2)
    6c50:	03412423          	sw	x20,40(x2)
    6c54:	03512223          	sw	x21,36(x2)
    6c58:	03612023          	sw	x22,32(x2)
    6c5c:	01712e23          	sw	x23,28(x2)
    6c60:	01812c23          	sw	x24,24(x2)
    6c64:	01912a23          	sw	x25,20(x2)
    6c68:	01a12823          	sw	x26,16(x2)
    6c6c:	01b12623          	sw	x27,12(x2)
    6c70:	00050493          	mv	x9,x10
    6c74:	00058b93          	mv	x23,x11
    6c78:	00052903          	lw	x18,0(x10)
    6c7c:	0ff00d93          	li	x27,255
    6c80:	0ff00a13          	li	x20,255
    6c84:	00400413          	li	x8,4
    6c88:	00400993          	li	x19,4
    6c8c:	0e500a93          	li	x21,229
    6c90:	0ff00b13          	li	x22,255
    6c94:	02e00c13          	li	x24,46
    6c98:	00f00d13          	li	x26,15
    6c9c:	08500c93          	li	x25,133
    6ca0:	01c0006f          	j	6cbc <dir_read+0x84>
    6ca4:	07978863          	beq	x15,x25,6d14 <dir_read+0xdc>
    6ca8:	00000593          	li	x11,0
    6cac:	00048513          	mv	x10,x9
    6cb0:	b89fe0ef          	jal	5838 <dir_next>
    6cb4:	00050413          	mv	x8,x10
    6cb8:	1e051263          	bnez	x10,6e9c <dir_read+0x264>
    6cbc:	0384a583          	lw	x11,56(x9)
    6cc0:	1c058063          	beqz	x11,6e80 <dir_read+0x248>
    6cc4:	00090513          	mv	x10,x18
    6cc8:	904fd0ef          	jal	3dcc <move_window>
    6ccc:	00050413          	mv	x8,x10
    6cd0:	1c051663          	bnez	x10,6e9c <dir_read+0x264>
    6cd4:	03c4a503          	lw	x10,60(x9)
    6cd8:	00054783          	lbu	x15,0(x10)
    6cdc:	1a078e63          	beqz	x15,6e98 <dir_read+0x260>
    6ce0:	00094703          	lbu	x14,0(x18)
    6ce4:	fd3700e3          	beq	x14,x19,6ca4 <dir_read+0x6c>
    6ce8:	00b54703          	lbu	x14,11(x10)
    6cec:	03f77713          	and	x14,x14,63
    6cf0:	00e48323          	sb	x14,6(x9)
    6cf4:	17578663          	beq	x15,x21,6e60 <dir_read+0x228>
    6cf8:	17878863          	beq	x15,x24,6e68 <dir_read+0x230>
    6cfc:	fdf77693          	and	x13,x14,-33
    6d00:	ff868693          	add	x13,x13,-8
    6d04:	0016b693          	seqz	x13,x13
    6d08:	03768a63          	beq	x13,x23,6d3c <dir_read+0x104>
    6d0c:	000b0a13          	mv	x20,x22
    6d10:	f99ff06f          	j	6ca8 <dir_read+0x70>
    6d14:	0304a783          	lw	x15,48(x9)
    6d18:	04f4a623          	sw	x15,76(x9)
    6d1c:	00048513          	mv	x10,x9
    6d20:	ef1fe0ef          	jal	5c10 <load_xdir>
    6d24:	16051263          	bnez	x10,6e88 <dir_read+0x250>
    6d28:	01092783          	lw	x15,16(x18)
    6d2c:	0047c783          	lbu	x15,4(x15)
    6d30:	03f7f793          	and	x15,x15,63
    6d34:	00f48323          	sb	x15,6(x9)
    6d38:	1680006f          	j	6ea0 <dir_read+0x268>
    6d3c:	11a71663          	bne	x14,x26,6e48 <dir_read+0x210>
    6d40:	0407f713          	and	x14,x15,64
    6d44:	06070e63          	beqz	x14,6dc0 <dir_read+0x188>
    6d48:	00d54d83          	lbu	x27,13(x10)
    6d4c:	0bf7f793          	and	x15,x15,191
    6d50:	0304a703          	lw	x14,48(x9)
    6d54:	04e4a623          	sw	x14,76(x9)
    6d58:	00d54703          	lbu	x14,13(x10)
    6d5c:	0ff00a13          	li	x20,255
    6d60:	f5b714e3          	bne	x14,x27,6ca8 <dir_read+0x70>
    6d64:	00c92883          	lw	x17,12(x18)
    6d68:	01b54703          	lbu	x14,27(x10)
    6d6c:	00871713          	sll	x14,x14,0x8
    6d70:	01a54683          	lbu	x13,26(x10)
    6d74:	00d76733          	or	x14,x14,x13
    6d78:	01071713          	sll	x14,x14,0x10
    6d7c:	41075713          	sra	x14,x14,0x10
    6d80:	10071863          	bnez	x14,6e90 <dir_read+0x258>
    6d84:	00054703          	lbu	x14,0(x10)
    6d88:	fbf77713          	and	x14,x14,-65
    6d8c:	fff70713          	add	x14,x14,-1
    6d90:	00171593          	sll	x11,x14,0x1
    6d94:	00e585b3          	add	x11,x11,x14
    6d98:	00259593          	sll	x11,x11,0x2
    6d9c:	00e585b3          	add	x11,x11,x14
    6da0:	0000f637          	lui	x12,0xf
    6da4:	28860613          	add	x12,x12,648 # f288 <LfnOfs>
    6da8:	00d60e13          	add	x28,x12,13
    6dac:	00100813          	li	x16,1
    6db0:	00010337          	lui	x6,0x10
    6db4:	fff30313          	add	x6,x6,-1 # ffff <load_fname_cheat+0x12b>
    6db8:	0ff00e93          	li	x29,255
    6dbc:	01c0006f          	j	6dd8 <dir_read+0x1a0>
    6dc0:	f8fa0ce3          	beq	x20,x15,6d58 <dir_read+0x120>
    6dc4:	0ff00a13          	li	x20,255
    6dc8:	ee1ff06f          	j	6ca8 <dir_read+0x70>
    6dcc:	0a671663          	bne	x14,x6,6e78 <dir_read+0x240>
    6dd0:	00160613          	add	x12,x12,1
    6dd4:	05c60263          	beq	x12,x28,6e18 <dir_read+0x1e0>
    6dd8:	00064683          	lbu	x13,0(x12)
    6ddc:	00d506b3          	add	x13,x10,x13
    6de0:	0016c703          	lbu	x14,1(x13)
    6de4:	00871713          	sll	x14,x14,0x8
    6de8:	0006c683          	lbu	x13,0(x13)
    6dec:	00d76733          	or	x14,x14,x13
    6df0:	01071713          	sll	x14,x14,0x10
    6df4:	01075713          	srl	x14,x14,0x10
    6df8:	fc080ae3          	beqz	x16,6dcc <dir_read+0x194>
    6dfc:	06beea63          	bltu	x29,x11,6e70 <dir_read+0x238>
    6e00:	00159693          	sll	x13,x11,0x1
    6e04:	00d886b3          	add	x13,x17,x13
    6e08:	00e69023          	sh	x14,0(x13)
    6e0c:	00070813          	mv	x16,x14
    6e10:	00158593          	add	x11,x11,1
    6e14:	fbdff06f          	j	6dd0 <dir_read+0x198>
    6e18:	00054703          	lbu	x14,0(x10)
    6e1c:	04077713          	and	x14,x14,64
    6e20:	00070e63          	beqz	x14,6e3c <dir_read+0x204>
    6e24:	00080c63          	beqz	x16,6e3c <dir_read+0x204>
    6e28:	0ff00713          	li	x14,255
    6e2c:	06b76263          	bltu	x14,x11,6e90 <dir_read+0x258>
    6e30:	00159593          	sll	x11,x11,0x1
    6e34:	00b888b3          	add	x17,x17,x11
    6e38:	00089023          	sh	x0,0(x17)
    6e3c:	fff78793          	add	x15,x15,-1
    6e40:	0ff7fa13          	zext.b	x20,x15
    6e44:	e65ff06f          	j	6ca8 <dir_read+0x70>
    6e48:	000a1663          	bnez	x20,6e54 <dir_read+0x21c>
    6e4c:	9b9fc0ef          	jal	3804 <sum_sfn>
    6e50:	05b50863          	beq	x10,x27,6ea0 <dir_read+0x268>
    6e54:	fff00793          	li	x15,-1
    6e58:	04f4a623          	sw	x15,76(x9)
    6e5c:	0440006f          	j	6ea0 <dir_read+0x268>
    6e60:	000b0a13          	mv	x20,x22
    6e64:	e45ff06f          	j	6ca8 <dir_read+0x70>
    6e68:	000b0a13          	mv	x20,x22
    6e6c:	e3dff06f          	j	6ca8 <dir_read+0x70>
    6e70:	0ff00a13          	li	x20,255
    6e74:	e35ff06f          	j	6ca8 <dir_read+0x70>
    6e78:	0ff00a13          	li	x20,255
    6e7c:	e2dff06f          	j	6ca8 <dir_read+0x70>
    6e80:	02040063          	beqz	x8,6ea0 <dir_read+0x268>
    6e84:	0180006f          	j	6e9c <dir_read+0x264>
    6e88:	00050413          	mv	x8,x10
    6e8c:	0100006f          	j	6e9c <dir_read+0x264>
    6e90:	0ff00a13          	li	x20,255
    6e94:	e15ff06f          	j	6ca8 <dir_read+0x70>
    6e98:	00400413          	li	x8,4
    6e9c:	0204ac23          	sw	x0,56(x9)
    6ea0:	00040513          	mv	x10,x8
    6ea4:	03c12083          	lw	x1,60(x2)
    6ea8:	03812403          	lw	x8,56(x2)
    6eac:	03412483          	lw	x9,52(x2)
    6eb0:	03012903          	lw	x18,48(x2)
    6eb4:	02c12983          	lw	x19,44(x2)
    6eb8:	02812a03          	lw	x20,40(x2)
    6ebc:	02412a83          	lw	x21,36(x2)
    6ec0:	02012b03          	lw	x22,32(x2)
    6ec4:	01c12b83          	lw	x23,28(x2)
    6ec8:	01812c03          	lw	x24,24(x2)
    6ecc:	01412c83          	lw	x25,20(x2)
    6ed0:	01012d03          	lw	x26,16(x2)
    6ed4:	00c12d83          	lw	x27,12(x2)
    6ed8:	04010113          	add	x2,x2,64
    6edc:	00008067          	ret

00006ee0 <dir_find>:
    6ee0:	fb010113          	add	x2,x2,-80
    6ee4:	04112623          	sw	x1,76(x2)
    6ee8:	04812423          	sw	x8,72(x2)
    6eec:	03312e23          	sw	x19,60(x2)
    6ef0:	03812423          	sw	x24,40(x2)
    6ef4:	00050413          	mv	x8,x10
    6ef8:	00052983          	lw	x19,0(x10)
    6efc:	00000593          	li	x11,0
    6f00:	ee1fd0ef          	jal	4de0 <dir_sdi>
    6f04:	00050c13          	mv	x24,x10
    6f08:	3e051463          	bnez	x10,72f0 <dir_find+0x410>
    6f0c:	04912223          	sw	x9,68(x2)
    6f10:	05212023          	sw	x18,64(x2)
    6f14:	03412c23          	sw	x20,56(x2)
    6f18:	03512a23          	sw	x21,52(x2)
    6f1c:	03612823          	sw	x22,48(x2)
    6f20:	0009c703          	lbu	x14,0(x19)
    6f24:	00400793          	li	x15,4
    6f28:	02f70a63          	beq	x14,x15,6f5c <dir_find+0x7c>
    6f2c:	03712623          	sw	x23,44(x2)
    6f30:	03912223          	sw	x25,36(x2)
    6f34:	03a12023          	sw	x26,32(x2)
    6f38:	fff00793          	li	x15,-1
    6f3c:	04f42623          	sw	x15,76(x8)
    6f40:	0ff00c93          	li	x25,255
    6f44:	0ff00d13          	li	x26,255
    6f48:	0e500a13          	li	x20,229
    6f4c:	fff00b13          	li	x22,-1
    6f50:	0ff00a93          	li	x21,255
    6f54:	00f00b93          	li	x23,15
    6f58:	10c0006f          	j	7064 <dir_find+0x184>
    6f5c:	00c9a503          	lw	x10,12(x19)
    6f60:	944fd0ef          	jal	40a4 <xname_sum>
    6f64:	00050a93          	mv	x21,x10
    6f68:	0800006f          	j	6fe8 <dir_find+0x108>
    6f6c:	0109a783          	lw	x15,16(x19)
    6f70:	009787b3          	add	x15,x15,x9
    6f74:	0017c503          	lbu	x10,1(x15)
    6f78:	00851513          	sll	x10,x10,0x8
    6f7c:	0007c783          	lbu	x15,0(x15)
    6f80:	00f56533          	or	x10,x10,x15
    6f84:	01051513          	sll	x10,x10,0x10
    6f88:	01055513          	srl	x10,x10,0x10
    6f8c:	4c4040ef          	jal	b450 <ff_wtoupper>
    6f90:	00050b13          	mv	x22,x10
    6f94:	00c9a783          	lw	x15,12(x19)
    6f98:	001a1713          	sll	x14,x20,0x1
    6f9c:	00e787b3          	add	x15,x15,x14
    6fa0:	0007d503          	lhu	x10,0(x15)
    6fa4:	4ac040ef          	jal	b450 <ff_wtoupper>
    6fa8:	04ab1063          	bne	x22,x10,6fe8 <dir_find+0x108>
    6fac:	fff90913          	add	x18,x18,-1
    6fb0:	0ff97913          	zext.b	x18,x18
    6fb4:	00248493          	add	x9,x9,2
    6fb8:	001a0a13          	add	x20,x20,1
    6fbc:	00090c63          	beqz	x18,6fd4 <dir_find+0xf4>
    6fc0:	01f4f793          	and	x15,x9,31
    6fc4:	fa0794e3          	bnez	x15,6f6c <dir_find+0x8c>
    6fc8:	00248493          	add	x9,x9,2
    6fcc:	fa1ff06f          	j	6f6c <dir_find+0x8c>
    6fd0:	000c0a13          	mv	x20,x24
    6fd4:	00c9a783          	lw	x15,12(x19)
    6fd8:	001a1a13          	sll	x20,x20,0x1
    6fdc:	014787b3          	add	x15,x15,x20
    6fe0:	0007d783          	lhu	x15,0(x15)
    6fe4:	2c078a63          	beqz	x15,72b8 <dir_find+0x3d8>
    6fe8:	00000593          	li	x11,0
    6fec:	00040513          	mv	x10,x8
    6ff0:	c49ff0ef          	jal	6c38 <dir_read>
    6ff4:	00050c13          	mv	x24,x10
    6ff8:	02051c63          	bnez	x10,7030 <dir_find+0x150>
    6ffc:	0109a703          	lw	x14,16(x19)
    7000:	02574783          	lbu	x15,37(x14)
    7004:	00879793          	sll	x15,x15,0x8
    7008:	02474683          	lbu	x13,36(x14)
    700c:	00d7e7b3          	or	x15,x15,x13
    7010:	01079793          	sll	x15,x15,0x10
    7014:	0107d793          	srl	x15,x15,0x10
    7018:	fcfa98e3          	bne	x21,x15,6fe8 <dir_find+0x108>
    701c:	02374903          	lbu	x18,35(x14)
    7020:	fa0908e3          	beqz	x18,6fd0 <dir_find+0xf0>
    7024:	000c0a13          	mv	x20,x24
    7028:	04000493          	li	x9,64
    702c:	f95ff06f          	j	6fc0 <dir_find+0xe0>
    7030:	04412483          	lw	x9,68(x2)
    7034:	04012903          	lw	x18,64(x2)
    7038:	03812a03          	lw	x20,56(x2)
    703c:	03412a83          	lw	x21,52(x2)
    7040:	03012b03          	lw	x22,48(x2)
    7044:	2ac0006f          	j	72f0 <dir_find+0x410>
    7048:	05642623          	sw	x22,76(x8)
    704c:	000a8d13          	mv	x26,x21
    7050:	00000593          	li	x11,0
    7054:	00040513          	mv	x10,x8
    7058:	fe0fe0ef          	jal	5838 <dir_next>
    705c:	00050c13          	mv	x24,x10
    7060:	20051663          	bnez	x10,726c <dir_find+0x38c>
    7064:	03842583          	lw	x11,56(x8)
    7068:	00098513          	mv	x10,x19
    706c:	d61fc0ef          	jal	3dcc <move_window>
    7070:	00050c13          	mv	x24,x10
    7074:	24051e63          	bnez	x10,72d0 <dir_find+0x3f0>
    7078:	03c42483          	lw	x9,60(x8)
    707c:	0004c903          	lbu	x18,0(x9)
    7080:	20090863          	beqz	x18,7290 <dir_find+0x3b0>
    7084:	00b4c783          	lbu	x15,11(x9)
    7088:	03f7f713          	and	x14,x15,63
    708c:	00e40323          	sb	x14,6(x8)
    7090:	fb490ce3          	beq	x18,x20,7048 <dir_find+0x168>
    7094:	0087f793          	and	x15,x15,8
    7098:	08078c63          	beqz	x15,7130 <dir_find+0x250>
    709c:	fb7716e3          	bne	x14,x23,7048 <dir_find+0x168>
    70a0:	04b44783          	lbu	x15,75(x8)
    70a4:	0407f793          	and	x15,x15,64
    70a8:	fa0794e3          	bnez	x15,7050 <dir_find+0x170>
    70ac:	04097793          	and	x15,x18,64
    70b0:	0a078663          	beqz	x15,715c <dir_find+0x27c>
    70b4:	00d4cc83          	lbu	x25,13(x9)
    70b8:	0bf97913          	and	x18,x18,191
    70bc:	03042783          	lw	x15,48(x8)
    70c0:	04f42623          	sw	x15,76(x8)
    70c4:	00d4c783          	lbu	x15,13(x9)
    70c8:	0ff00d13          	li	x26,255
    70cc:	f99792e3          	bne	x15,x25,7050 <dir_find+0x170>
    70d0:	01b4c783          	lbu	x15,27(x9)
    70d4:	00879793          	sll	x15,x15,0x8
    70d8:	01a4c703          	lbu	x14,26(x9)
    70dc:	00e7e7b3          	or	x15,x15,x14
    70e0:	01079793          	sll	x15,x15,0x10
    70e4:	4107d793          	sra	x15,x15,0x10
    70e8:	f60794e3          	bnez	x15,7050 <dir_find+0x170>
    70ec:	01b12e23          	sw	x27,28(x2)
    70f0:	00c9a783          	lw	x15,12(x19)
    70f4:	00f12423          	sw	x15,8(x2)
    70f8:	0004c783          	lbu	x15,0(x9)
    70fc:	03f7f793          	and	x15,x15,63
    7100:	fff78793          	add	x15,x15,-1
    7104:	00179d13          	sll	x26,x15,0x1
    7108:	00fd0d33          	add	x26,x26,x15
    710c:	002d1d13          	sll	x26,x26,0x2
    7110:	00fd0d33          	add	x26,x26,x15
    7114:	0000fdb7          	lui	x27,0xf
    7118:	288d8d93          	add	x27,x27,648 # f288 <LfnOfs>
    711c:	00100713          	li	x14,1
    7120:	000107b7          	lui	x15,0x10
    7124:	fff78793          	add	x15,x15,-1 # ffff <load_fname_cheat+0x12b>
    7128:	00f12623          	sw	x15,12(x2)
    712c:	0540006f          	j	7180 <dir_find+0x2a0>
    7130:	f77708e3          	beq	x14,x23,70a0 <dir_find+0x1c0>
    7134:	000d1863          	bnez	x26,7144 <dir_find+0x264>
    7138:	00048513          	mv	x10,x9
    713c:	ec8fc0ef          	jal	3804 <sum_sfn>
    7140:	1d950663          	beq	x10,x25,730c <dir_find+0x42c>
    7144:	04b44783          	lbu	x15,75(x8)
    7148:	0017f793          	and	x15,x15,1
    714c:	0e078463          	beqz	x15,7234 <dir_find+0x354>
    7150:	05642623          	sw	x22,76(x8)
    7154:	000a8d13          	mv	x26,x21
    7158:	ef9ff06f          	j	7050 <dir_find+0x170>
    715c:	f72d04e3          	beq	x26,x18,70c4 <dir_find+0x1e4>
    7160:	000a8d13          	mv	x26,x21
    7164:	eedff06f          	j	7050 <dir_find+0x170>
    7168:	00c12783          	lw	x15,12(x2)
    716c:	0afc1e63          	bne	x24,x15,7228 <dir_find+0x348>
    7170:	001d8d93          	add	x27,x27,1
    7174:	0000f7b7          	lui	x15,0xf
    7178:	29578793          	add	x15,x15,661 # f295 <LfnOfs+0xd>
    717c:	06fd8663          	beq	x27,x15,71e8 <dir_find+0x308>
    7180:	000dc783          	lbu	x15,0(x27)
    7184:	00f487b3          	add	x15,x9,x15
    7188:	0017cc03          	lbu	x24,1(x15)
    718c:	008c1c13          	sll	x24,x24,0x8
    7190:	0007c783          	lbu	x15,0(x15)
    7194:	00fc6c33          	or	x24,x24,x15
    7198:	010c1c13          	sll	x24,x24,0x10
    719c:	010c5c13          	srl	x24,x24,0x10
    71a0:	fc0704e3          	beqz	x14,7168 <dir_find+0x288>
    71a4:	0ff00793          	li	x15,255
    71a8:	09a7e063          	bltu	x15,x26,7228 <dir_find+0x348>
    71ac:	000c0513          	mv	x10,x24
    71b0:	2a0040ef          	jal	b450 <ff_wtoupper>
    71b4:	00a12023          	sw	x10,0(x2)
    71b8:	001d0713          	add	x14,x26,1
    71bc:	00e12223          	sw	x14,4(x2)
    71c0:	001d1d13          	sll	x26,x26,0x1
    71c4:	00812783          	lw	x15,8(x2)
    71c8:	01a78d33          	add	x26,x15,x26
    71cc:	000d5503          	lhu	x10,0(x26)
    71d0:	280040ef          	jal	b450 <ff_wtoupper>
    71d4:	00012783          	lw	x15,0(x2)
    71d8:	04a79863          	bne	x15,x10,7228 <dir_find+0x348>
    71dc:	000c0713          	mv	x14,x24
    71e0:	00412d03          	lw	x26,4(x2)
    71e4:	f8dff06f          	j	7170 <dir_find+0x290>
    71e8:	0004c783          	lbu	x15,0(x9)
    71ec:	0407f793          	and	x15,x15,64
    71f0:	00078e63          	beqz	x15,720c <dir_find+0x32c>
    71f4:	00070c63          	beqz	x14,720c <dir_find+0x32c>
    71f8:	001d1d13          	sll	x26,x26,0x1
    71fc:	00812783          	lw	x15,8(x2)
    7200:	01a787b3          	add	x15,x15,x26
    7204:	0007d783          	lhu	x15,0(x15)
    7208:	00079a63          	bnez	x15,721c <dir_find+0x33c>
    720c:	fff90913          	add	x18,x18,-1
    7210:	0ff97d13          	zext.b	x26,x18
    7214:	01c12d83          	lw	x27,28(x2)
    7218:	e39ff06f          	j	7050 <dir_find+0x170>
    721c:	0ff00d13          	li	x26,255
    7220:	01c12d83          	lw	x27,28(x2)
    7224:	e2dff06f          	j	7050 <dir_find+0x170>
    7228:	0ff00d13          	li	x26,255
    722c:	01c12d83          	lw	x27,28(x2)
    7230:	e21ff06f          	j	7050 <dir_find+0x170>
    7234:	00b00613          	li	x12,11
    7238:	04040593          	add	x11,x8,64
    723c:	00048513          	mv	x10,x9
    7240:	dd8fb0ef          	jal	2818 <memcmp>
    7244:	f00516e3          	bnez	x10,7150 <dir_find+0x270>
    7248:	04412483          	lw	x9,68(x2)
    724c:	04012903          	lw	x18,64(x2)
    7250:	03812a03          	lw	x20,56(x2)
    7254:	03412a83          	lw	x21,52(x2)
    7258:	03012b03          	lw	x22,48(x2)
    725c:	02c12b83          	lw	x23,44(x2)
    7260:	02412c83          	lw	x25,36(x2)
    7264:	02012d03          	lw	x26,32(x2)
    7268:	0880006f          	j	72f0 <dir_find+0x410>
    726c:	04412483          	lw	x9,68(x2)
    7270:	04012903          	lw	x18,64(x2)
    7274:	03812a03          	lw	x20,56(x2)
    7278:	03412a83          	lw	x21,52(x2)
    727c:	03012b03          	lw	x22,48(x2)
    7280:	02c12b83          	lw	x23,44(x2)
    7284:	02412c83          	lw	x25,36(x2)
    7288:	02012d03          	lw	x26,32(x2)
    728c:	0640006f          	j	72f0 <dir_find+0x410>
    7290:	00400c13          	li	x24,4
    7294:	04412483          	lw	x9,68(x2)
    7298:	04012903          	lw	x18,64(x2)
    729c:	03812a03          	lw	x20,56(x2)
    72a0:	03412a83          	lw	x21,52(x2)
    72a4:	03012b03          	lw	x22,48(x2)
    72a8:	02c12b83          	lw	x23,44(x2)
    72ac:	02412c83          	lw	x25,36(x2)
    72b0:	02012d03          	lw	x26,32(x2)
    72b4:	03c0006f          	j	72f0 <dir_find+0x410>
    72b8:	04412483          	lw	x9,68(x2)
    72bc:	04012903          	lw	x18,64(x2)
    72c0:	03812a03          	lw	x20,56(x2)
    72c4:	03412a83          	lw	x21,52(x2)
    72c8:	03012b03          	lw	x22,48(x2)
    72cc:	0240006f          	j	72f0 <dir_find+0x410>
    72d0:	04412483          	lw	x9,68(x2)
    72d4:	04012903          	lw	x18,64(x2)
    72d8:	03812a03          	lw	x20,56(x2)
    72dc:	03412a83          	lw	x21,52(x2)
    72e0:	03012b03          	lw	x22,48(x2)
    72e4:	02c12b83          	lw	x23,44(x2)
    72e8:	02412c83          	lw	x25,36(x2)
    72ec:	02012d03          	lw	x26,32(x2)
    72f0:	000c0513          	mv	x10,x24
    72f4:	04c12083          	lw	x1,76(x2)
    72f8:	04812403          	lw	x8,72(x2)
    72fc:	03c12983          	lw	x19,60(x2)
    7300:	02812c03          	lw	x24,40(x2)
    7304:	05010113          	add	x2,x2,80
    7308:	00008067          	ret
    730c:	04412483          	lw	x9,68(x2)
    7310:	04012903          	lw	x18,64(x2)
    7314:	03812a03          	lw	x20,56(x2)
    7318:	03412a83          	lw	x21,52(x2)
    731c:	03012b03          	lw	x22,48(x2)
    7320:	02c12b83          	lw	x23,44(x2)
    7324:	02412c83          	lw	x25,36(x2)
    7328:	02012d03          	lw	x26,32(x2)
    732c:	fc5ff06f          	j	72f0 <dir_find+0x410>

00007330 <dir_register>:
    7330:	f7010113          	add	x2,x2,-144
    7334:	08112623          	sw	x1,140(x2)
    7338:	08812423          	sw	x8,136(x2)
    733c:	09212023          	sw	x18,128(x2)
    7340:	04b54403          	lbu	x8,75(x10)
    7344:	0a047413          	and	x8,x8,160
    7348:	00600913          	li	x18,6
    734c:	78041063          	bnez	x8,7acc <dir_register+0x79c>
    7350:	08912223          	sw	x9,132(x2)
    7354:	07512a23          	sw	x21,116(x2)
    7358:	07612823          	sw	x22,112(x2)
    735c:	00050493          	mv	x9,x10
    7360:	00052b03          	lw	x22,0(x10)
    7364:	00cb2783          	lw	x15,12(x22)
    7368:	0007d703          	lhu	x14,0(x15)
    736c:	06070c63          	beqz	x14,73e4 <dir_register+0xb4>
    7370:	00278793          	add	x15,x15,2
    7374:	00000a93          	li	x21,0
    7378:	001a8a93          	add	x21,x21,1
    737c:	00278793          	add	x15,x15,2
    7380:	ffe7d703          	lhu	x14,-2(x15)
    7384:	fe071ae3          	bnez	x14,7378 <dir_register+0x48>
    7388:	000b4703          	lbu	x14,0(x22)
    738c:	00400793          	li	x15,4
    7390:	04f70e63          	beq	x14,x15,73ec <dir_register+0xbc>
    7394:	07712623          	sw	x23,108(x2)
    7398:	04048b93          	add	x23,x9,64
    739c:	00c00613          	li	x12,12
    73a0:	000b8593          	mv	x11,x23
    73a4:	05410513          	add	x10,x2,84
    73a8:	bd8fb0ef          	jal	2780 <memcpy>
    73ac:	05f14783          	lbu	x15,95(x2)
    73b0:	0017f793          	and	x15,x15,1
    73b4:	56078063          	beqz	x15,7914 <dir_register+0x5e4>
    73b8:	07312e23          	sw	x19,124(x2)
    73bc:	07412c23          	sw	x20,120(x2)
    73c0:	07812423          	sw	x24,104(x2)
    73c4:	04000793          	li	x15,64
    73c8:	04f485a3          	sb	x15,75(x9)
    73cc:	00100993          	li	x19,1
    73d0:	00500c13          	li	x24,5
    73d4:	00011437          	lui	x8,0x11
    73d8:	02140413          	add	x8,x8,33 # 11021 <file_names+0x11>
    73dc:	00f00a13          	li	x20,15
    73e0:	3240006f          	j	7704 <dir_register+0x3d4>
    73e4:	00000a93          	li	x21,0
    73e8:	fa1ff06f          	j	7388 <dir_register+0x58>
    73ec:	07312e23          	sw	x19,124(x2)
    73f0:	00f00593          	li	x11,15
    73f4:	00ea8513          	add	x10,x21,14
    73f8:	1b4040ef          	jal	b5ac <__hidden___udivsi3>
    73fc:	00050993          	mv	x19,x10
    7400:	00250593          	add	x11,x10,2
    7404:	00048513          	mv	x10,x9
    7408:	e14fe0ef          	jal	5a1c <dir_alloc>
    740c:	00050913          	mv	x18,x10
    7410:	5e051263          	bnez	x10,79f4 <dir_register+0x6c4>
    7414:	00198793          	add	x15,x19,1
    7418:	00579793          	sll	x15,x15,0x5
    741c:	0304a703          	lw	x14,48(x9)
    7420:	40f707b3          	sub	x15,x14,x15
    7424:	04f4a623          	sw	x15,76(x9)
    7428:	0074c783          	lbu	x15,7(x9)
    742c:	0047f713          	and	x14,x15,4
    7430:	04070863          	beqz	x14,7480 <dir_register+0x150>
    7434:	ffb7f793          	and	x15,x15,-5
    7438:	00f483a3          	sb	x15,7(x9)
    743c:	00048513          	mv	x10,x9
    7440:	998fd0ef          	jal	45d8 <fill_first_frag>
    7444:	00050913          	mv	x18,x10
    7448:	00050c63          	beqz	x10,7460 <dir_register+0x130>
    744c:	08412483          	lw	x9,132(x2)
    7450:	07c12983          	lw	x19,124(x2)
    7454:	07412a83          	lw	x21,116(x2)
    7458:	07012b03          	lw	x22,112(x2)
    745c:	6700006f          	j	7acc <dir_register+0x79c>
    7460:	fff00613          	li	x12,-1
    7464:	0344a583          	lw	x11,52(x9)
    7468:	00048513          	mv	x10,x9
    746c:	8d8fd0ef          	jal	4544 <fill_last_frag>
    7470:	00050913          	mv	x18,x10
    7474:	58051a63          	bnez	x10,7a08 <dir_register+0x6d8>
    7478:	0084a783          	lw	x15,8(x9)
    747c:	04079463          	bnez	x15,74c4 <dir_register+0x194>
    7480:	010b2483          	lw	x9,16(x22)
    7484:	00cb2983          	lw	x19,12(x22)
    7488:	04000613          	li	x12,64
    748c:	00000593          	li	x11,0
    7490:	00048513          	mv	x10,x9
    7494:	b68fb0ef          	jal	27fc <memset>
    7498:	f8500793          	li	x15,-123
    749c:	00f48023          	sb	x15,0(x9)
    74a0:	fc000793          	li	x15,-64
    74a4:	02f48023          	sb	x15,32(x9)
    74a8:	00040613          	mv	x12,x8
    74ac:	00100713          	li	x14,1
    74b0:	04000693          	li	x13,64
    74b4:	fc100813          	li	x16,-63
    74b8:	00200593          	li	x11,2
    74bc:	409585b3          	sub	x11,x11,x9
    74c0:	1380006f          	j	75f8 <dir_register+0x2c8>
    74c4:	0004a783          	lw	x15,0(x9)
    74c8:	00f12023          	sw	x15,0(x2)
    74cc:	0204a783          	lw	x15,32(x9)
    74d0:	00f12423          	sw	x15,8(x2)
    74d4:	0244a783          	lw	x15,36(x9)
    74d8:	00f103a3          	sb	x15,7(x2)
    74dc:	f007f793          	and	x15,x15,-256
    74e0:	00f12823          	sw	x15,16(x2)
    74e4:	00012a23          	sw	x0,20(x2)
    74e8:	00012e23          	sw	x0,28(x2)
    74ec:	0284a583          	lw	x11,40(x9)
    74f0:	04b12623          	sw	x11,76(x2)
    74f4:	00010513          	mv	x10,x2
    74f8:	8e9fd0ef          	jal	4de0 <dir_sdi>
    74fc:	00050913          	mv	x18,x10
    7500:	00050c63          	beqz	x10,7518 <dir_register+0x1e8>
    7504:	08412483          	lw	x9,132(x2)
    7508:	07c12983          	lw	x19,124(x2)
    750c:	07412a83          	lw	x21,116(x2)
    7510:	07012b03          	lw	x22,112(x2)
    7514:	5b80006f          	j	7acc <dir_register+0x79c>
    7518:	00010513          	mv	x10,x2
    751c:	ef4fe0ef          	jal	5c10 <load_xdir>
    7520:	00050913          	mv	x18,x10
    7524:	4e051c63          	bnez	x10,7a1c <dir_register+0x6ec>
    7528:	00ab5783          	lhu	x15,10(x22)
    752c:	00979793          	sll	x15,x15,0x9
    7530:	0104a583          	lw	x11,16(x9)
    7534:	0144a703          	lw	x14,20(x9)
    7538:	00b785b3          	add	x11,x15,x11
    753c:	00f5b7b3          	sltu	x15,x11,x15
    7540:	00e78633          	add	x12,x15,x14
    7544:	00b4a823          	sw	x11,16(x9)
    7548:	00c4aa23          	sw	x12,20(x9)
    754c:	010b2503          	lw	x10,16(x22)
    7550:	03850513          	add	x10,x10,56
    7554:	a2cfc0ef          	jal	3780 <st_qword>
    7558:	010b2503          	lw	x10,16(x22)
    755c:	0104a583          	lw	x11,16(x9)
    7560:	0144a603          	lw	x12,20(x9)
    7564:	02850513          	add	x10,x10,40
    7568:	a18fc0ef          	jal	3780 <st_qword>
    756c:	010b2703          	lw	x14,16(x22)
    7570:	0074c783          	lbu	x15,7(x9)
    7574:	0017e793          	or	x15,x15,1
    7578:	02f700a3          	sb	x15,33(x14)
    757c:	00010513          	mv	x10,x2
    7580:	8cdfe0ef          	jal	5e4c <store_xdir>
    7584:	00050913          	mv	x18,x10
    7588:	ee050ce3          	beqz	x10,7480 <dir_register+0x150>
    758c:	08412483          	lw	x9,132(x2)
    7590:	07c12983          	lw	x19,124(x2)
    7594:	07412a83          	lw	x21,116(x2)
    7598:	07012b03          	lw	x22,112(x2)
    759c:	5300006f          	j	7acc <dir_register+0x79c>
    75a0:	00e78023          	sb	x14,0(x15)
    75a4:	00875693          	srl	x13,x14,0x8
    75a8:	00d780a3          	sb	x13,1(x15)
    75ac:	00f586b3          	add	x13,x11,x15
    75b0:	01f6f913          	and	x18,x13,31
    75b4:	00278793          	add	x15,x15,2
    75b8:	02090263          	beqz	x18,75dc <dir_register+0x2ac>
    75bc:	fe0702e3          	beqz	x14,75a0 <dir_register+0x270>
    75c0:	00161713          	sll	x14,x12,0x1
    75c4:	00e98733          	add	x14,x19,x14
    75c8:	00075703          	lhu	x14,0(x14)
    75cc:	fc070ae3          	beqz	x14,75a0 <dir_register+0x270>
    75d0:	00160613          	add	x12,x12,1
    75d4:	0ff67613          	zext.b	x12,x12
    75d8:	fc9ff06f          	j	75a0 <dir_register+0x270>
    75dc:	00140513          	add	x10,x8,1
    75e0:	0ff57513          	zext.b	x10,x10
    75e4:	00161793          	sll	x15,x12,0x1
    75e8:	00f987b3          	add	x15,x19,x15
    75ec:	0007d783          	lhu	x15,0(x15)
    75f0:	02078063          	beqz	x15,7610 <dir_register+0x2e0>
    75f4:	00050413          	mv	x8,x10
    75f8:	00d487b3          	add	x15,x9,x13
    75fc:	01078023          	sb	x16,0(x15)
    7600:	000780a3          	sb	x0,1(x15)
    7604:	00268693          	add	x13,x13,2
    7608:	00d487b3          	add	x15,x9,x13
    760c:	fb1ff06f          	j	75bc <dir_register+0x28c>
    7610:	02c481a3          	sb	x12,35(x9)
    7614:	00240413          	add	x8,x8,2
    7618:	008480a3          	sb	x8,1(x9)
    761c:	00098513          	mv	x10,x19
    7620:	a85fc0ef          	jal	40a4 <xname_sum>
    7624:	02a48223          	sb	x10,36(x9)
    7628:	00855793          	srl	x15,x10,0x8
    762c:	02f482a3          	sb	x15,37(x9)
    7630:	08412483          	lw	x9,132(x2)
    7634:	07c12983          	lw	x19,124(x2)
    7638:	07412a83          	lw	x21,116(x2)
    763c:	07012b03          	lw	x22,112(x2)
    7640:	48c0006f          	j	7acc <dir_register+0x79c>
    7644:	fff68693          	add	x13,x13,-1
    7648:	02068263          	beqz	x13,766c <dir_register+0x33c>
    764c:	00179793          	sll	x15,x15,0x1
    7650:	00177613          	and	x12,x14,1
    7654:	00f607b3          	add	x15,x12,x15
    7658:	00175713          	srl	x14,x14,0x1
    765c:	00b7f633          	and	x12,x15,x11
    7660:	fe0602e3          	beqz	x12,7644 <dir_register+0x314>
    7664:	0087c7b3          	xor	x15,x15,x8
    7668:	fddff06f          	j	7644 <dir_register+0x314>
    766c:	00095703          	lhu	x14,0(x18)
    7670:	00070863          	beqz	x14,7680 <dir_register+0x350>
    7674:	00290913          	add	x18,x18,2
    7678:	01000693          	li	x13,16
    767c:	fd1ff06f          	j	764c <dir_register+0x31c>
    7680:	00700713          	li	x14,7
    7684:	03900513          	li	x10,57
    7688:	0180006f          	j	76a0 <dir_register+0x370>
    768c:	fff70713          	add	x14,x14,-1
    7690:	00e10633          	add	x12,x2,x14
    7694:	00d600a3          	sb	x13,1(x12)
    7698:	30070863          	beqz	x14,79a8 <dir_register+0x678>
    769c:	30ba7e63          	bgeu	x20,x11,79b8 <dir_register+0x688>
    76a0:	00f7f613          	and	x12,x15,15
    76a4:	03060693          	add	x13,x12,48
    76a8:	00078593          	mv	x11,x15
    76ac:	0047d793          	srl	x15,x15,0x4
    76b0:	fcd57ee3          	bgeu	x10,x13,768c <dir_register+0x35c>
    76b4:	03760693          	add	x13,x12,55
    76b8:	fd5ff06f          	j	768c <dir_register+0x35c>
    76bc:	00178793          	add	x15,x15,1
    76c0:	00f485b3          	add	x11,x9,x15
    76c4:	02d58fa3          	sb	x13,63(x11)
    76c8:	02f66063          	bltu	x12,x15,76e8 <dir_register+0x3b8>
    76cc:	00050693          	mv	x13,x10
    76d0:	fee666e3          	bltu	x12,x14,76bc <dir_register+0x38c>
    76d4:	06070693          	add	x13,x14,96
    76d8:	002686b3          	add	x13,x13,x2
    76dc:	fa06c683          	lbu	x13,-96(x13)
    76e0:	00170713          	add	x14,x14,1
    76e4:	fd9ff06f          	j	76bc <dir_register+0x38c>
    76e8:	00048513          	mv	x10,x9
    76ec:	ff4ff0ef          	jal	6ee0 <dir_find>
    76f0:	00050913          	mv	x18,x10
    76f4:	20051263          	bnez	x10,78f8 <dir_register+0x5c8>
    76f8:	00198993          	add	x19,x19,1
    76fc:	06400793          	li	x15,100
    7700:	02f98863          	beq	x19,x15,7730 <dir_register+0x400>
    7704:	00cb2903          	lw	x18,12(x22)
    7708:	00b00613          	li	x12,11
    770c:	05410593          	add	x11,x2,84
    7710:	000b8513          	mv	x10,x23
    7714:	86cfb0ef          	jal	2780 <memcpy>
    7718:	00098793          	mv	x15,x19
    771c:	f73c72e3          	bgeu	x24,x19,7680 <dir_register+0x350>
    7720:	00095703          	lhu	x14,0(x18)
    7724:	f4070ee3          	beqz	x14,7680 <dir_register+0x350>
    7728:	000105b7          	lui	x11,0x10
    772c:	f49ff06f          	j	7674 <dir_register+0x344>
    7730:	00700913          	li	x18,7
    7734:	08412483          	lw	x9,132(x2)
    7738:	07c12983          	lw	x19,124(x2)
    773c:	07812a03          	lw	x20,120(x2)
    7740:	07412a83          	lw	x21,116(x2)
    7744:	07012b03          	lw	x22,112(x2)
    7748:	06c12b83          	lw	x23,108(x2)
    774c:	06812c03          	lw	x24,104(x2)
    7750:	37c0006f          	j	7acc <dir_register+0x79c>
    7754:	00870a63          	beq	x14,x8,7768 <dir_register+0x438>
    7758:	00179793          	sll	x15,x15,0x1
    775c:	00f80833          	add	x16,x16,x15
    7760:	00085783          	lhu	x15,0(x16)
    7764:	00079463          	bnez	x15,776c <dir_register+0x43c>
    7768:	0408e893          	or	x17,x17,64
    776c:	01158023          	sb	x17,0(x11) # 10000 <load_fname_cheat+0x12c>
    7770:	00100793          	li	x15,1
    7774:	00fb0223          	sb	x15,4(x22)
    7778:	000c0593          	mv	x11,x24
    777c:	00048513          	mv	x10,x9
    7780:	8b8fe0ef          	jal	5838 <dir_next>
    7784:	00050913          	mv	x18,x10
    7788:	30051063          	bnez	x10,7a88 <dir_register+0x758>
    778c:	fff98993          	add	x19,x19,-1
    7790:	06098063          	beqz	x19,77f0 <dir_register+0x4c0>
    7794:	0384a583          	lw	x11,56(x9)
    7798:	000b0513          	mv	x10,x22
    779c:	e30fc0ef          	jal	3dcc <move_window>
    77a0:	00050913          	mv	x18,x10
    77a4:	2a051e63          	bnez	x10,7a60 <dir_register+0x730>
    77a8:	00cb2803          	lw	x16,12(x22)
    77ac:	03c4a583          	lw	x11,60(x9)
    77b0:	0ff9f893          	zext.b	x17,x19
    77b4:	015586a3          	sb	x21,13(x11)
    77b8:	01a585a3          	sb	x26,11(x11)
    77bc:	00058623          	sb	x0,12(x11)
    77c0:	00058d23          	sb	x0,26(x11)
    77c4:	00058da3          	sb	x0,27(x11)
    77c8:	0ff9f713          	zext.b	x14,x19
    77cc:	fff70713          	add	x14,x14,-1
    77d0:	00171793          	sll	x15,x14,0x1
    77d4:	00e787b3          	add	x15,x15,x14
    77d8:	00279793          	sll	x15,x15,0x2
    77dc:	00e787b3          	add	x15,x15,x14
    77e0:	288c8693          	add	x13,x25,648
    77e4:	00d68313          	add	x6,x13,13
    77e8:	000c0713          	mv	x14,x24
    77ec:	0ac0006f          	j	7898 <dir_register+0x568>
    77f0:	07c12983          	lw	x19,124(x2)
    77f4:	07812a03          	lw	x20,120(x2)
    77f8:	06812c03          	lw	x24,104(x2)
    77fc:	06412c83          	lw	x25,100(x2)
    7800:	06012d03          	lw	x26,96(x2)
    7804:	0080006f          	j	780c <dir_register+0x4dc>
    7808:	07c12983          	lw	x19,124(x2)
    780c:	0384a583          	lw	x11,56(x9)
    7810:	000b0513          	mv	x10,x22
    7814:	db8fc0ef          	jal	3dcc <move_window>
    7818:	00050913          	mv	x18,x10
    781c:	00050c63          	beqz	x10,7834 <dir_register+0x504>
    7820:	08412483          	lw	x9,132(x2)
    7824:	07412a83          	lw	x21,116(x2)
    7828:	07012b03          	lw	x22,112(x2)
    782c:	06c12b83          	lw	x23,108(x2)
    7830:	29c0006f          	j	7acc <dir_register+0x79c>
    7834:	02000613          	li	x12,32
    7838:	00000593          	li	x11,0
    783c:	03c4a503          	lw	x10,60(x9)
    7840:	fbdfa0ef          	jal	27fc <memset>
    7844:	00b00613          	li	x12,11
    7848:	000b8593          	mv	x11,x23
    784c:	03c4a503          	lw	x10,60(x9)
    7850:	f31fa0ef          	jal	2780 <memcpy>
    7854:	03c4a703          	lw	x14,60(x9)
    7858:	04b4c783          	lbu	x15,75(x9)
    785c:	0187f793          	and	x15,x15,24
    7860:	00f70623          	sb	x15,12(x14)
    7864:	00100793          	li	x15,1
    7868:	00fb0223          	sb	x15,4(x22)
    786c:	08412483          	lw	x9,132(x2)
    7870:	07412a83          	lw	x21,116(x2)
    7874:	07012b03          	lw	x22,112(x2)
    7878:	06c12b83          	lw	x23,108(x2)
    787c:	2500006f          	j	7acc <dir_register+0x79c>
    7880:	0006c603          	lbu	x12,0(x13)
    7884:	00c58633          	add	x12,x11,x12
    7888:	01460023          	sb	x20,0(x12)
    788c:	014600a3          	sb	x20,1(x12)
    7890:	00168693          	add	x13,x13,1
    7894:	ec6680e3          	beq	x13,x6,7754 <dir_register+0x424>
    7898:	fe8704e3          	beq	x14,x8,7880 <dir_register+0x550>
    789c:	00178613          	add	x12,x15,1
    78a0:	00179793          	sll	x15,x15,0x1
    78a4:	00f807b3          	add	x15,x16,x15
    78a8:	0007d703          	lhu	x14,0(x15)
    78ac:	0006c783          	lbu	x15,0(x13)
    78b0:	00f587b3          	add	x15,x11,x15
    78b4:	00e78023          	sb	x14,0(x15)
    78b8:	00875513          	srl	x10,x14,0x8
    78bc:	00a780a3          	sb	x10,1(x15)
    78c0:	00060793          	mv	x15,x12
    78c4:	fc0716e3          	bnez	x14,7890 <dir_register+0x560>
    78c8:	00040713          	mv	x14,x8
    78cc:	fc5ff06f          	j	7890 <dir_register+0x560>
    78d0:	00100593          	li	x11,1
    78d4:	00048513          	mv	x10,x9
    78d8:	944fe0ef          	jal	5a1c <dir_alloc>
    78dc:	00050913          	mv	x18,x10
    78e0:	f20506e3          	beqz	x10,780c <dir_register+0x4dc>
    78e4:	08412483          	lw	x9,132(x2)
    78e8:	07412a83          	lw	x21,116(x2)
    78ec:	07012b03          	lw	x22,112(x2)
    78f0:	06c12b83          	lw	x23,108(x2)
    78f4:	1d80006f          	j	7acc <dir_register+0x79c>
    78f8:	00400793          	li	x15,4
    78fc:	1af51a63          	bne	x10,x15,7ab0 <dir_register+0x780>
    7900:	05f14783          	lbu	x15,95(x2)
    7904:	04f485a3          	sb	x15,75(x9)
    7908:	07c12983          	lw	x19,124(x2)
    790c:	07812a03          	lw	x20,120(x2)
    7910:	06812c03          	lw	x24,104(x2)
    7914:	05f14783          	lbu	x15,95(x2)
    7918:	0027f793          	and	x15,x15,2
    791c:	fa078ae3          	beqz	x15,78d0 <dir_register+0x5a0>
    7920:	07312e23          	sw	x19,124(x2)
    7924:	00ca8a93          	add	x21,x21,12
    7928:	00d00593          	li	x11,13
    792c:	000a8513          	mv	x10,x21
    7930:	47d030ef          	jal	b5ac <__hidden___udivsi3>
    7934:	00050993          	mv	x19,x10
    7938:	00150593          	add	x11,x10,1
    793c:	00048513          	mv	x10,x9
    7940:	8dcfe0ef          	jal	5a1c <dir_alloc>
    7944:	00050913          	mv	x18,x10
    7948:	0e051463          	bnez	x10,7a30 <dir_register+0x700>
    794c:	00c00793          	li	x15,12
    7950:	eb57fce3          	bgeu	x15,x21,7808 <dir_register+0x4d8>
    7954:	00599793          	sll	x15,x19,0x5
    7958:	0304a583          	lw	x11,48(x9)
    795c:	40f585b3          	sub	x11,x11,x15
    7960:	00048513          	mv	x10,x9
    7964:	c7cfd0ef          	jal	4de0 <dir_sdi>
    7968:	00050913          	mv	x18,x10
    796c:	0c051e63          	bnez	x10,7a48 <dir_register+0x718>
    7970:	07412c23          	sw	x20,120(x2)
    7974:	07812423          	sw	x24,104(x2)
    7978:	07912223          	sw	x25,100(x2)
    797c:	07a12023          	sw	x26,96(x2)
    7980:	000b8513          	mv	x10,x23
    7984:	e81fb0ef          	jal	3804 <sum_sfn>
    7988:	00050a93          	mv	x21,x10
    798c:	00f00d13          	li	x26,15
    7990:	0000fcb7          	lui	x25,0xf
    7994:	00000c13          	li	x24,0
    7998:	00010437          	lui	x8,0x10
    799c:	fff40413          	add	x8,x8,-1 # ffff <load_fname_cheat+0x12b>
    79a0:	fff00a13          	li	x20,-1
    79a4:	df1ff06f          	j	7794 <dir_register+0x464>
    79a8:	07e00793          	li	x15,126
    79ac:	00f10023          	sb	x15,0(x2)
    79b0:	00070793          	mv	x15,x14
    79b4:	0340006f          	j	79e8 <dir_register+0x6b8>
    79b8:	07e00693          	li	x13,126
    79bc:	06070793          	add	x15,x14,96
    79c0:	002787b3          	add	x15,x15,x2
    79c4:	fad78023          	sb	x13,-96(x15)
    79c8:	00000793          	li	x15,0
    79cc:	02000613          	li	x12,32
    79d0:	00f486b3          	add	x13,x9,x15
    79d4:	0406c683          	lbu	x13,64(x13)
    79d8:	00c68863          	beq	x13,x12,79e8 <dir_register+0x6b8>
    79dc:	00178793          	add	x15,x15,1
    79e0:	fef718e3          	bne	x14,x15,79d0 <dir_register+0x6a0>
    79e4:	00070793          	mv	x15,x14
    79e8:	00700613          	li	x12,7
    79ec:	02000513          	li	x10,32
    79f0:	cddff06f          	j	76cc <dir_register+0x39c>
    79f4:	08412483          	lw	x9,132(x2)
    79f8:	07c12983          	lw	x19,124(x2)
    79fc:	07412a83          	lw	x21,116(x2)
    7a00:	07012b03          	lw	x22,112(x2)
    7a04:	0c80006f          	j	7acc <dir_register+0x79c>
    7a08:	08412483          	lw	x9,132(x2)
    7a0c:	07c12983          	lw	x19,124(x2)
    7a10:	07412a83          	lw	x21,116(x2)
    7a14:	07012b03          	lw	x22,112(x2)
    7a18:	0b40006f          	j	7acc <dir_register+0x79c>
    7a1c:	08412483          	lw	x9,132(x2)
    7a20:	07c12983          	lw	x19,124(x2)
    7a24:	07412a83          	lw	x21,116(x2)
    7a28:	07012b03          	lw	x22,112(x2)
    7a2c:	0a00006f          	j	7acc <dir_register+0x79c>
    7a30:	08412483          	lw	x9,132(x2)
    7a34:	07c12983          	lw	x19,124(x2)
    7a38:	07412a83          	lw	x21,116(x2)
    7a3c:	07012b03          	lw	x22,112(x2)
    7a40:	06c12b83          	lw	x23,108(x2)
    7a44:	0880006f          	j	7acc <dir_register+0x79c>
    7a48:	08412483          	lw	x9,132(x2)
    7a4c:	07c12983          	lw	x19,124(x2)
    7a50:	07412a83          	lw	x21,116(x2)
    7a54:	07012b03          	lw	x22,112(x2)
    7a58:	06c12b83          	lw	x23,108(x2)
    7a5c:	0700006f          	j	7acc <dir_register+0x79c>
    7a60:	08412483          	lw	x9,132(x2)
    7a64:	07c12983          	lw	x19,124(x2)
    7a68:	07812a03          	lw	x20,120(x2)
    7a6c:	07412a83          	lw	x21,116(x2)
    7a70:	07012b03          	lw	x22,112(x2)
    7a74:	06c12b83          	lw	x23,108(x2)
    7a78:	06812c03          	lw	x24,104(x2)
    7a7c:	06412c83          	lw	x25,100(x2)
    7a80:	06012d03          	lw	x26,96(x2)
    7a84:	0480006f          	j	7acc <dir_register+0x79c>
    7a88:	08412483          	lw	x9,132(x2)
    7a8c:	07c12983          	lw	x19,124(x2)
    7a90:	07812a03          	lw	x20,120(x2)
    7a94:	07412a83          	lw	x21,116(x2)
    7a98:	07012b03          	lw	x22,112(x2)
    7a9c:	06c12b83          	lw	x23,108(x2)
    7aa0:	06812c03          	lw	x24,104(x2)
    7aa4:	06412c83          	lw	x25,100(x2)
    7aa8:	06012d03          	lw	x26,96(x2)
    7aac:	0200006f          	j	7acc <dir_register+0x79c>
    7ab0:	08412483          	lw	x9,132(x2)
    7ab4:	07c12983          	lw	x19,124(x2)
    7ab8:	07812a03          	lw	x20,120(x2)
    7abc:	07412a83          	lw	x21,116(x2)
    7ac0:	07012b03          	lw	x22,112(x2)
    7ac4:	06c12b83          	lw	x23,108(x2)
    7ac8:	06812c03          	lw	x24,104(x2)
    7acc:	00090513          	mv	x10,x18
    7ad0:	08c12083          	lw	x1,140(x2)
    7ad4:	08812403          	lw	x8,136(x2)
    7ad8:	08012903          	lw	x18,128(x2)
    7adc:	09010113          	add	x2,x2,144
    7ae0:	00008067          	ret

00007ae4 <ld_clust>:
    7ae4:	01b5c783          	lbu	x15,27(x11)
    7ae8:	00879793          	sll	x15,x15,0x8
    7aec:	01a5c703          	lbu	x14,26(x11)
    7af0:	00e7e7b3          	or	x15,x15,x14
    7af4:	01079793          	sll	x15,x15,0x10
    7af8:	0107d793          	srl	x15,x15,0x10
    7afc:	00054683          	lbu	x13,0(x10)
    7b00:	00300713          	li	x14,3
    7b04:	00e68663          	beq	x13,x14,7b10 <ld_clust+0x2c>
    7b08:	00078513          	mv	x10,x15
    7b0c:	00008067          	ret
    7b10:	0155c703          	lbu	x14,21(x11)
    7b14:	00871713          	sll	x14,x14,0x8
    7b18:	0145c683          	lbu	x13,20(x11)
    7b1c:	00d76733          	or	x14,x14,x13
    7b20:	01071713          	sll	x14,x14,0x10
    7b24:	00e7e7b3          	or	x15,x15,x14
    7b28:	fe1ff06f          	j	7b08 <ld_clust+0x24>

00007b2c <follow_path>:
    7b2c:	fb010113          	add	x2,x2,-80
    7b30:	04112623          	sw	x1,76(x2)
    7b34:	05212023          	sw	x18,64(x2)
    7b38:	03712623          	sw	x23,44(x2)
    7b3c:	00050b93          	mv	x23,x10
    7b40:	00058913          	mv	x18,x11
    7b44:	00052783          	lw	x15,0(x10)
    7b48:	00f12223          	sw	x15,4(x2)
    7b4c:	02f00713          	li	x14,47
    7b50:	05c00693          	li	x13,92
    7b54:	0080006f          	j	7b5c <follow_path+0x30>
    7b58:	00190913          	add	x18,x18,1
    7b5c:	00094783          	lbu	x15,0(x18)
    7b60:	fee78ce3          	beq	x15,x14,7b58 <follow_path+0x2c>
    7b64:	fed78ae3          	beq	x15,x13,7b58 <follow_path+0x2c>
    7b68:	000ba423          	sw	x0,8(x23)
    7b6c:	000bae23          	sw	x0,28(x23)
    7b70:	00094703          	lbu	x14,0(x18)
    7b74:	01f00793          	li	x15,31
    7b78:	04e7f063          	bgeu	x15,x14,7bb8 <follow_path+0x8c>
    7b7c:	04812423          	sw	x8,72(x2)
    7b80:	04912223          	sw	x9,68(x2)
    7b84:	03312e23          	sw	x19,60(x2)
    7b88:	03412c23          	sw	x20,56(x2)
    7b8c:	03512a23          	sw	x21,52(x2)
    7b90:	03612823          	sw	x22,48(x2)
    7b94:	03812423          	sw	x24,40(x2)
    7b98:	03912223          	sw	x25,36(x2)
    7b9c:	03a12023          	sw	x26,32(x2)
    7ba0:	01b12e23          	sw	x27,28(x2)
    7ba4:	01f00c13          	li	x24,31
    7ba8:	02f00a13          	li	x20,47
    7bac:	05c00a93          	li	x21,92
    7bb0:	0000fd37          	lui	x26,0xf
    7bb4:	29c0006f          	j	7e50 <follow_path+0x324>
    7bb8:	f8000793          	li	x15,-128
    7bbc:	04fb85a3          	sb	x15,75(x23)
    7bc0:	00000593          	li	x11,0
    7bc4:	000b8513          	mv	x10,x23
    7bc8:	a18fd0ef          	jal	4de0 <dir_sdi>
    7bcc:	04c12083          	lw	x1,76(x2)
    7bd0:	04012903          	lw	x18,64(x2)
    7bd4:	02c12b83          	lw	x23,44(x2)
    7bd8:	05010113          	add	x2,x2,80
    7bdc:	00008067          	ret
    7be0:	1b500593          	li	x11,437
    7be4:	02d030ef          	jal	b410 <ff_oem2uni>
    7be8:	00050413          	mv	x8,x10
    7bec:	52050c63          	beqz	x10,8124 <follow_path+0x5f8>
    7bf0:	02ac7663          	bgeu	x24,x10,7c1c <follow_path+0xf0>
    7bf4:	05450463          	beq	x10,x20,7c3c <follow_path+0x110>
    7bf8:	05550263          	beq	x10,x21,7c3c <follow_path+0x110>
    7bfc:	02ab7463          	bgeu	x22,x10,7c24 <follow_path+0xf8>
    7c00:	53b48263          	beq	x9,x27,8124 <follow_path+0x5f8>
    7c04:	00148493          	add	x9,x9,1
    7c08:	00899023          	sh	x8,0(x19)
    7c0c:	00298993          	add	x19,x19,2
    7c10:	00190913          	add	x18,x18,1
    7c14:	fff94503          	lbu	x10,-1(x18)
    7c18:	fc0514e3          	bnez	x10,7be0 <follow_path+0xb4>
    7c1c:	00400413          	li	x8,4
    7c20:	0300006f          	j	7c50 <follow_path+0x124>
    7c24:	00050593          	mv	x11,x10
    7c28:	13cd0513          	add	x10,x26,316 # f13c <__clzsi2+0x7b0>
    7c2c:	e95fa0ef          	jal	2ac0 <strchr>
    7c30:	fc0508e3          	beqz	x10,7c00 <follow_path+0xd4>
    7c34:	4f00006f          	j	8124 <follow_path+0x5f8>
    7c38:	00190913          	add	x18,x18,1
    7c3c:	00094403          	lbu	x8,0(x18)
    7c40:	ff440ce3          	beq	x8,x20,7c38 <follow_path+0x10c>
    7c44:	ff540ae3          	beq	x8,x21,7c38 <follow_path+0x10c>
    7c48:	02043413          	sltiu	x8,x8,32
    7c4c:	00241413          	sll	x8,x8,0x2
    7c50:	48048a63          	beqz	x9,80e4 <follow_path+0x5b8>
    7c54:	00149793          	sll	x15,x9,0x1
    7c58:	00fc87b3          	add	x15,x25,x15
    7c5c:	02000693          	li	x13,32
    7c60:	02e00613          	li	x12,46
    7c64:	0100006f          	j	7c74 <follow_path+0x148>
    7c68:	fff48493          	add	x9,x9,-1
    7c6c:	ffe78793          	add	x15,x15,-2
    7c70:	4a048863          	beqz	x9,8120 <follow_path+0x5f4>
    7c74:	ffe7d703          	lhu	x14,-2(x15)
    7c78:	fed708e3          	beq	x14,x13,7c68 <follow_path+0x13c>
    7c7c:	fec706e3          	beq	x14,x12,7c68 <follow_path+0x13c>
    7c80:	00149793          	sll	x15,x9,0x1
    7c84:	00fc87b3          	add	x15,x25,x15
    7c88:	00079023          	sh	x0,0(x15)
    7c8c:	48048c63          	beqz	x9,8124 <follow_path+0x5f8>
    7c90:	000cd683          	lhu	x13,0(x25) # f000 <__clzsi2+0x674>
    7c94:	02000713          	li	x14,32
    7c98:	06e69c63          	bne	x13,x14,7d10 <follow_path+0x1e4>
    7c9c:	002c8713          	add	x14,x25,2
    7ca0:	00000993          	li	x19,0
    7ca4:	02000613          	li	x12,32
    7ca8:	00198993          	add	x19,x19,1
    7cac:	00270713          	add	x14,x14,2
    7cb0:	ffe75683          	lhu	x13,-2(x14)
    7cb4:	fec68ae3          	beq	x13,x12,7ca8 <follow_path+0x17c>
    7cb8:	04098c63          	beqz	x19,7d10 <follow_path+0x1e4>
    7cbc:	00346413          	or	x8,x8,3
    7cc0:	0ff47413          	zext.b	x8,x8
    7cc4:	02e00693          	li	x13,46
    7cc8:	ffe7d703          	lhu	x14,-2(x15)
    7ccc:	00d70863          	beq	x14,x13,7cdc <follow_path+0x1b0>
    7cd0:	fff48493          	add	x9,x9,-1
    7cd4:	ffe78793          	add	x15,x15,-2
    7cd8:	fe0498e3          	bnez	x9,7cc8 <follow_path+0x19c>
    7cdc:	00b00613          	li	x12,11
    7ce0:	02000593          	li	x11,32
    7ce4:	040b8513          	add	x10,x23,64
    7ce8:	b15fa0ef          	jal	27fc <memset>
    7cec:	00198b13          	add	x22,x19,1
    7cf0:	00199993          	sll	x19,x19,0x1
    7cf4:	013c89b3          	add	x19,x25,x19
    7cf8:	0009d983          	lhu	x19,0(x19)
    7cfc:	3c098a63          	beqz	x19,80d0 <follow_path+0x5a4>
    7d00:	00012423          	sw	x0,8(x2)
    7d04:	00800d93          	li	x27,8
    7d08:	00012023          	sw	x0,0(x2)
    7d0c:	0380006f          	j	7d44 <follow_path+0x218>
    7d10:	02e00713          	li	x14,46
    7d14:	00000993          	li	x19,0
    7d18:	fae696e3          	bne	x13,x14,7cc4 <follow_path+0x198>
    7d1c:	fa1ff06f          	j	7cbc <follow_path+0x190>
    7d20:	029b0a63          	beq	x22,x9,7d54 <follow_path+0x228>
    7d24:	00346413          	or	x8,x8,3
    7d28:	0ff47413          	zext.b	x8,x8
    7d2c:	000b0793          	mv	x15,x22
    7d30:	00178b13          	add	x22,x15,1
    7d34:	00179793          	sll	x15,x15,0x1
    7d38:	00fc87b3          	add	x15,x25,x15
    7d3c:	0007d983          	lhu	x19,0(x15)
    7d40:	04098e63          	beqz	x19,7d9c <follow_path+0x270>
    7d44:	02000793          	li	x15,32
    7d48:	fcf98ee3          	beq	x19,x15,7d24 <follow_path+0x1f8>
    7d4c:	02e00793          	li	x15,46
    7d50:	fcf988e3          	beq	x19,x15,7d20 <follow_path+0x1f4>
    7d54:	00012783          	lw	x15,0(x2)
    7d58:	03b7f663          	bgeu	x15,x27,7d84 <follow_path+0x258>
    7d5c:	389b0c63          	beq	x22,x9,80f4 <follow_path+0x5c8>
    7d60:	07f00793          	li	x15,127
    7d64:	1337e663          	bltu	x15,x19,7e90 <follow_path+0x364>
    7d68:	00098593          	mv	x11,x19
    7d6c:	0000f537          	lui	x10,0xf
    7d70:	14850513          	add	x10,x10,328 # f148 <__clzsi2+0x7bc>
    7d74:	d4dfa0ef          	jal	2ac0 <strchr>
    7d78:	1c050663          	beqz	x10,7f44 <follow_path+0x418>
    7d7c:	00812623          	sw	x8,12(x2)
    7d80:	14c0006f          	j	7ecc <follow_path+0x3a0>
    7d84:	00b00793          	li	x15,11
    7d88:	0efd8263          	beq	x27,x15,7e6c <follow_path+0x340>
    7d8c:	369b0863          	beq	x22,x9,80fc <follow_path+0x5d0>
    7d90:	00346413          	or	x8,x8,3
    7d94:	0ff47413          	zext.b	x8,x8
    7d98:	3764f263          	bgeu	x9,x22,80fc <follow_path+0x5d0>
    7d9c:	040bc703          	lbu	x14,64(x23)
    7da0:	0e500793          	li	x15,229
    7da4:	0ef70063          	beq	x14,x15,7e84 <follow_path+0x358>
    7da8:	00800793          	li	x15,8
    7dac:	20fd8463          	beq	x27,x15,7fb4 <follow_path+0x488>
    7db0:	00812683          	lw	x13,8(x2)
    7db4:	00c6f793          	and	x15,x13,12
    7db8:	00c00713          	li	x14,12
    7dbc:	00e78863          	beq	x15,x14,7dcc <follow_path+0x2a0>
    7dc0:	0036f793          	and	x15,x13,3
    7dc4:	00300713          	li	x14,3
    7dc8:	00e79663          	bne	x15,x14,7dd4 <follow_path+0x2a8>
    7dcc:	00246413          	or	x8,x8,2
    7dd0:	0ff47413          	zext.b	x8,x8
    7dd4:	00247793          	and	x15,x8,2
    7dd8:	02079263          	bnez	x15,7dfc <follow_path+0x2d0>
    7ddc:	00812703          	lw	x14,8(x2)
    7de0:	00177793          	and	x15,x14,1
    7de4:	00479793          	sll	x15,x15,0x4
    7de8:	00f467b3          	or	x15,x8,x15
    7dec:	0ff7f413          	zext.b	x8,x15
    7df0:	00477793          	and	x15,x14,4
    7df4:	00078463          	beqz	x15,7dfc <follow_path+0x2d0>
    7df8:	00846413          	or	x8,x8,8
    7dfc:	048b85a3          	sb	x8,75(x23)
    7e00:	000b8513          	mv	x10,x23
    7e04:	8dcff0ef          	jal	6ee0 <dir_find>
    7e08:	04bbc783          	lbu	x15,75(x23)
    7e0c:	1c051463          	bnez	x10,7fd4 <follow_path+0x4a8>
    7e10:	0047f793          	and	x15,x15,4
    7e14:	34079063          	bnez	x15,8154 <follow_path+0x628>
    7e18:	006bc783          	lbu	x15,6(x23)
    7e1c:	0107f793          	and	x15,x15,16
    7e20:	28078063          	beqz	x15,80a0 <follow_path+0x574>
    7e24:	00412783          	lw	x15,4(x2)
    7e28:	0007c703          	lbu	x14,0(x15)
    7e2c:	00400793          	li	x15,4
    7e30:	20f70663          	beq	x14,x15,803c <follow_path+0x510>
    7e34:	00412503          	lw	x10,4(x2)
    7e38:	03c50593          	add	x11,x10,60
    7e3c:	030ba783          	lw	x15,48(x23)
    7e40:	1ff7f793          	and	x15,x15,511
    7e44:	00f585b3          	add	x11,x11,x15
    7e48:	c9dff0ef          	jal	7ae4 <ld_clust>
    7e4c:	00aba423          	sw	x10,8(x23)
    7e50:	000ba783          	lw	x15,0(x23)
    7e54:	00c7ac83          	lw	x25,12(x15)
    7e58:	000c8993          	mv	x19,x25
    7e5c:	00000493          	li	x9,0
    7e60:	07f00b13          	li	x22,127
    7e64:	0ff00d93          	li	x27,255
    7e68:	da9ff06f          	j	7c10 <follow_path+0xe4>
    7e6c:	00346413          	or	x8,x8,3
    7e70:	0ff47413          	zext.b	x8,x8
    7e74:	040bc703          	lbu	x14,64(x23)
    7e78:	0e500793          	li	x15,229
    7e7c:	f2f71ae3          	bne	x14,x15,7db0 <follow_path+0x284>
    7e80:	00b00d93          	li	x27,11
    7e84:	00500793          	li	x15,5
    7e88:	04fb8023          	sb	x15,64(x23)
    7e8c:	f1dff06f          	j	7da8 <follow_path+0x27c>
    7e90:	00246793          	or	x15,x8,2
    7e94:	0ff7f793          	zext.b	x15,x15
    7e98:	00f12623          	sw	x15,12(x2)
    7e9c:	1b500593          	li	x11,437
    7ea0:	00098513          	mv	x10,x19
    7ea4:	504030ef          	jal	b3a8 <ff_uni2oem>
    7ea8:	00050993          	mv	x19,x10
    7eac:	08057793          	and	x15,x10,128
    7eb0:	04078463          	beqz	x15,7ef8 <follow_path+0x3cc>
    7eb4:	07f57993          	and	x19,x10,127
    7eb8:	0000f7b7          	lui	x15,0xf
    7ebc:	28878793          	add	x15,x15,648 # f288 <LfnOfs>
    7ec0:	013787b3          	add	x15,x15,x19
    7ec4:	0107c983          	lbu	x19,16(x15)
    7ec8:	06099a63          	bnez	x19,7f3c <follow_path+0x410>
    7ecc:	00c12783          	lw	x15,12(x2)
    7ed0:	0037e793          	or	x15,x15,3
    7ed4:	0ff7f413          	zext.b	x8,x15
    7ed8:	00012783          	lw	x15,0(x2)
    7edc:	05f00993          	li	x19,95
    7ee0:	00178713          	add	x14,x15,1
    7ee4:	00e12023          	sw	x14,0(x2)
    7ee8:	00fb87b3          	add	x15,x23,x15
    7eec:	05378023          	sb	x19,64(x15)
    7ef0:	000b0793          	mv	x15,x22
    7ef4:	e3dff06f          	j	7d30 <follow_path+0x204>
    7ef8:	0ff00793          	li	x15,255
    7efc:	fca7f6e3          	bgeu	x15,x10,7ec8 <follow_path+0x39c>
    7f00:	fffd8793          	add	x15,x27,-1
    7f04:	00012703          	lw	x14,0(x2)
    7f08:	02f77063          	bgeu	x14,x15,7f28 <follow_path+0x3fc>
    7f0c:	00012703          	lw	x14,0(x2)
    7f10:	00170793          	add	x15,x14,1
    7f14:	00eb8733          	add	x14,x23,x14
    7f18:	00855693          	srl	x13,x10,0x8
    7f1c:	04d70023          	sb	x13,64(x14)
    7f20:	00c12403          	lw	x8,12(x2)
    7f24:	fbdff06f          	j	7ee0 <follow_path+0x3b4>
    7f28:	00346413          	or	x8,x8,3
    7f2c:	0ff47413          	zext.b	x8,x8
    7f30:	000b0793          	mv	x15,x22
    7f34:	01b12023          	sw	x27,0(x2)
    7f38:	df9ff06f          	j	7d30 <follow_path+0x204>
    7f3c:	00c12403          	lw	x8,12(x2)
    7f40:	e29ff06f          	j	7d68 <follow_path+0x23c>
    7f44:	fbf98793          	add	x15,x19,-65
    7f48:	01079793          	sll	x15,x15,0x10
    7f4c:	0107d793          	srl	x15,x15,0x10
    7f50:	01900713          	li	x14,25
    7f54:	00f76c63          	bltu	x14,x15,7f6c <follow_path+0x440>
    7f58:	00812783          	lw	x15,8(x2)
    7f5c:	0027e793          	or	x15,x15,2
    7f60:	00f12423          	sw	x15,8(x2)
    7f64:	00012783          	lw	x15,0(x2)
    7f68:	f79ff06f          	j	7ee0 <follow_path+0x3b4>
    7f6c:	f9f98793          	add	x15,x19,-97
    7f70:	01079793          	sll	x15,x15,0x10
    7f74:	0107d793          	srl	x15,x15,0x10
    7f78:	01900713          	li	x14,25
    7f7c:	02f76263          	bltu	x14,x15,7fa0 <follow_path+0x474>
    7f80:	00812783          	lw	x15,8(x2)
    7f84:	0017e793          	or	x15,x15,1
    7f88:	00f12423          	sw	x15,8(x2)
    7f8c:	fe098993          	add	x19,x19,-32
    7f90:	01099993          	sll	x19,x19,0x10
    7f94:	0109d993          	srl	x19,x19,0x10
    7f98:	00012783          	lw	x15,0(x2)
    7f9c:	f45ff06f          	j	7ee0 <follow_path+0x3b4>
    7fa0:	00012783          	lw	x15,0(x2)
    7fa4:	f3dff06f          	j	7ee0 <follow_path+0x3b4>
    7fa8:	00012423          	sw	x0,8(x2)
    7fac:	00800d93          	li	x27,8
    7fb0:	ed5ff06f          	j	7e84 <follow_path+0x358>
    7fb4:	00812783          	lw	x15,8(x2)
    7fb8:	00279793          	sll	x15,x15,0x2
    7fbc:	0ff7f713          	zext.b	x14,x15
    7fc0:	00e12423          	sw	x14,8(x2)
    7fc4:	00c7f793          	and	x15,x15,12
    7fc8:	00c00713          	li	x14,12
    7fcc:	e0e794e3          	bne	x15,x14,7dd4 <follow_path+0x2a8>
    7fd0:	dfdff06f          	j	7dcc <follow_path+0x2a0>
    7fd4:	00400713          	li	x14,4
    7fd8:	02e50863          	beq	x10,x14,8008 <follow_path+0x4dc>
    7fdc:	04812403          	lw	x8,72(x2)
    7fe0:	04412483          	lw	x9,68(x2)
    7fe4:	03c12983          	lw	x19,60(x2)
    7fe8:	03812a03          	lw	x20,56(x2)
    7fec:	03412a83          	lw	x21,52(x2)
    7ff0:	03012b03          	lw	x22,48(x2)
    7ff4:	02812c03          	lw	x24,40(x2)
    7ff8:	02412c83          	lw	x25,36(x2)
    7ffc:	02012d03          	lw	x26,32(x2)
    8000:	01c12d83          	lw	x27,28(x2)
    8004:	bc9ff06f          	j	7bcc <follow_path+0xa0>
    8008:	0047f793          	and	x15,x15,4
    800c:	06078263          	beqz	x15,8070 <follow_path+0x544>
    8010:	04812403          	lw	x8,72(x2)
    8014:	04412483          	lw	x9,68(x2)
    8018:	03c12983          	lw	x19,60(x2)
    801c:	03812a03          	lw	x20,56(x2)
    8020:	03412a83          	lw	x21,52(x2)
    8024:	03012b03          	lw	x22,48(x2)
    8028:	02812c03          	lw	x24,40(x2)
    802c:	02412c83          	lw	x25,36(x2)
    8030:	02012d03          	lw	x26,32(x2)
    8034:	01c12d83          	lw	x27,28(x2)
    8038:	b95ff06f          	j	7bcc <follow_path+0xa0>
    803c:	008ba783          	lw	x15,8(x23)
    8040:	02fba023          	sw	x15,32(x23)
    8044:	010ba783          	lw	x15,16(x23)
    8048:	f007f793          	and	x15,x15,-256
    804c:	007bc703          	lbu	x14,7(x23)
    8050:	00e7e7b3          	or	x15,x15,x14
    8054:	02fba223          	sw	x15,36(x23)
    8058:	04cba783          	lw	x15,76(x23)
    805c:	02fba423          	sw	x15,40(x23)
    8060:	000b8593          	mv	x11,x23
    8064:	00412503          	lw	x10,4(x2)
    8068:	821fb0ef          	jal	3888 <init_alloc_info>
    806c:	de5ff06f          	j	7e50 <follow_path+0x324>
    8070:	00500513          	li	x10,5
    8074:	04812403          	lw	x8,72(x2)
    8078:	04412483          	lw	x9,68(x2)
    807c:	03c12983          	lw	x19,60(x2)
    8080:	03812a03          	lw	x20,56(x2)
    8084:	03412a83          	lw	x21,52(x2)
    8088:	03012b03          	lw	x22,48(x2)
    808c:	02812c03          	lw	x24,40(x2)
    8090:	02412c83          	lw	x25,36(x2)
    8094:	02012d03          	lw	x26,32(x2)
    8098:	01c12d83          	lw	x27,28(x2)
    809c:	b31ff06f          	j	7bcc <follow_path+0xa0>
    80a0:	00500513          	li	x10,5
    80a4:	04812403          	lw	x8,72(x2)
    80a8:	04412483          	lw	x9,68(x2)
    80ac:	03c12983          	lw	x19,60(x2)
    80b0:	03812a03          	lw	x20,56(x2)
    80b4:	03412a83          	lw	x21,52(x2)
    80b8:	03012b03          	lw	x22,48(x2)
    80bc:	02812c03          	lw	x24,40(x2)
    80c0:	02412c83          	lw	x25,36(x2)
    80c4:	02012d03          	lw	x26,32(x2)
    80c8:	01c12d83          	lw	x27,28(x2)
    80cc:	b01ff06f          	j	7bcc <follow_path+0xa0>
    80d0:	040bc703          	lbu	x14,64(x23)
    80d4:	0e500793          	li	x15,229
    80d8:	ecf708e3          	beq	x14,x15,7fa8 <follow_path+0x47c>
    80dc:	00012423          	sw	x0,8(x2)
    80e0:	cf5ff06f          	j	7dd4 <follow_path+0x2a8>
    80e4:	00149793          	sll	x15,x9,0x1
    80e8:	00fc87b3          	add	x15,x25,x15
    80ec:	00079023          	sh	x0,0(x15)
    80f0:	0340006f          	j	8124 <follow_path+0x5f8>
    80f4:	00b00793          	li	x15,11
    80f8:	d6fd8ae3          	beq	x27,x15,7e6c <follow_path+0x340>
    80fc:	00812783          	lw	x15,8(x2)
    8100:	00279793          	sll	x15,x15,0x2
    8104:	0ff7f793          	zext.b	x15,x15
    8108:	00f12423          	sw	x15,8(x2)
    810c:	00048793          	mv	x15,x9
    8110:	00b00d93          	li	x27,11
    8114:	00800713          	li	x14,8
    8118:	00e12023          	sw	x14,0(x2)
    811c:	c15ff06f          	j	7d30 <follow_path+0x204>
    8120:	000c9023          	sh	x0,0(x25)
    8124:	00600513          	li	x10,6
    8128:	04812403          	lw	x8,72(x2)
    812c:	04412483          	lw	x9,68(x2)
    8130:	03c12983          	lw	x19,60(x2)
    8134:	03812a03          	lw	x20,56(x2)
    8138:	03412a83          	lw	x21,52(x2)
    813c:	03012b03          	lw	x22,48(x2)
    8140:	02812c03          	lw	x24,40(x2)
    8144:	02412c83          	lw	x25,36(x2)
    8148:	02012d03          	lw	x26,32(x2)
    814c:	01c12d83          	lw	x27,28(x2)
    8150:	a7dff06f          	j	7bcc <follow_path+0xa0>
    8154:	04812403          	lw	x8,72(x2)
    8158:	04412483          	lw	x9,68(x2)
    815c:	03c12983          	lw	x19,60(x2)
    8160:	03812a03          	lw	x20,56(x2)
    8164:	03412a83          	lw	x21,52(x2)
    8168:	03012b03          	lw	x22,48(x2)
    816c:	02812c03          	lw	x24,40(x2)
    8170:	02412c83          	lw	x25,36(x2)
    8174:	02012d03          	lw	x26,32(x2)
    8178:	01c12d83          	lw	x27,28(x2)
    817c:	a51ff06f          	j	7bcc <follow_path+0xa0>

00008180 <f_mount>:
    8180:	fd010113          	add	x2,x2,-48
    8184:	02112623          	sw	x1,44(x2)
    8188:	02812423          	sw	x8,40(x2)
    818c:	00a12623          	sw	x10,12(x2)
    8190:	00b12423          	sw	x11,8(x2)
    8194:	00060413          	mv	x8,x12
    8198:	00b12e23          	sw	x11,28(x2)
    819c:	01c10513          	add	x10,x2,28
    81a0:	f4cfb0ef          	jal	38ec <get_ldnumber>
    81a4:	08054263          	bltz	x10,8228 <f_mount+0xa8>
    81a8:	00251793          	sll	x15,x10,0x2
    81ac:	00013737          	lui	x14,0x13
    81b0:	aac70713          	add	x14,x14,-1364 # 12aac <FatFs>
    81b4:	00e787b3          	add	x15,x15,x14
    81b8:	0007a683          	lw	x13,0(x15)
    81bc:	00068e63          	beqz	x13,81d8 <f_mount+0x58>
    81c0:	00251793          	sll	x15,x10,0x2
    81c4:	00013737          	lui	x14,0x13
    81c8:	aac70713          	add	x14,x14,-1364 # 12aac <FatFs>
    81cc:	00e787b3          	add	x15,x15,x14
    81d0:	0007a023          	sw	x0,0(x15)
    81d4:	00068023          	sb	x0,0(x13)
    81d8:	00c12783          	lw	x15,12(x2)
    81dc:	02078063          	beqz	x15,81fc <f_mount+0x7c>
    81e0:	00a780a3          	sb	x10,1(x15)
    81e4:	00078023          	sb	x0,0(x15)
    81e8:	00251513          	sll	x10,x10,0x2
    81ec:	00013737          	lui	x14,0x13
    81f0:	aac70713          	add	x14,x14,-1364 # 12aac <FatFs>
    81f4:	00e50533          	add	x10,x10,x14
    81f8:	00f52023          	sw	x15,0(x10)
    81fc:	00000513          	li	x10,0
    8200:	00041a63          	bnez	x8,8214 <f_mount+0x94>
    8204:	02c12083          	lw	x1,44(x2)
    8208:	02812403          	lw	x8,40(x2)
    820c:	03010113          	add	x2,x2,48
    8210:	00008067          	ret
    8214:	00000613          	li	x12,0
    8218:	00c10593          	add	x11,x2,12
    821c:	00810513          	add	x10,x2,8
    8220:	f45fd0ef          	jal	6164 <mount_volume>
    8224:	fe1ff06f          	j	8204 <f_mount+0x84>
    8228:	00b00513          	li	x10,11
    822c:	fd9ff06f          	j	8204 <f_mount+0x84>

00008230 <f_open>:
    8230:	f6010113          	add	x2,x2,-160
    8234:	08112e23          	sw	x1,156(x2)
    8238:	08912a23          	sw	x9,148(x2)
    823c:	00b12623          	sw	x11,12(x2)
    8240:	42050463          	beqz	x10,8668 <f_open+0x438>
    8244:	08812c23          	sw	x8,152(x2)
    8248:	09212823          	sw	x18,144(x2)
    824c:	09412423          	sw	x20,136(x2)
    8250:	00050413          	mv	x8,x10
    8254:	00060913          	mv	x18,x12
    8258:	03f67a13          	and	x20,x12,63
    825c:	000a0613          	mv	x12,x20
    8260:	01c10593          	add	x11,x2,28
    8264:	00c10513          	add	x10,x2,12
    8268:	efdfd0ef          	jal	6164 <mount_volume>
    826c:	00050493          	mv	x9,x10
    8270:	02050463          	beqz	x10,8298 <f_open+0x68>
    8274:	00042023          	sw	x0,0(x8)
    8278:	09812403          	lw	x8,152(x2)
    827c:	09012903          	lw	x18,144(x2)
    8280:	08812a03          	lw	x20,136(x2)
    8284:	00048513          	mv	x10,x9
    8288:	09c12083          	lw	x1,156(x2)
    828c:	09412483          	lw	x9,148(x2)
    8290:	0a010113          	add	x2,x2,160
    8294:	00008067          	ret
    8298:	09312623          	sw	x19,140(x2)
    829c:	01c12983          	lw	x19,28(x2)
    82a0:	03312023          	sw	x19,32(x2)
    82a4:	00c12583          	lw	x11,12(x2)
    82a8:	02010513          	add	x10,x2,32
    82ac:	881ff0ef          	jal	7b2c <follow_path>
    82b0:	46051263          	bnez	x10,8714 <f_open+0x4e4>
    82b4:	06b10783          	lb	x15,107(x2)
    82b8:	4407c863          	bltz	x15,8708 <f_open+0x4d8>
    82bc:	01c97793          	and	x15,x18,28
    82c0:	1a079463          	bnez	x15,8468 <f_open+0x238>
    82c4:	02614783          	lbu	x15,38(x2)
    82c8:	0107f713          	and	x14,x15,16
    82cc:	38071863          	bnez	x14,865c <f_open+0x42c>
    82d0:	00297913          	and	x18,x18,2
    82d4:	2a090663          	beqz	x18,8580 <f_open+0x350>
    82d8:	0017f793          	and	x15,x15,1
    82dc:	34079e63          	bnez	x15,8638 <f_open+0x408>
    82e0:	07812c23          	sw	x24,120(x2)
    82e4:	0bc0006f          	j	83a0 <f_open+0x170>
    82e8:	00400793          	li	x15,4
    82ec:	42f51e63          	bne	x10,x15,8728 <f_open+0x4f8>
    82f0:	02010513          	add	x10,x2,32
    82f4:	83cff0ef          	jal	7330 <dir_register>
    82f8:	30051e63          	bnez	x10,8614 <f_open+0x3e4>
    82fc:	008a6a13          	or	x20,x20,8
    8300:	008a7793          	and	x15,x20,8
    8304:	26078a63          	beqz	x15,8578 <f_open+0x348>
    8308:	0009c703          	lbu	x14,0(x19)
    830c:	00400793          	li	x15,4
    8310:	16f70c63          	beq	x14,x15,8488 <f_open+0x258>
    8314:	09512223          	sw	x21,132(x2)
    8318:	05c12783          	lw	x15,92(x2)
    831c:	00078723          	sb	x0,14(x15)
    8320:	000787a3          	sb	x0,15(x15)
    8324:	03500693          	li	x13,53
    8328:	00d78823          	sb	x13,16(x15)
    832c:	05800713          	li	x14,88
    8330:	00e788a3          	sb	x14,17(x15)
    8334:	05c12783          	lw	x15,92(x2)
    8338:	00078b23          	sb	x0,22(x15)
    833c:	00078ba3          	sb	x0,23(x15)
    8340:	00d78c23          	sb	x13,24(x15)
    8344:	00e78ca3          	sb	x14,25(x15)
    8348:	05c12a83          	lw	x21,92(x2)
    834c:	000a8593          	mv	x11,x21
    8350:	00098513          	mv	x10,x19
    8354:	f90ff0ef          	jal	7ae4 <ld_clust>
    8358:	00050913          	mv	x18,x10
    835c:	02000793          	li	x15,32
    8360:	00fa85a3          	sb	x15,11(x21)
    8364:	00000613          	li	x12,0
    8368:	05c12583          	lw	x11,92(x2)
    836c:	00098513          	mv	x10,x19
    8370:	ae0fc0ef          	jal	4650 <st_clust>
    8374:	05c12783          	lw	x15,92(x2)
    8378:	00078e23          	sb	x0,28(x15)
    837c:	00078ea3          	sb	x0,29(x15)
    8380:	00078f23          	sb	x0,30(x15)
    8384:	00078fa3          	sb	x0,31(x15)
    8388:	00100793          	li	x15,1
    838c:	00f98223          	sb	x15,4(x19)
    8390:	18091a63          	bnez	x18,8524 <f_open+0x2f4>
    8394:	08412a83          	lw	x21,132(x2)
    8398:	07812c23          	sw	x24,120(x2)
    839c:	040a6a13          	or	x20,x20,64
    83a0:	0389a783          	lw	x15,56(x19)
    83a4:	04f42423          	sw	x15,72(x8)
    83a8:	05c12903          	lw	x18,92(x2)
    83ac:	05242623          	sw	x18,76(x8)
    83b0:	0009c703          	lbu	x14,0(x19)
    83b4:	00400793          	li	x15,4
    83b8:	1cf70863          	beq	x14,x15,8588 <f_open+0x358>
    83bc:	00090593          	mv	x11,x18
    83c0:	00098513          	mv	x10,x19
    83c4:	f20ff0ef          	jal	7ae4 <ld_clust>
    83c8:	00a42423          	sw	x10,8(x8)
    83cc:	01c90513          	add	x10,x18,28
    83d0:	b00fb0ef          	jal	36d0 <ld_dword>
    83d4:	00a42823          	sw	x10,16(x8)
    83d8:	00042a23          	sw	x0,20(x8)
    83dc:	01342023          	sw	x19,0(x8)
    83e0:	0069d783          	lhu	x15,6(x19)
    83e4:	00f41223          	sh	x15,4(x8)
    83e8:	03440823          	sb	x20,48(x8)
    83ec:	020408a3          	sb	x0,49(x8)
    83f0:	04042223          	sw	x0,68(x8)
    83f4:	00000793          	li	x15,0
    83f8:	00000813          	li	x16,0
    83fc:	02f42c23          	sw	x15,56(x8)
    8400:	03042e23          	sw	x16,60(x8)
    8404:	05040c13          	add	x24,x8,80
    8408:	20000613          	li	x12,512
    840c:	00000593          	li	x11,0
    8410:	000c0513          	mv	x10,x24
    8414:	be8fa0ef          	jal	27fc <memset>
    8418:	020a7a13          	and	x20,x20,32
    841c:	300a0c63          	beqz	x20,8734 <f_open+0x504>
    8420:	01042a03          	lw	x20,16(x8)
    8424:	01442903          	lw	x18,20(x8)
    8428:	012a67b3          	or	x15,x20,x18
    842c:	32078063          	beqz	x15,874c <f_open+0x51c>
    8430:	09512223          	sw	x21,132(x2)
    8434:	07712e23          	sw	x23,124(x2)
    8438:	03442c23          	sw	x20,56(x8)
    843c:	03242e23          	sw	x18,60(x8)
    8440:	00842583          	lw	x11,8(x8)
    8444:	00a9da83          	lhu	x21,10(x19)
    8448:	009a9a93          	sll	x21,x21,0x9
    844c:	00000b93          	li	x23,0
    8450:	16090663          	beqz	x18,85bc <f_open+0x38c>
    8454:	09612023          	sw	x22,128(x2)
    8458:	07912a23          	sw	x25,116(x2)
    845c:	00100b13          	li	x22,1
    8460:	fff00c93          	li	x25,-1
    8464:	2440006f          	j	86a8 <f_open+0x478>
    8468:	02614783          	lbu	x15,38(x2)
    846c:	0117f793          	and	x15,x15,17
    8470:	1a079863          	bnez	x15,8620 <f_open+0x3f0>
    8474:	00497913          	and	x18,x18,4
    8478:	e80904e3          	beqz	x18,8300 <f_open+0xd0>
    847c:	00800493          	li	x9,8
    8480:	08c12983          	lw	x19,140(x2)
    8484:	df1ff06f          	j	8274 <f_open+0x44>
    8488:	01342023          	sw	x19,0(x8)
    848c:	00040593          	mv	x11,x8
    8490:	00098513          	mv	x10,x19
    8494:	bf4fb0ef          	jal	3888 <init_alloc_info>
    8498:	0109a503          	lw	x10,16(x19)
    849c:	01e00613          	li	x12,30
    84a0:	00000593          	li	x11,0
    84a4:	00250513          	add	x10,x10,2
    84a8:	b54fa0ef          	jal	27fc <memset>
    84ac:	0109a503          	lw	x10,16(x19)
    84b0:	01a00613          	li	x12,26
    84b4:	00000593          	li	x11,0
    84b8:	02650513          	add	x10,x10,38
    84bc:	b40fa0ef          	jal	27fc <memset>
    84c0:	0109a783          	lw	x15,16(x19)
    84c4:	02000713          	li	x14,32
    84c8:	00e78223          	sb	x14,4(x15)
    84cc:	0109a783          	lw	x15,16(x19)
    84d0:	00078423          	sb	x0,8(x15)
    84d4:	000784a3          	sb	x0,9(x15)
    84d8:	03500713          	li	x14,53
    84dc:	00e78523          	sb	x14,10(x15)
    84e0:	05800713          	li	x14,88
    84e4:	00e785a3          	sb	x14,11(x15)
    84e8:	0109a783          	lw	x15,16(x19)
    84ec:	00100713          	li	x14,1
    84f0:	02e780a3          	sb	x14,33(x15)
    84f4:	02010513          	add	x10,x2,32
    84f8:	955fd0ef          	jal	5e4c <store_xdir>
    84fc:	12051863          	bnez	x10,862c <f_open+0x3fc>
    8500:	00842583          	lw	x11,8(x8)
    8504:	e8058ae3          	beqz	x11,8398 <f_open+0x168>
    8508:	00000613          	li	x12,0
    850c:	00040513          	mv	x10,x8
    8510:	f29fc0ef          	jal	5438 <remove_chain>
    8514:	00050793          	mv	x15,x10
    8518:	00842903          	lw	x18,8(x8)
    851c:	fff90913          	add	x18,x18,-1
    8520:	0440006f          	j	8564 <f_open+0x334>
    8524:	0389aa83          	lw	x21,56(x19)
    8528:	00000613          	li	x12,0
    852c:	00090593          	mv	x11,x18
    8530:	02010513          	add	x10,x2,32
    8534:	f05fc0ef          	jal	5438 <remove_chain>
    8538:	00050a63          	beqz	x10,854c <f_open+0x31c>
    853c:	00050493          	mv	x9,x10
    8540:	08c12983          	lw	x19,140(x2)
    8544:	08412a83          	lw	x21,132(x2)
    8548:	d2dff06f          	j	8274 <f_open+0x44>
    854c:	000a8593          	mv	x11,x21
    8550:	00098513          	mv	x10,x19
    8554:	879fb0ef          	jal	3dcc <move_window>
    8558:	00050793          	mv	x15,x10
    855c:	fff90913          	add	x18,x18,-1
    8560:	08412a83          	lw	x21,132(x2)
    8564:	0129aa23          	sw	x18,20(x19)
    8568:	e20788e3          	beqz	x15,8398 <f_open+0x168>
    856c:	00078493          	mv	x9,x15
    8570:	08c12983          	lw	x19,140(x2)
    8574:	d01ff06f          	j	8274 <f_open+0x44>
    8578:	07812c23          	sw	x24,120(x2)
    857c:	e25ff06f          	j	83a0 <f_open+0x170>
    8580:	07812c23          	sw	x24,120(x2)
    8584:	e1dff06f          	j	83a0 <f_open+0x170>
    8588:	02812783          	lw	x15,40(x2)
    858c:	02f42023          	sw	x15,32(x8)
    8590:	03012783          	lw	x15,48(x2)
    8594:	f007f793          	and	x15,x15,-256
    8598:	02714703          	lbu	x14,39(x2)
    859c:	00e7e7b3          	or	x15,x15,x14
    85a0:	02f42223          	sw	x15,36(x8)
    85a4:	06c12783          	lw	x15,108(x2)
    85a8:	02f42423          	sw	x15,40(x8)
    85ac:	00040593          	mv	x11,x8
    85b0:	00098513          	mv	x10,x19
    85b4:	ad4fb0ef          	jal	3888 <init_alloc_info>
    85b8:	e25ff06f          	j	83dc <f_open+0x1ac>
    85bc:	01791463          	bne	x18,x23,85c4 <f_open+0x394>
    85c0:	e94aeae3          	bltu	x21,x20,8454 <f_open+0x224>
    85c4:	00058793          	mv	x15,x11
    85c8:	1100006f          	j	86d8 <f_open+0x4a8>
    85cc:	01791913          	sll	x18,x18,0x17
    85d0:	009a5a13          	srl	x20,x20,0x9
    85d4:	01496a33          	or	x20,x18,x20
    85d8:	01450633          	add	x12,x10,x20
    85dc:	04c42223          	sw	x12,68(x8)
    85e0:	00100693          	li	x13,1
    85e4:	000c0593          	mv	x11,x24
    85e8:	0019c503          	lbu	x10,1(x19)
    85ec:	82cfb0ef          	jal	3618 <disk_read>
    85f0:	04051a63          	bnez	x10,8644 <f_open+0x414>
    85f4:	09812403          	lw	x8,152(x2)
    85f8:	09012903          	lw	x18,144(x2)
    85fc:	08c12983          	lw	x19,140(x2)
    8600:	08812a03          	lw	x20,136(x2)
    8604:	08412a83          	lw	x21,132(x2)
    8608:	07c12b83          	lw	x23,124(x2)
    860c:	07812c03          	lw	x24,120(x2)
    8610:	c75ff06f          	j	8284 <f_open+0x54>
    8614:	00050493          	mv	x9,x10
    8618:	08c12983          	lw	x19,140(x2)
    861c:	c59ff06f          	j	8274 <f_open+0x44>
    8620:	00700493          	li	x9,7
    8624:	08c12983          	lw	x19,140(x2)
    8628:	c4dff06f          	j	8274 <f_open+0x44>
    862c:	00050493          	mv	x9,x10
    8630:	08c12983          	lw	x19,140(x2)
    8634:	c41ff06f          	j	8274 <f_open+0x44>
    8638:	00700493          	li	x9,7
    863c:	08c12983          	lw	x19,140(x2)
    8640:	c35ff06f          	j	8274 <f_open+0x44>
    8644:	00100493          	li	x9,1
    8648:	08c12983          	lw	x19,140(x2)
    864c:	08412a83          	lw	x21,132(x2)
    8650:	07c12b83          	lw	x23,124(x2)
    8654:	07812c03          	lw	x24,120(x2)
    8658:	c1dff06f          	j	8274 <f_open+0x44>
    865c:	00400493          	li	x9,4
    8660:	08c12983          	lw	x19,140(x2)
    8664:	c11ff06f          	j	8274 <f_open+0x44>
    8668:	00900493          	li	x9,9
    866c:	c19ff06f          	j	8284 <f_open+0x54>
    8670:	00200493          	li	x9,2
    8674:	04b42023          	sw	x11,64(x8)
    8678:	08c12983          	lw	x19,140(x2)
    867c:	08412a83          	lw	x21,132(x2)
    8680:	08012b03          	lw	x22,128(x2)
    8684:	07c12b83          	lw	x23,124(x2)
    8688:	07812c03          	lw	x24,120(x2)
    868c:	07412c83          	lw	x25,116(x2)
    8690:	be5ff06f          	j	8274 <f_open+0x44>
    8694:	415a07b3          	sub	x15,x20,x21
    8698:	00fa3733          	sltu	x14,x20,x15
    869c:	00078a13          	mv	x20,x15
    86a0:	40e90933          	sub	x18,x18,x14
    86a4:	032bf063          	bgeu	x23,x18,86c4 <f_open+0x494>
    86a8:	00040513          	mv	x10,x8
    86ac:	c70fc0ef          	jal	4b1c <get_fat>
    86b0:	00050593          	mv	x11,x10
    86b4:	faab7ee3          	bgeu	x22,x10,8670 <f_open+0x440>
    86b8:	fd951ee3          	bne	x10,x25,8694 <f_open+0x464>
    86bc:	00100493          	li	x9,1
    86c0:	fb5ff06f          	j	8674 <f_open+0x444>
    86c4:	01791463          	bne	x18,x23,86cc <f_open+0x49c>
    86c8:	fefae0e3          	bltu	x21,x15,86a8 <f_open+0x478>
    86cc:	00058793          	mv	x15,x11
    86d0:	08012b03          	lw	x22,128(x2)
    86d4:	07412c83          	lw	x25,116(x2)
    86d8:	04f42023          	sw	x15,64(x8)
    86dc:	1ffa7793          	and	x15,x20,511
    86e0:	08078263          	beqz	x15,8764 <f_open+0x534>
    86e4:	00098513          	mv	x10,x19
    86e8:	8d4fb0ef          	jal	37bc <clst2sect>
    86ec:	ee0510e3          	bnez	x10,85cc <f_open+0x39c>
    86f0:	00200493          	li	x9,2
    86f4:	08c12983          	lw	x19,140(x2)
    86f8:	08412a83          	lw	x21,132(x2)
    86fc:	07c12b83          	lw	x23,124(x2)
    8700:	07812c03          	lw	x24,120(x2)
    8704:	b71ff06f          	j	8274 <f_open+0x44>
    8708:	00600493          	li	x9,6
    870c:	08c12983          	lw	x19,140(x2)
    8710:	b65ff06f          	j	8274 <f_open+0x44>
    8714:	01c97913          	and	x18,x18,28
    8718:	bc0918e3          	bnez	x18,82e8 <f_open+0xb8>
    871c:	00050493          	mv	x9,x10
    8720:	08c12983          	lw	x19,140(x2)
    8724:	b51ff06f          	j	8274 <f_open+0x44>
    8728:	00050493          	mv	x9,x10
    872c:	08c12983          	lw	x19,140(x2)
    8730:	b45ff06f          	j	8274 <f_open+0x44>
    8734:	09812403          	lw	x8,152(x2)
    8738:	09012903          	lw	x18,144(x2)
    873c:	08c12983          	lw	x19,140(x2)
    8740:	08812a03          	lw	x20,136(x2)
    8744:	07812c03          	lw	x24,120(x2)
    8748:	b3dff06f          	j	8284 <f_open+0x54>
    874c:	09812403          	lw	x8,152(x2)
    8750:	09012903          	lw	x18,144(x2)
    8754:	08c12983          	lw	x19,140(x2)
    8758:	08812a03          	lw	x20,136(x2)
    875c:	07812c03          	lw	x24,120(x2)
    8760:	b25ff06f          	j	8284 <f_open+0x54>
    8764:	09812403          	lw	x8,152(x2)
    8768:	09012903          	lw	x18,144(x2)
    876c:	08c12983          	lw	x19,140(x2)
    8770:	08812a03          	lw	x20,136(x2)
    8774:	08412a83          	lw	x21,132(x2)
    8778:	07c12b83          	lw	x23,124(x2)
    877c:	07812c03          	lw	x24,120(x2)
    8780:	b05ff06f          	j	8284 <f_open+0x54>

00008784 <f_read>:
    8784:	fb010113          	add	x2,x2,-80
    8788:	04112623          	sw	x1,76(x2)
    878c:	04812423          	sw	x8,72(x2)
    8790:	05212023          	sw	x18,64(x2)
    8794:	03512a23          	sw	x21,52(x2)
    8798:	03612823          	sw	x22,48(x2)
    879c:	00050413          	mv	x8,x10
    87a0:	00058a93          	mv	x21,x11
    87a4:	00060913          	mv	x18,x12
    87a8:	00068b13          	mv	x22,x13
    87ac:	0006a023          	sw	x0,0(x13)
    87b0:	00c10593          	add	x11,x2,12
    87b4:	cb8fb0ef          	jal	3c6c <validate>
    87b8:	28051863          	bnez	x10,8a48 <f_read+0x2c4>
    87bc:	03144503          	lbu	x10,49(x8)
    87c0:	28051463          	bnez	x10,8a48 <f_read+0x2c4>
    87c4:	03044783          	lbu	x15,48(x8)
    87c8:	0017f793          	and	x15,x15,1
    87cc:	00700513          	li	x10,7
    87d0:	26078c63          	beqz	x15,8a48 <f_read+0x2c4>
    87d4:	01042703          	lw	x14,16(x8)
    87d8:	01442683          	lw	x13,20(x8)
    87dc:	03842783          	lw	x15,56(x8)
    87e0:	03c42603          	lw	x12,60(x8)
    87e4:	40f707b3          	sub	x15,x14,x15
    87e8:	00f73733          	sltu	x14,x14,x15
    87ec:	40c686b3          	sub	x13,x13,x12
    87f0:	00e69663          	bne	x13,x14,87fc <f_read+0x78>
    87f4:	0127f463          	bgeu	x15,x18,87fc <f_read+0x78>
    87f8:	00078913          	mv	x18,x15
    87fc:	30090a63          	beqz	x18,8b10 <f_read+0x38c>
    8800:	04912223          	sw	x9,68(x2)
    8804:	03312e23          	sw	x19,60(x2)
    8808:	03412c23          	sw	x20,56(x2)
    880c:	03712623          	sw	x23,44(x2)
    8810:	03812423          	sw	x24,40(x2)
    8814:	03912223          	sw	x25,36(x2)
    8818:	03a12023          	sw	x26,32(x2)
    881c:	01b12e23          	sw	x27,28(x2)
    8820:	20000c93          	li	x25,512
    8824:	05040c13          	add	x24,x8,80
    8828:	1ff00d13          	li	x26,511
    882c:	00100d93          	li	x27,1
    8830:	15c0006f          	j	898c <f_read+0x208>
    8834:	04042583          	lw	x11,64(x8)
    8838:	00040513          	mv	x10,x8
    883c:	ae0fc0ef          	jal	4b1c <get_fat>
    8840:	1880006f          	j	89c8 <f_read+0x244>
    8844:	00200793          	li	x15,2
    8848:	02f408a3          	sb	x15,49(x8)
    884c:	00200513          	li	x10,2
    8850:	04412483          	lw	x9,68(x2)
    8854:	03c12983          	lw	x19,60(x2)
    8858:	03812a03          	lw	x20,56(x2)
    885c:	02c12b83          	lw	x23,44(x2)
    8860:	02812c03          	lw	x24,40(x2)
    8864:	02412c83          	lw	x25,36(x2)
    8868:	02012d03          	lw	x26,32(x2)
    886c:	01c12d83          	lw	x27,28(x2)
    8870:	1d80006f          	j	8a48 <f_read+0x2c4>
    8874:	00100793          	li	x15,1
    8878:	02f408a3          	sb	x15,49(x8)
    887c:	00100513          	li	x10,1
    8880:	04412483          	lw	x9,68(x2)
    8884:	03c12983          	lw	x19,60(x2)
    8888:	03812a03          	lw	x20,56(x2)
    888c:	02c12b83          	lw	x23,44(x2)
    8890:	02812c03          	lw	x24,40(x2)
    8894:	02412c83          	lw	x25,36(x2)
    8898:	02012d03          	lw	x26,32(x2)
    889c:	01c12d83          	lw	x27,28(x2)
    88a0:	1a80006f          	j	8a48 <f_read+0x2c4>
    88a4:	00200793          	li	x15,2
    88a8:	02f408a3          	sb	x15,49(x8)
    88ac:	00200513          	li	x10,2
    88b0:	04412483          	lw	x9,68(x2)
    88b4:	03c12983          	lw	x19,60(x2)
    88b8:	03812a03          	lw	x20,56(x2)
    88bc:	02c12b83          	lw	x23,44(x2)
    88c0:	02812c03          	lw	x24,40(x2)
    88c4:	02412c83          	lw	x25,36(x2)
    88c8:	02012d03          	lw	x26,32(x2)
    88cc:	01c12d83          	lw	x27,28(x2)
    88d0:	1780006f          	j	8a48 <f_read+0x2c4>
    88d4:	03040783          	lb	x15,48(x8)
    88d8:	0007c663          	bltz	x15,88e4 <f_read+0x160>
    88dc:	00949493          	sll	x9,x9,0x9
    88e0:	0780006f          	j	8958 <f_read+0x1d4>
    88e4:	04442503          	lw	x10,68(x8)
    88e8:	41350533          	sub	x10,x10,x19
    88ec:	fe9578e3          	bgeu	x10,x9,88dc <f_read+0x158>
    88f0:	00951513          	sll	x10,x10,0x9
    88f4:	20000613          	li	x12,512
    88f8:	05040593          	add	x11,x8,80
    88fc:	00aa8533          	add	x10,x21,x10
    8900:	e81f90ef          	jal	2780 <memcpy>
    8904:	fd9ff06f          	j	88dc <f_read+0x158>
    8908:	04442603          	lw	x12,68(x8)
    890c:	03360263          	beq	x12,x19,8930 <f_read+0x1ac>
    8910:	03040783          	lb	x15,48(x8)
    8914:	1407c863          	bltz	x15,8a64 <f_read+0x2e0>
    8918:	00100693          	li	x13,1
    891c:	00098613          	mv	x12,x19
    8920:	05040593          	add	x11,x8,80
    8924:	001bc503          	lbu	x10,1(x23)
    8928:	cf1fa0ef          	jal	3618 <disk_read>
    892c:	18051663          	bnez	x10,8ab8 <f_read+0x334>
    8930:	05342223          	sw	x19,68(x8)
    8934:	03842583          	lw	x11,56(x8)
    8938:	1ff5f593          	and	x11,x11,511
    893c:	40bc84b3          	sub	x9,x25,x11
    8940:	00997463          	bgeu	x18,x9,8948 <f_read+0x1c4>
    8944:	00090493          	mv	x9,x18
    8948:	00048613          	mv	x12,x9
    894c:	00bc05b3          	add	x11,x24,x11
    8950:	000a8513          	mv	x10,x21
    8954:	e2df90ef          	jal	2780 <memcpy>
    8958:	40990933          	sub	x18,x18,x9
    895c:	000b2783          	lw	x15,0(x22)
    8960:	009787b3          	add	x15,x15,x9
    8964:	00fb2023          	sw	x15,0(x22)
    8968:	009a8ab3          	add	x21,x21,x9
    896c:	03842783          	lw	x15,56(x8)
    8970:	03c42703          	lw	x14,60(x8)
    8974:	009784b3          	add	x9,x15,x9
    8978:	00f4b7b3          	sltu	x15,x9,x15
    897c:	00e787b3          	add	x15,x15,x14
    8980:	02942c23          	sw	x9,56(x8)
    8984:	02f42e23          	sw	x15,60(x8)
    8988:	16090063          	beqz	x18,8ae8 <f_read+0x364>
    898c:	03842783          	lw	x15,56(x8)
    8990:	03c42603          	lw	x12,60(x8)
    8994:	1ff7f713          	and	x14,x15,511
    8998:	f8071ee3          	bnez	x14,8934 <f_read+0x1b0>
    899c:	00c12b83          	lw	x23,12(x2)
    89a0:	00abda03          	lhu	x20,10(x23)
    89a4:	fffa0a13          	add	x20,x20,-1
    89a8:	01761693          	sll	x13,x12,0x17
    89ac:	0097d713          	srl	x14,x15,0x9
    89b0:	00e6e733          	or	x14,x13,x14
    89b4:	00ea7a33          	and	x20,x20,x14
    89b8:	020a1063          	bnez	x20,89d8 <f_read+0x254>
    89bc:	00c7e7b3          	or	x15,x15,x12
    89c0:	e6079ae3          	bnez	x15,8834 <f_read+0xb0>
    89c4:	00842503          	lw	x10,8(x8)
    89c8:	e6adfee3          	bgeu	x27,x10,8844 <f_read+0xc0>
    89cc:	fff00793          	li	x15,-1
    89d0:	eaf502e3          	beq	x10,x15,8874 <f_read+0xf0>
    89d4:	04a42023          	sw	x10,64(x8)
    89d8:	04042583          	lw	x11,64(x8)
    89dc:	000b8513          	mv	x10,x23
    89e0:	dddfa0ef          	jal	37bc <clst2sect>
    89e4:	ec0500e3          	beqz	x10,88a4 <f_read+0x120>
    89e8:	00aa09b3          	add	x19,x20,x10
    89ec:	f12d7ee3          	bgeu	x26,x18,8908 <f_read+0x184>
    89f0:	00995493          	srl	x9,x18,0x9
    89f4:	00abd783          	lhu	x15,10(x23)
    89f8:	009a0733          	add	x14,x20,x9
    89fc:	00e7f463          	bgeu	x15,x14,8a04 <f_read+0x280>
    8a00:	414784b3          	sub	x9,x15,x20
    8a04:	00048693          	mv	x13,x9
    8a08:	00098613          	mv	x12,x19
    8a0c:	000a8593          	mv	x11,x21
    8a10:	001bc503          	lbu	x10,1(x23)
    8a14:	c05fa0ef          	jal	3618 <disk_read>
    8a18:	ea050ee3          	beqz	x10,88d4 <f_read+0x150>
    8a1c:	00100793          	li	x15,1
    8a20:	02f408a3          	sb	x15,49(x8)
    8a24:	00100513          	li	x10,1
    8a28:	04412483          	lw	x9,68(x2)
    8a2c:	03c12983          	lw	x19,60(x2)
    8a30:	03812a03          	lw	x20,56(x2)
    8a34:	02c12b83          	lw	x23,44(x2)
    8a38:	02812c03          	lw	x24,40(x2)
    8a3c:	02412c83          	lw	x25,36(x2)
    8a40:	02012d03          	lw	x26,32(x2)
    8a44:	01c12d83          	lw	x27,28(x2)
    8a48:	04c12083          	lw	x1,76(x2)
    8a4c:	04812403          	lw	x8,72(x2)
    8a50:	04012903          	lw	x18,64(x2)
    8a54:	03412a83          	lw	x21,52(x2)
    8a58:	03012b03          	lw	x22,48(x2)
    8a5c:	05010113          	add	x2,x2,80
    8a60:	00008067          	ret
    8a64:	00100693          	li	x13,1
    8a68:	05040593          	add	x11,x8,80
    8a6c:	001bc503          	lbu	x10,1(x23)
    8a70:	bf1fa0ef          	jal	3660 <disk_write>
    8a74:	00051a63          	bnez	x10,8a88 <f_read+0x304>
    8a78:	03044783          	lbu	x15,48(x8)
    8a7c:	07f7f793          	and	x15,x15,127
    8a80:	02f40823          	sb	x15,48(x8)
    8a84:	e95ff06f          	j	8918 <f_read+0x194>
    8a88:	00100793          	li	x15,1
    8a8c:	02f408a3          	sb	x15,49(x8)
    8a90:	00100513          	li	x10,1
    8a94:	04412483          	lw	x9,68(x2)
    8a98:	03c12983          	lw	x19,60(x2)
    8a9c:	03812a03          	lw	x20,56(x2)
    8aa0:	02c12b83          	lw	x23,44(x2)
    8aa4:	02812c03          	lw	x24,40(x2)
    8aa8:	02412c83          	lw	x25,36(x2)
    8aac:	02012d03          	lw	x26,32(x2)
    8ab0:	01c12d83          	lw	x27,28(x2)
    8ab4:	f95ff06f          	j	8a48 <f_read+0x2c4>
    8ab8:	00100793          	li	x15,1
    8abc:	02f408a3          	sb	x15,49(x8)
    8ac0:	00100513          	li	x10,1
    8ac4:	04412483          	lw	x9,68(x2)
    8ac8:	03c12983          	lw	x19,60(x2)
    8acc:	03812a03          	lw	x20,56(x2)
    8ad0:	02c12b83          	lw	x23,44(x2)
    8ad4:	02812c03          	lw	x24,40(x2)
    8ad8:	02412c83          	lw	x25,36(x2)
    8adc:	02012d03          	lw	x26,32(x2)
    8ae0:	01c12d83          	lw	x27,28(x2)
    8ae4:	f65ff06f          	j	8a48 <f_read+0x2c4>
    8ae8:	00090513          	mv	x10,x18
    8aec:	04412483          	lw	x9,68(x2)
    8af0:	03c12983          	lw	x19,60(x2)
    8af4:	03812a03          	lw	x20,56(x2)
    8af8:	02c12b83          	lw	x23,44(x2)
    8afc:	02812c03          	lw	x24,40(x2)
    8b00:	02412c83          	lw	x25,36(x2)
    8b04:	02012d03          	lw	x26,32(x2)
    8b08:	01c12d83          	lw	x27,28(x2)
    8b0c:	f3dff06f          	j	8a48 <f_read+0x2c4>
    8b10:	00090513          	mv	x10,x18
    8b14:	f35ff06f          	j	8a48 <f_read+0x2c4>

00008b18 <f_write>:
    8b18:	fb010113          	add	x2,x2,-80
    8b1c:	04112623          	sw	x1,76(x2)
    8b20:	04812423          	sw	x8,72(x2)
    8b24:	05212023          	sw	x18,64(x2)
    8b28:	03512a23          	sw	x21,52(x2)
    8b2c:	03612823          	sw	x22,48(x2)
    8b30:	03712623          	sw	x23,44(x2)
    8b34:	00050413          	mv	x8,x10
    8b38:	00058a93          	mv	x21,x11
    8b3c:	00060913          	mv	x18,x12
    8b40:	00068b93          	mv	x23,x13
    8b44:	0006a023          	sw	x0,0(x13)
    8b48:	00c10593          	add	x11,x2,12
    8b4c:	920fb0ef          	jal	3c6c <validate>
    8b50:	00050b13          	mv	x22,x10
    8b54:	10051663          	bnez	x10,8c60 <f_write+0x148>
    8b58:	03144b03          	lbu	x22,49(x8)
    8b5c:	100b1263          	bnez	x22,8c60 <f_write+0x148>
    8b60:	03044783          	lbu	x15,48(x8)
    8b64:	0027f793          	and	x15,x15,2
    8b68:	3a078a63          	beqz	x15,8f1c <f_write+0x404>
    8b6c:	03812423          	sw	x24,40(x2)
    8b70:	00c12c03          	lw	x24,12(x2)
    8b74:	000c4703          	lbu	x14,0(x24)
    8b78:	00400793          	li	x15,4
    8b7c:	00f70a63          	beq	x14,x15,8b90 <f_write+0x78>
    8b80:	03842783          	lw	x15,56(x8)
    8b84:	01278733          	add	x14,x15,x18
    8b88:	00f77463          	bgeu	x14,x15,8b90 <f_write+0x78>
    8b8c:	fff7c913          	not	x18,x15
    8b90:	34090e63          	beqz	x18,8eec <f_write+0x3d4>
    8b94:	04912223          	sw	x9,68(x2)
    8b98:	03312e23          	sw	x19,60(x2)
    8b9c:	03412c23          	sw	x20,56(x2)
    8ba0:	03912223          	sw	x25,36(x2)
    8ba4:	03a12023          	sw	x26,32(x2)
    8ba8:	01b12e23          	sw	x27,28(x2)
    8bac:	20000d13          	li	x26,512
    8bb0:	05040c93          	add	x25,x8,80
    8bb4:	1ff00d93          	li	x27,511
    8bb8:	2800006f          	j	8e38 <f_write+0x320>
    8bbc:	04042583          	lw	x11,64(x8)
    8bc0:	00040513          	mv	x10,x8
    8bc4:	bc4fc0ef          	jal	4f88 <create_chain>
    8bc8:	32050c63          	beqz	x10,8f00 <f_write+0x3e8>
    8bcc:	00100793          	li	x15,1
    8bd0:	0af50a63          	beq	x10,x15,8c84 <f_write+0x16c>
    8bd4:	fff00793          	li	x15,-1
    8bd8:	0cf50c63          	beq	x10,x15,8cb0 <f_write+0x198>
    8bdc:	04a42023          	sw	x10,64(x8)
    8be0:	00842783          	lw	x15,8(x8)
    8be4:	00079463          	bnez	x15,8bec <f_write+0xd4>
    8be8:	00a42423          	sw	x10,8(x8)
    8bec:	03040783          	lb	x15,48(x8)
    8bf0:	0e07c663          	bltz	x15,8cdc <f_write+0x1c4>
    8bf4:	04042583          	lw	x11,64(x8)
    8bf8:	000c0513          	mv	x10,x24
    8bfc:	bc1fa0ef          	jal	37bc <clst2sect>
    8c00:	12050863          	beqz	x10,8d30 <f_write+0x218>
    8c04:	00a98a33          	add	x20,x19,x10
    8c08:	192df663          	bgeu	x27,x18,8d94 <f_write+0x27c>
    8c0c:	00995493          	srl	x9,x18,0x9
    8c10:	00ac5783          	lhu	x15,10(x24)
    8c14:	00998733          	add	x14,x19,x9
    8c18:	00e7f463          	bgeu	x15,x14,8c20 <f_write+0x108>
    8c1c:	413784b3          	sub	x9,x15,x19
    8c20:	00048693          	mv	x13,x9
    8c24:	000a0613          	mv	x12,x20
    8c28:	000a8593          	mv	x11,x21
    8c2c:	001c4503          	lbu	x10,1(x24)
    8c30:	a31fa0ef          	jal	3660 <disk_write>
    8c34:	12050463          	beqz	x10,8d5c <f_write+0x244>
    8c38:	00100793          	li	x15,1
    8c3c:	02f408a3          	sb	x15,49(x8)
    8c40:	00100b13          	li	x22,1
    8c44:	04412483          	lw	x9,68(x2)
    8c48:	03c12983          	lw	x19,60(x2)
    8c4c:	03812a03          	lw	x20,56(x2)
    8c50:	02812c03          	lw	x24,40(x2)
    8c54:	02412c83          	lw	x25,36(x2)
    8c58:	02012d03          	lw	x26,32(x2)
    8c5c:	01c12d83          	lw	x27,28(x2)
    8c60:	000b0513          	mv	x10,x22
    8c64:	04c12083          	lw	x1,76(x2)
    8c68:	04812403          	lw	x8,72(x2)
    8c6c:	04012903          	lw	x18,64(x2)
    8c70:	03412a83          	lw	x21,52(x2)
    8c74:	03012b03          	lw	x22,48(x2)
    8c78:	02c12b83          	lw	x23,44(x2)
    8c7c:	05010113          	add	x2,x2,80
    8c80:	00008067          	ret
    8c84:	00200793          	li	x15,2
    8c88:	02f408a3          	sb	x15,49(x8)
    8c8c:	00200b13          	li	x22,2
    8c90:	04412483          	lw	x9,68(x2)
    8c94:	03c12983          	lw	x19,60(x2)
    8c98:	03812a03          	lw	x20,56(x2)
    8c9c:	02812c03          	lw	x24,40(x2)
    8ca0:	02412c83          	lw	x25,36(x2)
    8ca4:	02012d03          	lw	x26,32(x2)
    8ca8:	01c12d83          	lw	x27,28(x2)
    8cac:	fb5ff06f          	j	8c60 <f_write+0x148>
    8cb0:	00100793          	li	x15,1
    8cb4:	02f408a3          	sb	x15,49(x8)
    8cb8:	00100b13          	li	x22,1
    8cbc:	04412483          	lw	x9,68(x2)
    8cc0:	03c12983          	lw	x19,60(x2)
    8cc4:	03812a03          	lw	x20,56(x2)
    8cc8:	02812c03          	lw	x24,40(x2)
    8ccc:	02412c83          	lw	x25,36(x2)
    8cd0:	02012d03          	lw	x26,32(x2)
    8cd4:	01c12d83          	lw	x27,28(x2)
    8cd8:	f89ff06f          	j	8c60 <f_write+0x148>
    8cdc:	00100693          	li	x13,1
    8ce0:	04442603          	lw	x12,68(x8)
    8ce4:	05040593          	add	x11,x8,80
    8ce8:	001c4503          	lbu	x10,1(x24)
    8cec:	975fa0ef          	jal	3660 <disk_write>
    8cf0:	00051a63          	bnez	x10,8d04 <f_write+0x1ec>
    8cf4:	03044783          	lbu	x15,48(x8)
    8cf8:	07f7f793          	and	x15,x15,127
    8cfc:	02f40823          	sb	x15,48(x8)
    8d00:	ef5ff06f          	j	8bf4 <f_write+0xdc>
    8d04:	00100793          	li	x15,1
    8d08:	02f408a3          	sb	x15,49(x8)
    8d0c:	00100b13          	li	x22,1
    8d10:	04412483          	lw	x9,68(x2)
    8d14:	03c12983          	lw	x19,60(x2)
    8d18:	03812a03          	lw	x20,56(x2)
    8d1c:	02812c03          	lw	x24,40(x2)
    8d20:	02412c83          	lw	x25,36(x2)
    8d24:	02012d03          	lw	x26,32(x2)
    8d28:	01c12d83          	lw	x27,28(x2)
    8d2c:	f35ff06f          	j	8c60 <f_write+0x148>
    8d30:	00200793          	li	x15,2
    8d34:	02f408a3          	sb	x15,49(x8)
    8d38:	00200b13          	li	x22,2
    8d3c:	04412483          	lw	x9,68(x2)
    8d40:	03c12983          	lw	x19,60(x2)
    8d44:	03812a03          	lw	x20,56(x2)
    8d48:	02812c03          	lw	x24,40(x2)
    8d4c:	02412c83          	lw	x25,36(x2)
    8d50:	02012d03          	lw	x26,32(x2)
    8d54:	01c12d83          	lw	x27,28(x2)
    8d58:	f09ff06f          	j	8c60 <f_write+0x148>
    8d5c:	04442583          	lw	x11,68(x8)
    8d60:	414585b3          	sub	x11,x11,x20
    8d64:	0095e663          	bltu	x11,x9,8d70 <f_write+0x258>
    8d68:	00949493          	sll	x9,x9,0x9
    8d6c:	0740006f          	j	8de0 <f_write+0x2c8>
    8d70:	00959593          	sll	x11,x11,0x9
    8d74:	20000613          	li	x12,512
    8d78:	00ba85b3          	add	x11,x21,x11
    8d7c:	05040513          	add	x10,x8,80
    8d80:	a01f90ef          	jal	2780 <memcpy>
    8d84:	03044783          	lbu	x15,48(x8)
    8d88:	07f7f793          	and	x15,x15,127
    8d8c:	02f40823          	sb	x15,48(x8)
    8d90:	fd9ff06f          	j	8d68 <f_write+0x250>
    8d94:	04442783          	lw	x15,68(x8)
    8d98:	01478a63          	beq	x15,x20,8dac <f_write+0x294>
    8d9c:	01442703          	lw	x14,20(x8)
    8da0:	03c42783          	lw	x15,60(x8)
    8da4:	0ee7e663          	bltu	x15,x14,8e90 <f_write+0x378>
    8da8:	0cf70e63          	beq	x14,x15,8e84 <f_write+0x36c>
    8dac:	05442223          	sw	x20,68(x8)
    8db0:	03842503          	lw	x10,56(x8)
    8db4:	1ff57513          	and	x10,x10,511
    8db8:	40ad04b3          	sub	x9,x26,x10
    8dbc:	00997463          	bgeu	x18,x9,8dc4 <f_write+0x2ac>
    8dc0:	00090493          	mv	x9,x18
    8dc4:	00048613          	mv	x12,x9
    8dc8:	000a8593          	mv	x11,x21
    8dcc:	00ac8533          	add	x10,x25,x10
    8dd0:	9b1f90ef          	jal	2780 <memcpy>
    8dd4:	03044783          	lbu	x15,48(x8)
    8dd8:	f807e793          	or	x15,x15,-128
    8ddc:	02f40823          	sb	x15,48(x8)
    8de0:	40990933          	sub	x18,x18,x9
    8de4:	000ba783          	lw	x15,0(x23)
    8de8:	009787b3          	add	x15,x15,x9
    8dec:	00fba023          	sw	x15,0(x23)
    8df0:	009a8ab3          	add	x21,x21,x9
    8df4:	03842783          	lw	x15,56(x8)
    8df8:	03c42703          	lw	x14,60(x8)
    8dfc:	00f487b3          	add	x15,x9,x15
    8e00:	0097b4b3          	sltu	x9,x15,x9
    8e04:	00e484b3          	add	x9,x9,x14
    8e08:	02f42c23          	sw	x15,56(x8)
    8e0c:	02942e23          	sw	x9,60(x8)
    8e10:	01042683          	lw	x13,16(x8)
    8e14:	01442703          	lw	x14,20(x8)
    8e18:	00976663          	bltu	x14,x9,8e24 <f_write+0x30c>
    8e1c:	00e49863          	bne	x9,x14,8e2c <f_write+0x314>
    8e20:	00f6f663          	bgeu	x13,x15,8e2c <f_write+0x314>
    8e24:	00078693          	mv	x13,x15
    8e28:	00048713          	mv	x14,x9
    8e2c:	00d42823          	sw	x13,16(x8)
    8e30:	00e42a23          	sw	x14,20(x8)
    8e34:	0a090063          	beqz	x18,8ed4 <f_write+0x3bc>
    8e38:	03842783          	lw	x15,56(x8)
    8e3c:	03c42603          	lw	x12,60(x8)
    8e40:	1ff7f713          	and	x14,x15,511
    8e44:	f60716e3          	bnez	x14,8db0 <f_write+0x298>
    8e48:	00ac5983          	lhu	x19,10(x24)
    8e4c:	fff98993          	add	x19,x19,-1
    8e50:	01761693          	sll	x13,x12,0x17
    8e54:	0097d713          	srl	x14,x15,0x9
    8e58:	00e6e733          	or	x14,x13,x14
    8e5c:	00e9f9b3          	and	x19,x19,x14
    8e60:	d80996e3          	bnez	x19,8bec <f_write+0xd4>
    8e64:	00c7e7b3          	or	x15,x15,x12
    8e68:	d4079ae3          	bnez	x15,8bbc <f_write+0xa4>
    8e6c:	00842503          	lw	x10,8(x8)
    8e70:	d4051ee3          	bnez	x10,8bcc <f_write+0xb4>
    8e74:	00000593          	li	x11,0
    8e78:	00040513          	mv	x10,x8
    8e7c:	90cfc0ef          	jal	4f88 <create_chain>
    8e80:	d49ff06f          	j	8bc8 <f_write+0xb0>
    8e84:	01042703          	lw	x14,16(x8)
    8e88:	03842783          	lw	x15,56(x8)
    8e8c:	f2e7f0e3          	bgeu	x15,x14,8dac <f_write+0x294>
    8e90:	00100693          	li	x13,1
    8e94:	000a0613          	mv	x12,x20
    8e98:	05040593          	add	x11,x8,80
    8e9c:	001c4503          	lbu	x10,1(x24)
    8ea0:	f78fa0ef          	jal	3618 <disk_read>
    8ea4:	f00504e3          	beqz	x10,8dac <f_write+0x294>
    8ea8:	00100793          	li	x15,1
    8eac:	02f408a3          	sb	x15,49(x8)
    8eb0:	00100b13          	li	x22,1
    8eb4:	04412483          	lw	x9,68(x2)
    8eb8:	03c12983          	lw	x19,60(x2)
    8ebc:	03812a03          	lw	x20,56(x2)
    8ec0:	02812c03          	lw	x24,40(x2)
    8ec4:	02412c83          	lw	x25,36(x2)
    8ec8:	02012d03          	lw	x26,32(x2)
    8ecc:	01c12d83          	lw	x27,28(x2)
    8ed0:	d91ff06f          	j	8c60 <f_write+0x148>
    8ed4:	04412483          	lw	x9,68(x2)
    8ed8:	03c12983          	lw	x19,60(x2)
    8edc:	03812a03          	lw	x20,56(x2)
    8ee0:	02412c83          	lw	x25,36(x2)
    8ee4:	02012d03          	lw	x26,32(x2)
    8ee8:	01c12d83          	lw	x27,28(x2)
    8eec:	03044783          	lbu	x15,48(x8)
    8ef0:	0407e793          	or	x15,x15,64
    8ef4:	02f40823          	sb	x15,48(x8)
    8ef8:	02812c03          	lw	x24,40(x2)
    8efc:	d65ff06f          	j	8c60 <f_write+0x148>
    8f00:	04412483          	lw	x9,68(x2)
    8f04:	03c12983          	lw	x19,60(x2)
    8f08:	03812a03          	lw	x20,56(x2)
    8f0c:	02412c83          	lw	x25,36(x2)
    8f10:	02012d03          	lw	x26,32(x2)
    8f14:	01c12d83          	lw	x27,28(x2)
    8f18:	fd5ff06f          	j	8eec <f_write+0x3d4>
    8f1c:	00700b13          	li	x22,7
    8f20:	d41ff06f          	j	8c60 <f_write+0x148>

00008f24 <putc_bfd>:
    8f24:	fd010113          	add	x2,x2,-48
    8f28:	02112623          	sw	x1,44(x2)
    8f2c:	02812423          	sw	x8,40(x2)
    8f30:	02912223          	sw	x9,36(x2)
    8f34:	00050413          	mv	x8,x10
    8f38:	00058493          	mv	x9,x11
    8f3c:	00a00793          	li	x15,10
    8f40:	04f58a63          	beq	x11,x15,8f94 <putc_bfd+0x70>
    8f44:	00442783          	lw	x15,4(x8)
    8f48:	0207cc63          	bltz	x15,8f80 <putc_bfd+0x5c>
    8f4c:	03212023          	sw	x18,32(x2)
    8f50:	01312e23          	sw	x19,28(x2)
    8f54:	00842903          	lw	x18,8(x8)
    8f58:	00178993          	add	x19,x15,1
    8f5c:	00f407b3          	add	x15,x8,x15
    8f60:	00978623          	sb	x9,12(x15)
    8f64:	03b00793          	li	x15,59
    8f68:	0337cc63          	blt	x15,x19,8fa0 <putc_bfd+0x7c>
    8f6c:	01342223          	sw	x19,4(x8)
    8f70:	00190913          	add	x18,x18,1
    8f74:	01242423          	sw	x18,8(x8)
    8f78:	02012903          	lw	x18,32(x2)
    8f7c:	01c12983          	lw	x19,28(x2)
    8f80:	02c12083          	lw	x1,44(x2)
    8f84:	02812403          	lw	x8,40(x2)
    8f88:	02412483          	lw	x9,36(x2)
    8f8c:	03010113          	add	x2,x2,48
    8f90:	00008067          	ret
    8f94:	00d00593          	li	x11,13
    8f98:	f8dff0ef          	jal	8f24 <putc_bfd>
    8f9c:	fa9ff06f          	j	8f44 <putc_bfd+0x20>
    8fa0:	00c10693          	add	x13,x2,12
    8fa4:	00098613          	mv	x12,x19
    8fa8:	00c40593          	add	x11,x8,12
    8fac:	00042503          	lw	x10,0(x8)
    8fb0:	b69ff0ef          	jal	8b18 <f_write>
    8fb4:	00c12783          	lw	x15,12(x2)
    8fb8:	413787b3          	sub	x15,x15,x19
    8fbc:	00f037b3          	snez	x15,x15
    8fc0:	40f009b3          	neg	x19,x15
    8fc4:	fa9ff06f          	j	8f6c <putc_bfd+0x48>

00008fc8 <putc_flush>:
    8fc8:	00452603          	lw	x12,4(x10)
    8fcc:	04064463          	bltz	x12,9014 <putc_flush+0x4c>
    8fd0:	fe010113          	add	x2,x2,-32
    8fd4:	00112e23          	sw	x1,28(x2)
    8fd8:	00812c23          	sw	x8,24(x2)
    8fdc:	00050413          	mv	x8,x10
    8fe0:	00c10693          	add	x13,x2,12
    8fe4:	00c50593          	add	x11,x10,12
    8fe8:	00052503          	lw	x10,0(x10)
    8fec:	b2dff0ef          	jal	8b18 <f_write>
    8ff0:	02051663          	bnez	x10,901c <putc_flush+0x54>
    8ff4:	00442703          	lw	x14,4(x8)
    8ff8:	00c12783          	lw	x15,12(x2)
    8ffc:	02f71463          	bne	x14,x15,9024 <putc_flush+0x5c>
    9000:	00842503          	lw	x10,8(x8)
    9004:	01c12083          	lw	x1,28(x2)
    9008:	01812403          	lw	x8,24(x2)
    900c:	02010113          	add	x2,x2,32
    9010:	00008067          	ret
    9014:	fff00513          	li	x10,-1
    9018:	00008067          	ret
    901c:	fff00513          	li	x10,-1
    9020:	fe5ff06f          	j	9004 <putc_flush+0x3c>
    9024:	fff00513          	li	x10,-1
    9028:	fddff06f          	j	9004 <putc_flush+0x3c>

0000902c <f_sync>:
    902c:	f9010113          	add	x2,x2,-112
    9030:	06112623          	sw	x1,108(x2)
    9034:	06812423          	sw	x8,104(x2)
    9038:	00050413          	mv	x8,x10
    903c:	05c10593          	add	x11,x2,92
    9040:	c2dfa0ef          	jal	3c6c <validate>
    9044:	04051263          	bnez	x10,9088 <f_sync+0x5c>
    9048:	03044783          	lbu	x15,48(x8)
    904c:	0407f713          	and	x14,x15,64
    9050:	02070c63          	beqz	x14,9088 <f_sync+0x5c>
    9054:	01879793          	sll	x15,x15,0x18
    9058:	4187d793          	sra	x15,x15,0x18
    905c:	0207ce63          	bltz	x15,9098 <f_sync+0x6c>
    9060:	06912223          	sw	x9,100(x2)
    9064:	05c12483          	lw	x9,92(x2)
    9068:	0004c703          	lbu	x14,0(x9)
    906c:	00400793          	li	x15,4
    9070:	06f70063          	beq	x14,x15,90d0 <f_sync+0xa4>
    9074:	04842583          	lw	x11,72(x8)
    9078:	00048513          	mv	x10,x9
    907c:	d51fa0ef          	jal	3dcc <move_window>
    9080:	1a050263          	beqz	x10,9224 <f_sync+0x1f8>
    9084:	06412483          	lw	x9,100(x2)
    9088:	06c12083          	lw	x1,108(x2)
    908c:	06812403          	lw	x8,104(x2)
    9090:	07010113          	add	x2,x2,112
    9094:	00008067          	ret
    9098:	00100693          	li	x13,1
    909c:	04442603          	lw	x12,68(x8)
    90a0:	05040593          	add	x11,x8,80
    90a4:	05c12783          	lw	x15,92(x2)
    90a8:	0017c503          	lbu	x10,1(x15)
    90ac:	db4fa0ef          	jal	3660 <disk_write>
    90b0:	00050793          	mv	x15,x10
    90b4:	00100513          	li	x10,1
    90b8:	fc0798e3          	bnez	x15,9088 <f_sync+0x5c>
    90bc:	06912223          	sw	x9,100(x2)
    90c0:	03044783          	lbu	x15,48(x8)
    90c4:	07f7f793          	and	x15,x15,127
    90c8:	02f40823          	sb	x15,48(x8)
    90cc:	f99ff06f          	j	9064 <f_sync+0x38>
    90d0:	00040513          	mv	x10,x8
    90d4:	d04fb0ef          	jal	45d8 <fill_first_frag>
    90d8:	00050663          	beqz	x10,90e4 <f_sync+0xb8>
    90dc:	06412483          	lw	x9,100(x2)
    90e0:	fa9ff06f          	j	9088 <f_sync+0x5c>
    90e4:	fff00613          	li	x12,-1
    90e8:	04042583          	lw	x11,64(x8)
    90ec:	00040513          	mv	x10,x8
    90f0:	c54fb0ef          	jal	4544 <fill_last_frag>
    90f4:	00050663          	beqz	x10,9100 <f_sync+0xd4>
    90f8:	06412483          	lw	x9,100(x2)
    90fc:	f8dff06f          	j	9088 <f_sync+0x5c>
    9100:	00042783          	lw	x15,0(x8)
    9104:	00f12423          	sw	x15,8(x2)
    9108:	02042783          	lw	x15,32(x8)
    910c:	00f12823          	sw	x15,16(x2)
    9110:	02442783          	lw	x15,36(x8)
    9114:	00f107a3          	sb	x15,15(x2)
    9118:	f007f793          	and	x15,x15,-256
    911c:	00f12c23          	sw	x15,24(x2)
    9120:	00012e23          	sw	x0,28(x2)
    9124:	02012223          	sw	x0,36(x2)
    9128:	02842583          	lw	x11,40(x8)
    912c:	04b12a23          	sw	x11,84(x2)
    9130:	00810513          	add	x10,x2,8
    9134:	cadfb0ef          	jal	4de0 <dir_sdi>
    9138:	00050663          	beqz	x10,9144 <f_sync+0x118>
    913c:	06412483          	lw	x9,100(x2)
    9140:	f49ff06f          	j	9088 <f_sync+0x5c>
    9144:	00810513          	add	x10,x2,8
    9148:	ac9fc0ef          	jal	5c10 <load_xdir>
    914c:	16051263          	bnez	x10,92b0 <f_sync+0x284>
    9150:	0104a703          	lw	x14,16(x9)
    9154:	00474783          	lbu	x15,4(x14)
    9158:	0207e793          	or	x15,x15,32
    915c:	00f70223          	sb	x15,4(x14)
    9160:	0104a703          	lw	x14,16(x9)
    9164:	00744783          	lbu	x15,7(x8)
    9168:	0017e793          	or	x15,x15,1
    916c:	02f700a3          	sb	x15,33(x14)
    9170:	0104a703          	lw	x14,16(x9)
    9174:	00842783          	lw	x15,8(x8)
    9178:	02f70a23          	sb	x15,52(x14)
    917c:	0087d693          	srl	x13,x15,0x8
    9180:	02d70aa3          	sb	x13,53(x14)
    9184:	0107d693          	srl	x13,x15,0x10
    9188:	02d70b23          	sb	x13,54(x14)
    918c:	0187d793          	srl	x15,x15,0x18
    9190:	02f70ba3          	sb	x15,55(x14)
    9194:	0104a503          	lw	x10,16(x9)
    9198:	01042583          	lw	x11,16(x8)
    919c:	01442603          	lw	x12,20(x8)
    91a0:	03850513          	add	x10,x10,56
    91a4:	ddcfa0ef          	jal	3780 <st_qword>
    91a8:	0104a503          	lw	x10,16(x9)
    91ac:	01042583          	lw	x11,16(x8)
    91b0:	01442603          	lw	x12,20(x8)
    91b4:	02850513          	add	x10,x10,40
    91b8:	dc8fa0ef          	jal	3780 <st_qword>
    91bc:	0104a783          	lw	x15,16(x9)
    91c0:	00078623          	sb	x0,12(x15)
    91c4:	000786a3          	sb	x0,13(x15)
    91c8:	03500713          	li	x14,53
    91cc:	00e78723          	sb	x14,14(x15)
    91d0:	05800713          	li	x14,88
    91d4:	00e787a3          	sb	x14,15(x15)
    91d8:	0104a783          	lw	x15,16(x9)
    91dc:	00078aa3          	sb	x0,21(x15)
    91e0:	0104a783          	lw	x15,16(x9)
    91e4:	00078823          	sb	x0,16(x15)
    91e8:	000788a3          	sb	x0,17(x15)
    91ec:	00078923          	sb	x0,18(x15)
    91f0:	000789a3          	sb	x0,19(x15)
    91f4:	00810513          	add	x10,x2,8
    91f8:	c55fc0ef          	jal	5e4c <store_xdir>
    91fc:	00050663          	beqz	x10,9208 <f_sync+0x1dc>
    9200:	06412483          	lw	x9,100(x2)
    9204:	e85ff06f          	j	9088 <f_sync+0x5c>
    9208:	00048513          	mv	x10,x9
    920c:	f31fa0ef          	jal	413c <sync_fs>
    9210:	03044783          	lbu	x15,48(x8)
    9214:	fbf7f793          	and	x15,x15,-65
    9218:	02f40823          	sb	x15,48(x8)
    921c:	06412483          	lw	x9,100(x2)
    9220:	e69ff06f          	j	9088 <f_sync+0x5c>
    9224:	07212023          	sw	x18,96(x2)
    9228:	04c42903          	lw	x18,76(x8)
    922c:	00b94783          	lbu	x15,11(x18)
    9230:	0207e793          	or	x15,x15,32
    9234:	00f905a3          	sb	x15,11(x18)
    9238:	00842603          	lw	x12,8(x8)
    923c:	00090593          	mv	x11,x18
    9240:	00042503          	lw	x10,0(x8)
    9244:	c0cfb0ef          	jal	4650 <st_clust>
    9248:	01042783          	lw	x15,16(x8)
    924c:	00f90e23          	sb	x15,28(x18)
    9250:	0087d713          	srl	x14,x15,0x8
    9254:	00e90ea3          	sb	x14,29(x18)
    9258:	0107d713          	srl	x14,x15,0x10
    925c:	00e90f23          	sb	x14,30(x18)
    9260:	0187d793          	srl	x15,x15,0x18
    9264:	00f90fa3          	sb	x15,31(x18)
    9268:	00090b23          	sb	x0,22(x18)
    926c:	00090ba3          	sb	x0,23(x18)
    9270:	03500793          	li	x15,53
    9274:	00f90c23          	sb	x15,24(x18)
    9278:	05800793          	li	x15,88
    927c:	00f90ca3          	sb	x15,25(x18)
    9280:	00090923          	sb	x0,18(x18)
    9284:	000909a3          	sb	x0,19(x18)
    9288:	00100793          	li	x15,1
    928c:	00f48223          	sb	x15,4(x9)
    9290:	00048513          	mv	x10,x9
    9294:	ea9fa0ef          	jal	413c <sync_fs>
    9298:	03044783          	lbu	x15,48(x8)
    929c:	fbf7f793          	and	x15,x15,-65
    92a0:	02f40823          	sb	x15,48(x8)
    92a4:	06412483          	lw	x9,100(x2)
    92a8:	06012903          	lw	x18,96(x2)
    92ac:	dddff06f          	j	9088 <f_sync+0x5c>
    92b0:	06412483          	lw	x9,100(x2)
    92b4:	dd5ff06f          	j	9088 <f_sync+0x5c>

000092b8 <f_close>:
    92b8:	fe010113          	add	x2,x2,-32
    92bc:	00112e23          	sw	x1,28(x2)
    92c0:	00812c23          	sw	x8,24(x2)
    92c4:	00050413          	mv	x8,x10
    92c8:	d65ff0ef          	jal	902c <f_sync>
    92cc:	00050a63          	beqz	x10,92e0 <f_close+0x28>
    92d0:	01c12083          	lw	x1,28(x2)
    92d4:	01812403          	lw	x8,24(x2)
    92d8:	02010113          	add	x2,x2,32
    92dc:	00008067          	ret
    92e0:	00c10593          	add	x11,x2,12
    92e4:	00040513          	mv	x10,x8
    92e8:	985fa0ef          	jal	3c6c <validate>
    92ec:	fe0512e3          	bnez	x10,92d0 <f_close+0x18>
    92f0:	00042023          	sw	x0,0(x8)
    92f4:	fddff06f          	j	92d0 <f_close+0x18>

000092f8 <f_lseek>:
    92f8:	fc010113          	add	x2,x2,-64
    92fc:	02112e23          	sw	x1,60(x2)
    9300:	02812c23          	sw	x8,56(x2)
    9304:	03212823          	sw	x18,48(x2)
    9308:	03312623          	sw	x19,44(x2)
    930c:	03412423          	sw	x20,40(x2)
    9310:	00050413          	mv	x8,x10
    9314:	00058993          	mv	x19,x11
    9318:	00060913          	mv	x18,x12
    931c:	00c10593          	add	x11,x2,12
    9320:	94dfa0ef          	jal	3c6c <validate>
    9324:	00050a13          	mv	x20,x10
    9328:	08051e63          	bnez	x10,93c4 <f_lseek+0xcc>
    932c:	03144a03          	lbu	x20,49(x8)
    9330:	080a1a63          	bnez	x20,93c4 <f_lseek+0xcc>
    9334:	03612023          	sw	x22,32(x2)
    9338:	00c12b03          	lw	x22,12(x2)
    933c:	000b4703          	lbu	x14,0(x22)
    9340:	00400793          	li	x15,4
    9344:	00f70a63          	beq	x14,x15,9358 <f_lseek+0x60>
    9348:	02090863          	beqz	x18,9378 <f_lseek+0x80>
    934c:	fff00993          	li	x19,-1
    9350:	00000913          	li	x18,0
    9354:	0240006f          	j	9378 <f_lseek+0x80>
    9358:	fff00613          	li	x12,-1
    935c:	04042583          	lw	x11,64(x8)
    9360:	00040513          	mv	x10,x8
    9364:	9e0fb0ef          	jal	4544 <fill_last_frag>
    9368:	46051463          	bnez	x10,97d0 <f_lseek+0x4d8>
    936c:	000b4703          	lbu	x14,0(x22)
    9370:	00400793          	li	x15,4
    9374:	fcf71ae3          	bne	x14,x15,9348 <f_lseek+0x50>
    9378:	01042683          	lw	x13,16(x8)
    937c:	01442783          	lw	x15,20(x8)
    9380:	0127e663          	bltu	x15,x18,938c <f_lseek+0x94>
    9384:	00f91e63          	bne	x18,x15,93a0 <f_lseek+0xa8>
    9388:	0136fc63          	bgeu	x13,x19,93a0 <f_lseek+0xa8>
    938c:	03044703          	lbu	x14,48(x8)
    9390:	00277713          	and	x14,x14,2
    9394:	44071463          	bnez	x14,97dc <f_lseek+0x4e4>
    9398:	00068993          	mv	x19,x13
    939c:	00078913          	mv	x18,x15
    93a0:	03842703          	lw	x14,56(x8)
    93a4:	03c42783          	lw	x15,60(x8)
    93a8:	00000613          	li	x12,0
    93ac:	00000693          	li	x13,0
    93b0:	02c42c23          	sw	x12,56(x8)
    93b4:	02d42e23          	sw	x13,60(x8)
    93b8:	0129e6b3          	or	x13,x19,x18
    93bc:	02069463          	bnez	x13,93e4 <f_lseek+0xec>
    93c0:	02012b03          	lw	x22,32(x2)
    93c4:	000a0513          	mv	x10,x20
    93c8:	03c12083          	lw	x1,60(x2)
    93cc:	03812403          	lw	x8,56(x2)
    93d0:	03012903          	lw	x18,48(x2)
    93d4:	02c12983          	lw	x19,44(x2)
    93d8:	02812a03          	lw	x20,40(x2)
    93dc:	04010113          	add	x2,x2,64
    93e0:	00008067          	ret
    93e4:	02912a23          	sw	x9,52(x2)
    93e8:	03512223          	sw	x21,36(x2)
    93ec:	00ab5a83          	lhu	x21,10(x22)
    93f0:	009a9a93          	sll	x21,x21,0x9
    93f4:	00f766b3          	or	x13,x14,x15
    93f8:	0a068063          	beqz	x13,9498 <f_lseek+0x1a0>
    93fc:	01712e23          	sw	x23,28(x2)
    9400:	01812c23          	sw	x24,24(x2)
    9404:	01912a23          	sw	x25,20(x2)
    9408:	fff70b93          	add	x23,x14,-1
    940c:	00173713          	seqz	x14,x14
    9410:	40e784b3          	sub	x9,x15,x14
    9414:	000a8613          	mv	x12,x21
    9418:	00000693          	li	x13,0
    941c:	000b8513          	mv	x10,x23
    9420:	00048593          	mv	x11,x9
    9424:	234020ef          	jal	b658 <_end>
    9428:	00050c93          	mv	x25,x10
    942c:	00058c13          	mv	x24,x11
    9430:	0019b593          	seqz	x11,x19
    9434:	000a8613          	mv	x12,x21
    9438:	00000693          	li	x13,0
    943c:	fff98513          	add	x10,x19,-1
    9440:	40b905b3          	sub	x11,x18,x11
    9444:	214020ef          	jal	b658 <_end>
    9448:	0585e263          	bltu	x11,x24,948c <f_lseek+0x194>
    944c:	00bc1463          	bne	x24,x11,9454 <f_lseek+0x15c>
    9450:	09956063          	bltu	x10,x25,94d0 <f_lseek+0x1d8>
    9454:	41500733          	neg	x14,x21
    9458:	01777733          	and	x14,x14,x23
    945c:	02e42c23          	sw	x14,56(x8)
    9460:	02942e23          	sw	x9,60(x8)
    9464:	40e98733          	sub	x14,x19,x14
    9468:	00e9b6b3          	sltu	x13,x19,x14
    946c:	409907b3          	sub	x15,x18,x9
    9470:	00070993          	mv	x19,x14
    9474:	40d78933          	sub	x18,x15,x13
    9478:	04042483          	lw	x9,64(x8)
    947c:	01c12b83          	lw	x23,28(x2)
    9480:	01812c03          	lw	x24,24(x2)
    9484:	01412c83          	lw	x25,20(x2)
    9488:	01c0006f          	j	94a4 <f_lseek+0x1ac>
    948c:	01c12b83          	lw	x23,28(x2)
    9490:	01812c03          	lw	x24,24(x2)
    9494:	01412c83          	lw	x25,20(x2)
    9498:	00842483          	lw	x9,8(x8)
    949c:	04048263          	beqz	x9,94e0 <f_lseek+0x1e8>
    94a0:	04942023          	sw	x9,64(x8)
    94a4:	14048263          	beqz	x9,95e8 <f_lseek+0x2f0>
    94a8:	01912a23          	sw	x25,20(x2)
    94ac:	01a12823          	sw	x26,16(x2)
    94b0:	000a8d13          	mv	x26,x21
    94b4:	00000c93          	li	x25,0
    94b8:	08090463          	beqz	x18,9540 <f_lseek+0x248>
    94bc:	01712e23          	sw	x23,28(x2)
    94c0:	01812c23          	sw	x24,24(x2)
    94c4:	fff00b93          	li	x23,-1
    94c8:	00100c13          	li	x24,1
    94cc:	0bc0006f          	j	9588 <f_lseek+0x290>
    94d0:	01c12b83          	lw	x23,28(x2)
    94d4:	01812c03          	lw	x24,24(x2)
    94d8:	01412c83          	lw	x25,20(x2)
    94dc:	fbdff06f          	j	9498 <f_lseek+0x1a0>
    94e0:	00000593          	li	x11,0
    94e4:	00040513          	mv	x10,x8
    94e8:	aa1fb0ef          	jal	4f88 <create_chain>
    94ec:	00050493          	mv	x9,x10
    94f0:	00100793          	li	x15,1
    94f4:	00f50a63          	beq	x10,x15,9508 <f_lseek+0x210>
    94f8:	fff00793          	li	x15,-1
    94fc:	02f50463          	beq	x10,x15,9524 <f_lseek+0x22c>
    9500:	00a42423          	sw	x10,8(x8)
    9504:	f9dff06f          	j	94a0 <f_lseek+0x1a8>
    9508:	00200793          	li	x15,2
    950c:	02f408a3          	sb	x15,49(x8)
    9510:	00200a13          	li	x20,2
    9514:	03412483          	lw	x9,52(x2)
    9518:	02412a83          	lw	x21,36(x2)
    951c:	02012b03          	lw	x22,32(x2)
    9520:	ea5ff06f          	j	93c4 <f_lseek+0xcc>
    9524:	00100793          	li	x15,1
    9528:	02f408a3          	sb	x15,49(x8)
    952c:	00100a13          	li	x20,1
    9530:	03412483          	lw	x9,52(x2)
    9534:	02412a83          	lw	x21,36(x2)
    9538:	02012b03          	lw	x22,32(x2)
    953c:	e89ff06f          	j	93c4 <f_lseek+0xcc>
    9540:	19991e63          	bne	x18,x25,96dc <f_lseek+0x3e4>
    9544:	f73aece3          	bltu	x21,x19,94bc <f_lseek+0x1c4>
    9548:	1940006f          	j	96dc <f_lseek+0x3e4>
    954c:	00f42823          	sw	x15,16(x8)
    9550:	00e42a23          	sw	x14,20(x8)
    9554:	0406e693          	or	x13,x13,64
    9558:	02d40823          	sb	x13,48(x8)
    955c:	00048593          	mv	x11,x9
    9560:	00040513          	mv	x10,x8
    9564:	a25fb0ef          	jal	4f88 <create_chain>
    9568:	00050493          	mv	x9,x10
    956c:	06050663          	beqz	x10,95d8 <f_lseek+0x2e0>
    9570:	0f748c63          	beq	x9,x23,9668 <f_lseek+0x370>
    9574:	129c7063          	bgeu	x24,x9,9694 <f_lseek+0x39c>
    9578:	01cb2783          	lw	x15,28(x22)
    957c:	10f4fc63          	bgeu	x9,x15,9694 <f_lseek+0x39c>
    9580:	04942023          	sw	x9,64(x8)
    9584:	132cfe63          	bgeu	x25,x18,96c0 <f_lseek+0x3c8>
    9588:	415987b3          	sub	x15,x19,x21
    958c:	00f9b733          	sltu	x14,x19,x15
    9590:	00078993          	mv	x19,x15
    9594:	40e90933          	sub	x18,x18,x14
    9598:	03842783          	lw	x15,56(x8)
    959c:	00fa87b3          	add	x15,x21,x15
    95a0:	0157b733          	sltu	x14,x15,x21
    95a4:	03c42683          	lw	x13,60(x8)
    95a8:	00d70733          	add	x14,x14,x13
    95ac:	02f42c23          	sw	x15,56(x8)
    95b0:	02e42e23          	sw	x14,60(x8)
    95b4:	03044683          	lbu	x13,48(x8)
    95b8:	0026f593          	and	x11,x13,2
    95bc:	08058c63          	beqz	x11,9654 <f_lseek+0x35c>
    95c0:	01442583          	lw	x11,20(x8)
    95c4:	f8e5e4e3          	bltu	x11,x14,954c <f_lseek+0x254>
    95c8:	f8e59ae3          	bne	x11,x14,955c <f_lseek+0x264>
    95cc:	01042603          	lw	x12,16(x8)
    95d0:	f8f676e3          	bgeu	x12,x15,955c <f_lseek+0x264>
    95d4:	f79ff06f          	j	954c <f_lseek+0x254>
    95d8:	01c12b83          	lw	x23,28(x2)
    95dc:	01812c03          	lw	x24,24(x2)
    95e0:	01412c83          	lw	x25,20(x2)
    95e4:	01012d03          	lw	x26,16(x2)
    95e8:	03842783          	lw	x15,56(x8)
    95ec:	03c42703          	lw	x14,60(x8)
    95f0:	01442683          	lw	x13,20(x8)
    95f4:	16e6f863          	bgeu	x13,x14,9764 <f_lseek+0x46c>
    95f8:	00f42823          	sw	x15,16(x8)
    95fc:	00e42a23          	sw	x14,20(x8)
    9600:	03044703          	lbu	x14,48(x8)
    9604:	04076713          	or	x14,x14,64
    9608:	02e40823          	sb	x14,48(x8)
    960c:	1ff7f793          	and	x15,x15,511
    9610:	1e078863          	beqz	x15,9800 <f_lseek+0x508>
    9614:	04442603          	lw	x12,68(x8)
    9618:	1e960c63          	beq	x12,x9,9810 <f_lseek+0x518>
    961c:	03040783          	lb	x15,48(x8)
    9620:	1407ca63          	bltz	x15,9774 <f_lseek+0x47c>
    9624:	00100693          	li	x13,1
    9628:	00048613          	mv	x12,x9
    962c:	05040593          	add	x11,x8,80
    9630:	001b4503          	lbu	x10,1(x22)
    9634:	fe5f90ef          	jal	3618 <disk_read>
    9638:	00050a13          	mv	x20,x10
    963c:	16051c63          	bnez	x10,97b4 <f_lseek+0x4bc>
    9640:	04942223          	sw	x9,68(x8)
    9644:	03412483          	lw	x9,52(x2)
    9648:	02412a83          	lw	x21,36(x2)
    964c:	02012b03          	lw	x22,32(x2)
    9650:	d75ff06f          	j	93c4 <f_lseek+0xcc>
    9654:	00048593          	mv	x11,x9
    9658:	00040513          	mv	x10,x8
    965c:	cc0fb0ef          	jal	4b1c <get_fat>
    9660:	00050493          	mv	x9,x10
    9664:	f0dff06f          	j	9570 <f_lseek+0x278>
    9668:	00100793          	li	x15,1
    966c:	02f408a3          	sb	x15,49(x8)
    9670:	00100a13          	li	x20,1
    9674:	03412483          	lw	x9,52(x2)
    9678:	02412a83          	lw	x21,36(x2)
    967c:	02012b03          	lw	x22,32(x2)
    9680:	01c12b83          	lw	x23,28(x2)
    9684:	01812c03          	lw	x24,24(x2)
    9688:	01412c83          	lw	x25,20(x2)
    968c:	01012d03          	lw	x26,16(x2)
    9690:	d35ff06f          	j	93c4 <f_lseek+0xcc>
    9694:	00200793          	li	x15,2
    9698:	02f408a3          	sb	x15,49(x8)
    969c:	00200a13          	li	x20,2
    96a0:	03412483          	lw	x9,52(x2)
    96a4:	02412a83          	lw	x21,36(x2)
    96a8:	02012b03          	lw	x22,32(x2)
    96ac:	01c12b83          	lw	x23,28(x2)
    96b0:	01812c03          	lw	x24,24(x2)
    96b4:	01412c83          	lw	x25,20(x2)
    96b8:	01012d03          	lw	x26,16(x2)
    96bc:	d09ff06f          	j	93c4 <f_lseek+0xcc>
    96c0:	01991a63          	bne	x18,x25,96d4 <f_lseek+0x3dc>
    96c4:	ed3d62e3          	bltu	x26,x19,9588 <f_lseek+0x290>
    96c8:	01c12b83          	lw	x23,28(x2)
    96cc:	01812c03          	lw	x24,24(x2)
    96d0:	00c0006f          	j	96dc <f_lseek+0x3e4>
    96d4:	01c12b83          	lw	x23,28(x2)
    96d8:	01812c03          	lw	x24,24(x2)
    96dc:	03842783          	lw	x15,56(x8)
    96e0:	03c42703          	lw	x14,60(x8)
    96e4:	013786b3          	add	x13,x15,x19
    96e8:	00f6b7b3          	sltu	x15,x13,x15
    96ec:	01270733          	add	x14,x14,x18
    96f0:	00e787b3          	add	x15,x15,x14
    96f4:	02d42c23          	sw	x13,56(x8)
    96f8:	02f42e23          	sw	x15,60(x8)
    96fc:	1ff9f793          	and	x15,x19,511
    9700:	04078a63          	beqz	x15,9754 <f_lseek+0x45c>
    9704:	00048593          	mv	x11,x9
    9708:	000b0513          	mv	x10,x22
    970c:	8b0fa0ef          	jal	37bc <clst2sect>
    9710:	02050063          	beqz	x10,9730 <f_lseek+0x438>
    9714:	01791913          	sll	x18,x18,0x17
    9718:	0099d993          	srl	x19,x19,0x9
    971c:	013969b3          	or	x19,x18,x19
    9720:	013504b3          	add	x9,x10,x19
    9724:	01412c83          	lw	x25,20(x2)
    9728:	01012d03          	lw	x26,16(x2)
    972c:	ebdff06f          	j	95e8 <f_lseek+0x2f0>
    9730:	00200793          	li	x15,2
    9734:	02f408a3          	sb	x15,49(x8)
    9738:	00200a13          	li	x20,2
    973c:	03412483          	lw	x9,52(x2)
    9740:	02412a83          	lw	x21,36(x2)
    9744:	02012b03          	lw	x22,32(x2)
    9748:	01412c83          	lw	x25,20(x2)
    974c:	01012d03          	lw	x26,16(x2)
    9750:	c75ff06f          	j	93c4 <f_lseek+0xcc>
    9754:	000a0493          	mv	x9,x20
    9758:	01412c83          	lw	x25,20(x2)
    975c:	01012d03          	lw	x26,16(x2)
    9760:	e89ff06f          	j	95e8 <f_lseek+0x2f0>
    9764:	eae694e3          	bne	x13,x14,960c <f_lseek+0x314>
    9768:	01042683          	lw	x13,16(x8)
    976c:	e8f6e6e3          	bltu	x13,x15,95f8 <f_lseek+0x300>
    9770:	e9dff06f          	j	960c <f_lseek+0x314>
    9774:	00100693          	li	x13,1
    9778:	05040593          	add	x11,x8,80
    977c:	001b4503          	lbu	x10,1(x22)
    9780:	ee1f90ef          	jal	3660 <disk_write>
    9784:	00051a63          	bnez	x10,9798 <f_lseek+0x4a0>
    9788:	03044783          	lbu	x15,48(x8)
    978c:	07f7f793          	and	x15,x15,127
    9790:	02f40823          	sb	x15,48(x8)
    9794:	e91ff06f          	j	9624 <f_lseek+0x32c>
    9798:	00100793          	li	x15,1
    979c:	02f408a3          	sb	x15,49(x8)
    97a0:	00100a13          	li	x20,1
    97a4:	03412483          	lw	x9,52(x2)
    97a8:	02412a83          	lw	x21,36(x2)
    97ac:	02012b03          	lw	x22,32(x2)
    97b0:	c15ff06f          	j	93c4 <f_lseek+0xcc>
    97b4:	00100793          	li	x15,1
    97b8:	02f408a3          	sb	x15,49(x8)
    97bc:	00100a13          	li	x20,1
    97c0:	03412483          	lw	x9,52(x2)
    97c4:	02412a83          	lw	x21,36(x2)
    97c8:	02012b03          	lw	x22,32(x2)
    97cc:	bf9ff06f          	j	93c4 <f_lseek+0xcc>
    97d0:	00050a13          	mv	x20,x10
    97d4:	02012b03          	lw	x22,32(x2)
    97d8:	bedff06f          	j	93c4 <f_lseek+0xcc>
    97dc:	02912a23          	sw	x9,52(x2)
    97e0:	03512223          	sw	x21,36(x2)
    97e4:	03842703          	lw	x14,56(x8)
    97e8:	03c42783          	lw	x15,60(x8)
    97ec:	00000613          	li	x12,0
    97f0:	00000693          	li	x13,0
    97f4:	02c42c23          	sw	x12,56(x8)
    97f8:	02d42e23          	sw	x13,60(x8)
    97fc:	bf1ff06f          	j	93ec <f_lseek+0xf4>
    9800:	03412483          	lw	x9,52(x2)
    9804:	02412a83          	lw	x21,36(x2)
    9808:	02012b03          	lw	x22,32(x2)
    980c:	bb9ff06f          	j	93c4 <f_lseek+0xcc>
    9810:	03412483          	lw	x9,52(x2)
    9814:	02412a83          	lw	x21,36(x2)
    9818:	02012b03          	lw	x22,32(x2)
    981c:	ba9ff06f          	j	93c4 <f_lseek+0xcc>

00009820 <f_opendir>:
    9820:	fd010113          	add	x2,x2,-48
    9824:	02112623          	sw	x1,44(x2)
    9828:	00b12623          	sw	x11,12(x2)
    982c:	10050063          	beqz	x10,992c <f_opendir+0x10c>
    9830:	02812423          	sw	x8,40(x2)
    9834:	00050413          	mv	x8,x10
    9838:	00000613          	li	x12,0
    983c:	01c10593          	add	x11,x2,28
    9840:	00c10513          	add	x10,x2,12
    9844:	921fc0ef          	jal	6164 <mount_volume>
    9848:	00050c63          	beqz	x10,9860 <f_opendir+0x40>
    984c:	00042023          	sw	x0,0(x8)
    9850:	02812403          	lw	x8,40(x2)
    9854:	02c12083          	lw	x1,44(x2)
    9858:	03010113          	add	x2,x2,48
    985c:	00008067          	ret
    9860:	02912223          	sw	x9,36(x2)
    9864:	01c12483          	lw	x9,28(x2)
    9868:	00942023          	sw	x9,0(x8)
    986c:	00c12583          	lw	x11,12(x2)
    9870:	00040513          	mv	x10,x8
    9874:	ab8fe0ef          	jal	7b2c <follow_path>
    9878:	04051463          	bnez	x10,98c0 <f_opendir+0xa0>
    987c:	04b40783          	lb	x15,75(x8)
    9880:	0207c663          	bltz	x15,98ac <f_opendir+0x8c>
    9884:	00644783          	lbu	x15,6(x8)
    9888:	0107f793          	and	x15,x15,16
    988c:	08078463          	beqz	x15,9914 <f_opendir+0xf4>
    9890:	0004c703          	lbu	x14,0(x9)
    9894:	00400793          	li	x15,4
    9898:	04f70063          	beq	x14,x15,98d8 <f_opendir+0xb8>
    989c:	03c42583          	lw	x11,60(x8)
    98a0:	00048513          	mv	x10,x9
    98a4:	a40fe0ef          	jal	7ae4 <ld_clust>
    98a8:	00a42423          	sw	x10,8(x8)
    98ac:	0064d783          	lhu	x15,6(x9)
    98b0:	00f41223          	sh	x15,4(x8)
    98b4:	00000593          	li	x11,0
    98b8:	00040513          	mv	x10,x8
    98bc:	d24fb0ef          	jal	4de0 <dir_sdi>
    98c0:	00400793          	li	x15,4
    98c4:	04f50e63          	beq	x10,x15,9920 <f_opendir+0x100>
    98c8:	04051263          	bnez	x10,990c <f_opendir+0xec>
    98cc:	02812403          	lw	x8,40(x2)
    98d0:	02412483          	lw	x9,36(x2)
    98d4:	f81ff06f          	j	9854 <f_opendir+0x34>
    98d8:	00842783          	lw	x15,8(x8)
    98dc:	02f42023          	sw	x15,32(x8)
    98e0:	01042783          	lw	x15,16(x8)
    98e4:	f007f793          	and	x15,x15,-256
    98e8:	00744703          	lbu	x14,7(x8)
    98ec:	00e7e7b3          	or	x15,x15,x14
    98f0:	02f42223          	sw	x15,36(x8)
    98f4:	04c42783          	lw	x15,76(x8)
    98f8:	02f42423          	sw	x15,40(x8)
    98fc:	00040593          	mv	x11,x8
    9900:	00048513          	mv	x10,x9
    9904:	f85f90ef          	jal	3888 <init_alloc_info>
    9908:	fa5ff06f          	j	98ac <f_opendir+0x8c>
    990c:	02412483          	lw	x9,36(x2)
    9910:	f3dff06f          	j	984c <f_opendir+0x2c>
    9914:	00500513          	li	x10,5
    9918:	02412483          	lw	x9,36(x2)
    991c:	f31ff06f          	j	984c <f_opendir+0x2c>
    9920:	00500513          	li	x10,5
    9924:	02412483          	lw	x9,36(x2)
    9928:	f25ff06f          	j	984c <f_opendir+0x2c>
    992c:	00900513          	li	x10,9
    9930:	f25ff06f          	j	9854 <f_opendir+0x34>

00009934 <f_closedir>:
    9934:	fe010113          	add	x2,x2,-32
    9938:	00112e23          	sw	x1,28(x2)
    993c:	00812c23          	sw	x8,24(x2)
    9940:	00050413          	mv	x8,x10
    9944:	00c10593          	add	x11,x2,12
    9948:	b24fa0ef          	jal	3c6c <validate>
    994c:	00051463          	bnez	x10,9954 <f_closedir+0x20>
    9950:	00042023          	sw	x0,0(x8)
    9954:	01c12083          	lw	x1,28(x2)
    9958:	01812403          	lw	x8,24(x2)
    995c:	02010113          	add	x2,x2,32
    9960:	00008067          	ret

00009964 <f_readdir>:
    9964:	fe010113          	add	x2,x2,-32
    9968:	00112e23          	sw	x1,28(x2)
    996c:	00812c23          	sw	x8,24(x2)
    9970:	00912a23          	sw	x9,20(x2)
    9974:	00050413          	mv	x8,x10
    9978:	00058493          	mv	x9,x11
    997c:	00c10593          	add	x11,x2,12
    9980:	aecfa0ef          	jal	3c6c <validate>
    9984:	02051263          	bnez	x10,99a8 <f_readdir+0x44>
    9988:	02048a63          	beqz	x9,99bc <f_readdir+0x58>
    998c:	01212823          	sw	x18,16(x2)
    9990:	00000593          	li	x11,0
    9994:	00040513          	mv	x10,x8
    9998:	aa0fd0ef          	jal	6c38 <dir_read>
    999c:	ffb57913          	and	x18,x10,-5
    99a0:	02090663          	beqz	x18,99cc <f_readdir+0x68>
    99a4:	01012903          	lw	x18,16(x2)
    99a8:	01c12083          	lw	x1,28(x2)
    99ac:	01812403          	lw	x8,24(x2)
    99b0:	01412483          	lw	x9,20(x2)
    99b4:	02010113          	add	x2,x2,32
    99b8:	00008067          	ret
    99bc:	00000593          	li	x11,0
    99c0:	00040513          	mv	x10,x8
    99c4:	c1cfb0ef          	jal	4de0 <dir_sdi>
    99c8:	fe1ff06f          	j	99a8 <f_readdir+0x44>
    99cc:	00048593          	mv	x11,x9
    99d0:	00040513          	mv	x10,x8
    99d4:	cb5fa0ef          	jal	4688 <get_fileinfo>
    99d8:	00000593          	li	x11,0
    99dc:	00040513          	mv	x10,x8
    99e0:	e59fb0ef          	jal	5838 <dir_next>
    99e4:	00400793          	li	x15,4
    99e8:	00f50663          	beq	x10,x15,99f4 <f_readdir+0x90>
    99ec:	01012903          	lw	x18,16(x2)
    99f0:	fb9ff06f          	j	99a8 <f_readdir+0x44>
    99f4:	00090513          	mv	x10,x18
    99f8:	01012903          	lw	x18,16(x2)
    99fc:	fadff06f          	j	99a8 <f_readdir+0x44>

00009a00 <f_stat>:
    9a00:	f9010113          	add	x2,x2,-112
    9a04:	06112623          	sw	x1,108(x2)
    9a08:	06812423          	sw	x8,104(x2)
    9a0c:	06912223          	sw	x9,100(x2)
    9a10:	00a12623          	sw	x10,12(x2)
    9a14:	00058493          	mv	x9,x11
    9a18:	00000613          	li	x12,0
    9a1c:	01010593          	add	x11,x2,16
    9a20:	00c10513          	add	x10,x2,12
    9a24:	f40fc0ef          	jal	6164 <mount_volume>
    9a28:	00050413          	mv	x8,x10
    9a2c:	00050e63          	beqz	x10,9a48 <f_stat+0x48>
    9a30:	00040513          	mv	x10,x8
    9a34:	06c12083          	lw	x1,108(x2)
    9a38:	06812403          	lw	x8,104(x2)
    9a3c:	06412483          	lw	x9,100(x2)
    9a40:	07010113          	add	x2,x2,112
    9a44:	00008067          	ret
    9a48:	00c12583          	lw	x11,12(x2)
    9a4c:	01010513          	add	x10,x2,16
    9a50:	8dcfe0ef          	jal	7b2c <follow_path>
    9a54:	00050413          	mv	x8,x10
    9a58:	fc051ce3          	bnez	x10,9a30 <f_stat+0x30>
    9a5c:	05b10783          	lb	x15,91(x2)
    9a60:	0007cc63          	bltz	x15,9a78 <f_stat+0x78>
    9a64:	fc0486e3          	beqz	x9,9a30 <f_stat+0x30>
    9a68:	00048593          	mv	x11,x9
    9a6c:	01010513          	add	x10,x2,16
    9a70:	c19fa0ef          	jal	4688 <get_fileinfo>
    9a74:	fbdff06f          	j	9a30 <f_stat+0x30>
    9a78:	00600413          	li	x8,6
    9a7c:	fb5ff06f          	j	9a30 <f_stat+0x30>

00009a80 <f_getfree>:
    9a80:	f8010113          	add	x2,x2,-128
    9a84:	06112e23          	sw	x1,124(x2)
    9a88:	06812c23          	sw	x8,120(x2)
    9a8c:	07312623          	sw	x19,108(x2)
    9a90:	07412423          	sw	x20,104(x2)
    9a94:	00a12623          	sw	x10,12(x2)
    9a98:	00058a13          	mv	x20,x11
    9a9c:	00060413          	mv	x8,x12
    9aa0:	00000613          	li	x12,0
    9aa4:	04c10593          	add	x11,x2,76
    9aa8:	00c10513          	add	x10,x2,12
    9aac:	eb8fc0ef          	jal	6164 <mount_volume>
    9ab0:	00050993          	mv	x19,x10
    9ab4:	02051863          	bnez	x10,9ae4 <f_getfree+0x64>
    9ab8:	07212823          	sw	x18,112(x2)
    9abc:	07512223          	sw	x21,100(x2)
    9ac0:	04c12903          	lw	x18,76(x2)
    9ac4:	01242023          	sw	x18,0(x8)
    9ac8:	01892783          	lw	x15,24(x18)
    9acc:	01c92a83          	lw	x21,28(x18)
    9ad0:	ffea8413          	add	x8,x21,-2
    9ad4:	02f46663          	bltu	x8,x15,9b00 <f_getfree+0x80>
    9ad8:	00fa2023          	sw	x15,0(x20)
    9adc:	07012903          	lw	x18,112(x2)
    9ae0:	06412a83          	lw	x21,100(x2)
    9ae4:	00098513          	mv	x10,x19
    9ae8:	07c12083          	lw	x1,124(x2)
    9aec:	07812403          	lw	x8,120(x2)
    9af0:	06c12983          	lw	x19,108(x2)
    9af4:	06812a03          	lw	x20,104(x2)
    9af8:	08010113          	add	x2,x2,128
    9afc:	00008067          	ret
    9b00:	06912a23          	sw	x9,116(x2)
    9b04:	07612023          	sw	x22,96(x2)
    9b08:	00094783          	lbu	x15,0(x18)
    9b0c:	00100713          	li	x14,1
    9b10:	02e78e63          	beq	x15,x14,9b4c <f_getfree+0xcc>
    9b14:	00400713          	li	x14,4
    9b18:	06e78a63          	beq	x15,x14,9b8c <f_getfree+0x10c>
    9b1c:	05712e23          	sw	x23,92(x2)
    9b20:	05812c23          	sw	x24,88(x2)
    9b24:	05912a23          	sw	x25,84(x2)
    9b28:	05a12823          	sw	x26,80(x2)
    9b2c:	02892c03          	lw	x24,40(x18)
    9b30:	00050413          	mv	x8,x10
    9b34:	00050493          	mv	x9,x10
    9b38:	00200b93          	li	x23,2
    9b3c:	03c90b13          	add	x22,x18,60
    9b40:	10000cb7          	lui	x25,0x10000
    9b44:	fffc8c93          	add	x25,x25,-1 # fffffff <STACK_TOP+0xfefffff>
    9b48:	1140006f          	j	9c5c <f_getfree+0x1dc>
    9b4c:	01212c23          	sw	x18,24(x2)
    9b50:	00050493          	mv	x9,x10
    9b54:	00200413          	li	x8,2
    9b58:	fff00a93          	li	x21,-1
    9b5c:	00100b13          	li	x22,1
    9b60:	00040593          	mv	x11,x8
    9b64:	01810513          	add	x10,x2,24
    9b68:	fb5fa0ef          	jal	4b1c <get_fat>
    9b6c:	13550e63          	beq	x10,x21,9ca8 <f_getfree+0x228>
    9b70:	15650863          	beq	x10,x22,9cc0 <f_getfree+0x240>
    9b74:	00153513          	seqz	x10,x10
    9b78:	00a484b3          	add	x9,x9,x10
    9b7c:	00140413          	add	x8,x8,1
    9b80:	01c92783          	lw	x15,28(x18)
    9b84:	fcf46ee3          	bltu	x8,x15,9b60 <f_getfree+0xe0>
    9b88:	06c0006f          	j	9bf4 <f_getfree+0x174>
    9b8c:	03492583          	lw	x11,52(x18)
    9b90:	00050a93          	mv	x21,x10
    9b94:	00050493          	mv	x9,x10
    9b98:	0280006f          	j	9bc0 <f_getfree+0x140>
    9b9c:	00158b13          	add	x22,x11,1
    9ba0:	00090513          	mv	x10,x18
    9ba4:	a28fa0ef          	jal	3dcc <move_window>
    9ba8:	12051863          	bnez	x10,9cd8 <f_getfree+0x258>
    9bac:	000b0593          	mv	x11,x22
    9bb0:	0140006f          	j	9bc4 <f_getfree+0x144>
    9bb4:	001a8a93          	add	x21,x21,1
    9bb8:	1ffafa93          	and	x21,x21,511
    9bbc:	02040c63          	beqz	x8,9bf4 <f_getfree+0x174>
    9bc0:	fc0a8ee3          	beqz	x21,9b9c <f_getfree+0x11c>
    9bc4:	015907b3          	add	x15,x18,x21
    9bc8:	03c7c783          	lbu	x15,60(x15)
    9bcc:	fff7c793          	not	x15,x15
    9bd0:	0ff7f793          	zext.b	x15,x15
    9bd4:	02040063          	beqz	x8,9bf4 <f_getfree+0x174>
    9bd8:	ff840693          	add	x13,x8,-8
    9bdc:	0017f713          	and	x14,x15,1
    9be0:	00e484b3          	add	x9,x9,x14
    9be4:	0017d793          	srl	x15,x15,0x1
    9be8:	fff40413          	add	x8,x8,-1
    9bec:	fcd404e3          	beq	x8,x13,9bb4 <f_getfree+0x134>
    9bf0:	fe0416e3          	bnez	x8,9bdc <f_getfree+0x15c>
    9bf4:	009a2023          	sw	x9,0(x20)
    9bf8:	00992c23          	sw	x9,24(x18)
    9bfc:	00594783          	lbu	x15,5(x18)
    9c00:	0017e793          	or	x15,x15,1
    9c04:	00f902a3          	sb	x15,5(x18)
    9c08:	07412483          	lw	x9,116(x2)
    9c0c:	07012903          	lw	x18,112(x2)
    9c10:	06412a83          	lw	x21,100(x2)
    9c14:	06012b03          	lw	x22,96(x2)
    9c18:	ecdff06f          	j	9ae4 <f_getfree+0x64>
    9c1c:	001c0d13          	add	x26,x24,1
    9c20:	000c0593          	mv	x11,x24
    9c24:	00090513          	mv	x10,x18
    9c28:	9a4fa0ef          	jal	3dcc <move_window>
    9c2c:	0c051263          	bnez	x10,9cf0 <f_getfree+0x270>
    9c30:	000d0c13          	mv	x24,x26
    9c34:	02c0006f          	j	9c60 <f_getfree+0x1e0>
    9c38:	008b0533          	add	x10,x22,x8
    9c3c:	a95f90ef          	jal	36d0 <ld_dword>
    9c40:	01957533          	and	x10,x10,x25
    9c44:	00153513          	seqz	x10,x10
    9c48:	00a484b3          	add	x9,x9,x10
    9c4c:	00440413          	add	x8,x8,4
    9c50:	1ff47413          	and	x8,x8,511
    9c54:	fffa8a93          	add	x21,x21,-1
    9c58:	020a8e63          	beqz	x21,9c94 <f_getfree+0x214>
    9c5c:	fc0400e3          	beqz	x8,9c1c <f_getfree+0x19c>
    9c60:	00094783          	lbu	x15,0(x18)
    9c64:	fd779ae3          	bne	x15,x23,9c38 <f_getfree+0x1b8>
    9c68:	008b0733          	add	x14,x22,x8
    9c6c:	00174783          	lbu	x15,1(x14)
    9c70:	00879793          	sll	x15,x15,0x8
    9c74:	00074703          	lbu	x14,0(x14)
    9c78:	00e7e7b3          	or	x15,x15,x14
    9c7c:	01079793          	sll	x15,x15,0x10
    9c80:	4107d793          	sra	x15,x15,0x10
    9c84:	0017b793          	seqz	x15,x15
    9c88:	00f484b3          	add	x9,x9,x15
    9c8c:	00240413          	add	x8,x8,2
    9c90:	fc1ff06f          	j	9c50 <f_getfree+0x1d0>
    9c94:	05c12b83          	lw	x23,92(x2)
    9c98:	05812c03          	lw	x24,88(x2)
    9c9c:	05412c83          	lw	x25,84(x2)
    9ca0:	05012d03          	lw	x26,80(x2)
    9ca4:	f51ff06f          	j	9bf4 <f_getfree+0x174>
    9ca8:	00100993          	li	x19,1
    9cac:	07412483          	lw	x9,116(x2)
    9cb0:	07012903          	lw	x18,112(x2)
    9cb4:	06412a83          	lw	x21,100(x2)
    9cb8:	06012b03          	lw	x22,96(x2)
    9cbc:	e29ff06f          	j	9ae4 <f_getfree+0x64>
    9cc0:	00200993          	li	x19,2
    9cc4:	07412483          	lw	x9,116(x2)
    9cc8:	07012903          	lw	x18,112(x2)
    9ccc:	06412a83          	lw	x21,100(x2)
    9cd0:	06012b03          	lw	x22,96(x2)
    9cd4:	e11ff06f          	j	9ae4 <f_getfree+0x64>
    9cd8:	00050993          	mv	x19,x10
    9cdc:	07412483          	lw	x9,116(x2)
    9ce0:	07012903          	lw	x18,112(x2)
    9ce4:	06412a83          	lw	x21,100(x2)
    9ce8:	06012b03          	lw	x22,96(x2)
    9cec:	df9ff06f          	j	9ae4 <f_getfree+0x64>
    9cf0:	00050993          	mv	x19,x10
    9cf4:	07412483          	lw	x9,116(x2)
    9cf8:	07012903          	lw	x18,112(x2)
    9cfc:	06412a83          	lw	x21,100(x2)
    9d00:	06012b03          	lw	x22,96(x2)
    9d04:	05c12b83          	lw	x23,92(x2)
    9d08:	05812c03          	lw	x24,88(x2)
    9d0c:	05412c83          	lw	x25,84(x2)
    9d10:	05012d03          	lw	x26,80(x2)
    9d14:	dd1ff06f          	j	9ae4 <f_getfree+0x64>

00009d18 <f_truncate>:
    9d18:	fe010113          	add	x2,x2,-32
    9d1c:	00112e23          	sw	x1,28(x2)
    9d20:	00812c23          	sw	x8,24(x2)
    9d24:	00912a23          	sw	x9,20(x2)
    9d28:	00050413          	mv	x8,x10
    9d2c:	00c10593          	add	x11,x2,12
    9d30:	f3df90ef          	jal	3c6c <validate>
    9d34:	00050493          	mv	x9,x10
    9d38:	10051e63          	bnez	x10,9e54 <f_truncate+0x13c>
    9d3c:	03144483          	lbu	x9,49(x8)
    9d40:	10049a63          	bnez	x9,9e54 <f_truncate+0x13c>
    9d44:	03044783          	lbu	x15,48(x8)
    9d48:	0027f793          	and	x15,x15,2
    9d4c:	10078263          	beqz	x15,9e50 <f_truncate+0x138>
    9d50:	03842703          	lw	x14,56(x8)
    9d54:	03c42783          	lw	x15,60(x8)
    9d58:	01442683          	lw	x13,20(x8)
    9d5c:	00d7e863          	bltu	x15,x13,9d6c <f_truncate+0x54>
    9d60:	0ef69a63          	bne	x13,x15,9e54 <f_truncate+0x13c>
    9d64:	01042683          	lw	x13,16(x8)
    9d68:	0ed77663          	bgeu	x14,x13,9e54 <f_truncate+0x13c>
    9d6c:	00f76733          	or	x14,x14,x15
    9d70:	06071a63          	bnez	x14,9de4 <f_truncate+0xcc>
    9d74:	00000613          	li	x12,0
    9d78:	00842583          	lw	x11,8(x8)
    9d7c:	00040513          	mv	x10,x8
    9d80:	eb8fb0ef          	jal	5438 <remove_chain>
    9d84:	00042423          	sw	x0,8(x8)
    9d88:	03842703          	lw	x14,56(x8)
    9d8c:	03c42783          	lw	x15,60(x8)
    9d90:	00e42823          	sw	x14,16(x8)
    9d94:	00f42a23          	sw	x15,20(x8)
    9d98:	03044783          	lbu	x15,48(x8)
    9d9c:	0407e793          	or	x15,x15,64
    9da0:	02f40823          	sb	x15,48(x8)
    9da4:	08051e63          	bnez	x10,9e40 <f_truncate+0x128>
    9da8:	01879793          	sll	x15,x15,0x18
    9dac:	4187d793          	sra	x15,x15,0x18
    9db0:	0a07d263          	bgez	x15,9e54 <f_truncate+0x13c>
    9db4:	00100693          	li	x13,1
    9db8:	04442603          	lw	x12,68(x8)
    9dbc:	05040593          	add	x11,x8,80
    9dc0:	00c12783          	lw	x15,12(x2)
    9dc4:	0017c503          	lbu	x10,1(x15)
    9dc8:	899f90ef          	jal	3660 <disk_write>
    9dcc:	00050493          	mv	x9,x10
    9dd0:	06051c63          	bnez	x10,9e48 <f_truncate+0x130>
    9dd4:	03044783          	lbu	x15,48(x8)
    9dd8:	07f7f793          	and	x15,x15,127
    9ddc:	02f40823          	sb	x15,48(x8)
    9de0:	0740006f          	j	9e54 <f_truncate+0x13c>
    9de4:	04042583          	lw	x11,64(x8)
    9de8:	00040513          	mv	x10,x8
    9dec:	d31fa0ef          	jal	4b1c <get_fat>
    9df0:	fff00793          	li	x15,-1
    9df4:	06f50c63          	beq	x10,x15,9e6c <f_truncate+0x154>
    9df8:	00100793          	li	x15,1
    9dfc:	08f50c63          	beq	x10,x15,9e94 <f_truncate+0x17c>
    9e00:	00c12783          	lw	x15,12(x2)
    9e04:	01c7a783          	lw	x15,28(x15)
    9e08:	02f56263          	bltu	x10,x15,9e2c <f_truncate+0x114>
    9e0c:	03842703          	lw	x14,56(x8)
    9e10:	03c42783          	lw	x15,60(x8)
    9e14:	00e42823          	sw	x14,16(x8)
    9e18:	00f42a23          	sw	x15,20(x8)
    9e1c:	03044783          	lbu	x15,48(x8)
    9e20:	0407e793          	or	x15,x15,64
    9e24:	02f40823          	sb	x15,48(x8)
    9e28:	f81ff06f          	j	9da8 <f_truncate+0x90>
    9e2c:	04042603          	lw	x12,64(x8)
    9e30:	00050593          	mv	x11,x10
    9e34:	00040513          	mv	x10,x8
    9e38:	e00fb0ef          	jal	5438 <remove_chain>
    9e3c:	f4dff06f          	j	9d88 <f_truncate+0x70>
    9e40:	00050493          	mv	x9,x10
    9e44:	0480006f          	j	9e8c <f_truncate+0x174>
    9e48:	00100493          	li	x9,1
    9e4c:	0400006f          	j	9e8c <f_truncate+0x174>
    9e50:	00700493          	li	x9,7
    9e54:	00048513          	mv	x10,x9
    9e58:	01c12083          	lw	x1,28(x2)
    9e5c:	01812403          	lw	x8,24(x2)
    9e60:	01412483          	lw	x9,20(x2)
    9e64:	02010113          	add	x2,x2,32
    9e68:	00008067          	ret
    9e6c:	00100493          	li	x9,1
    9e70:	03842703          	lw	x14,56(x8)
    9e74:	03c42783          	lw	x15,60(x8)
    9e78:	00e42823          	sw	x14,16(x8)
    9e7c:	00f42a23          	sw	x15,20(x8)
    9e80:	03044783          	lbu	x15,48(x8)
    9e84:	0407e793          	or	x15,x15,64
    9e88:	02f40823          	sb	x15,48(x8)
    9e8c:	029408a3          	sb	x9,49(x8)
    9e90:	fc5ff06f          	j	9e54 <f_truncate+0x13c>
    9e94:	00200493          	li	x9,2
    9e98:	fd9ff06f          	j	9e70 <f_truncate+0x158>

00009e9c <f_unlink>:
    9e9c:	f0010113          	add	x2,x2,-256
    9ea0:	0e112e23          	sw	x1,252(x2)
    9ea4:	00a12623          	sw	x10,12(x2)
    9ea8:	00200613          	li	x12,2
    9eac:	0ec10593          	add	x11,x2,236
    9eb0:	00c10513          	add	x10,x2,12
    9eb4:	ab0fc0ef          	jal	6164 <mount_volume>
    9eb8:	00050863          	beqz	x10,9ec8 <f_unlink+0x2c>
    9ebc:	0fc12083          	lw	x1,252(x2)
    9ec0:	10010113          	add	x2,x2,256
    9ec4:	00008067          	ret
    9ec8:	0e812c23          	sw	x8,248(x2)
    9ecc:	0ec12403          	lw	x8,236(x2)
    9ed0:	08812c23          	sw	x8,152(x2)
    9ed4:	00c12583          	lw	x11,12(x2)
    9ed8:	09810513          	add	x10,x2,152
    9edc:	c51fd0ef          	jal	7b2c <follow_path>
    9ee0:	12051e63          	bnez	x10,a01c <f_unlink+0x180>
    9ee4:	0e310783          	lb	x15,227(x2)
    9ee8:	00600513          	li	x10,6
    9eec:	1207cc63          	bltz	x15,a024 <f_unlink+0x188>
    9ef0:	0e912a23          	sw	x9,244(x2)
    9ef4:	09e14483          	lbu	x9,158(x2)
    9ef8:	0014f793          	and	x15,x9,1
    9efc:	00700513          	li	x10,7
    9f00:	12079663          	bnez	x15,a02c <f_unlink+0x190>
    9f04:	0f212823          	sw	x18,240(x2)
    9f08:	00812c23          	sw	x8,24(x2)
    9f0c:	00044703          	lbu	x14,0(x8)
    9f10:	00400793          	li	x15,4
    9f14:	04f70263          	beq	x14,x15,9f58 <f_unlink+0xbc>
    9f18:	0d412583          	lw	x11,212(x2)
    9f1c:	00040513          	mv	x10,x8
    9f20:	bc5fd0ef          	jal	7ae4 <ld_clust>
    9f24:	00050913          	mv	x18,x10
    9f28:	0104f493          	and	x9,x9,16
    9f2c:	0c049463          	bnez	x9,9ff4 <f_unlink+0x158>
    9f30:	09810513          	add	x10,x2,152
    9f34:	be9fb0ef          	jal	5b1c <dir_remove>
    9f38:	10051063          	bnez	x10,a038 <f_unlink+0x19c>
    9f3c:	08091063          	bnez	x18,9fbc <f_unlink+0x120>
    9f40:	00040513          	mv	x10,x8
    9f44:	9f8fa0ef          	jal	413c <sync_fs>
    9f48:	0f812403          	lw	x8,248(x2)
    9f4c:	0f412483          	lw	x9,244(x2)
    9f50:	0f012903          	lw	x18,240(x2)
    9f54:	f69ff06f          	j	9ebc <f_unlink+0x20>
    9f58:	01810593          	add	x11,x2,24
    9f5c:	00040513          	mv	x10,x8
    9f60:	929f90ef          	jal	3888 <init_alloc_info>
    9f64:	02012903          	lw	x18,32(x2)
    9f68:	0104f493          	and	x9,x9,16
    9f6c:	fc0482e3          	beqz	x9,9f30 <f_unlink+0x94>
    9f70:	04812423          	sw	x8,72(x2)
    9f74:	05212823          	sw	x18,80(x2)
    9f78:	02812703          	lw	x14,40(x2)
    9f7c:	02c12783          	lw	x15,44(x2)
    9f80:	04e12c23          	sw	x14,88(x2)
    9f84:	04f12e23          	sw	x15,92(x2)
    9f88:	01f14783          	lbu	x15,31(x2)
    9f8c:	04f107a3          	sb	x15,79(x2)
    9f90:	06c0006f          	j	9ffc <f_unlink+0x160>
    9f94:	00000593          	li	x11,0
    9f98:	04810513          	add	x10,x2,72
    9f9c:	c9dfc0ef          	jal	6c38 <dir_read>
    9fa0:	04050063          	beqz	x10,9fe0 <f_unlink+0x144>
    9fa4:	00400793          	li	x15,4
    9fa8:	f8f504e3          	beq	x10,x15,9f30 <f_unlink+0x94>
    9fac:	0f812403          	lw	x8,248(x2)
    9fb0:	0f412483          	lw	x9,244(x2)
    9fb4:	0f012903          	lw	x18,240(x2)
    9fb8:	f05ff06f          	j	9ebc <f_unlink+0x20>
    9fbc:	00000613          	li	x12,0
    9fc0:	00090593          	mv	x11,x18
    9fc4:	01810513          	add	x10,x2,24
    9fc8:	c70fb0ef          	jal	5438 <remove_chain>
    9fcc:	f6050ae3          	beqz	x10,9f40 <f_unlink+0xa4>
    9fd0:	0f812403          	lw	x8,248(x2)
    9fd4:	0f412483          	lw	x9,244(x2)
    9fd8:	0f012903          	lw	x18,240(x2)
    9fdc:	ee1ff06f          	j	9ebc <f_unlink+0x20>
    9fe0:	00700513          	li	x10,7
    9fe4:	0f812403          	lw	x8,248(x2)
    9fe8:	0f412483          	lw	x9,244(x2)
    9fec:	0f012903          	lw	x18,240(x2)
    9ff0:	ecdff06f          	j	9ebc <f_unlink+0x20>
    9ff4:	04812423          	sw	x8,72(x2)
    9ff8:	04a12823          	sw	x10,80(x2)
    9ffc:	00000593          	li	x11,0
    a000:	04810513          	add	x10,x2,72
    a004:	dddfa0ef          	jal	4de0 <dir_sdi>
    a008:	f80506e3          	beqz	x10,9f94 <f_unlink+0xf8>
    a00c:	0f812403          	lw	x8,248(x2)
    a010:	0f412483          	lw	x9,244(x2)
    a014:	0f012903          	lw	x18,240(x2)
    a018:	ea5ff06f          	j	9ebc <f_unlink+0x20>
    a01c:	0f812403          	lw	x8,248(x2)
    a020:	e9dff06f          	j	9ebc <f_unlink+0x20>
    a024:	0f812403          	lw	x8,248(x2)
    a028:	e95ff06f          	j	9ebc <f_unlink+0x20>
    a02c:	0f812403          	lw	x8,248(x2)
    a030:	0f412483          	lw	x9,244(x2)
    a034:	e89ff06f          	j	9ebc <f_unlink+0x20>
    a038:	0f812403          	lw	x8,248(x2)
    a03c:	0f412483          	lw	x9,244(x2)
    a040:	0f012903          	lw	x18,240(x2)
    a044:	e79ff06f          	j	9ebc <f_unlink+0x20>

0000a048 <f_mkdir>:
    a048:	f4010113          	add	x2,x2,-192
    a04c:	0a112e23          	sw	x1,188(x2)
    a050:	0a812c23          	sw	x8,184(x2)
    a054:	00a12623          	sw	x10,12(x2)
    a058:	00200613          	li	x12,2
    a05c:	09c10593          	add	x11,x2,156
    a060:	00c10513          	add	x10,x2,12
    a064:	900fc0ef          	jal	6164 <mount_volume>
    a068:	00050413          	mv	x8,x10
    a06c:	00050c63          	beqz	x10,a084 <f_mkdir+0x3c>
    a070:	00040513          	mv	x10,x8
    a074:	0bc12083          	lw	x1,188(x2)
    a078:	0b812403          	lw	x8,184(x2)
    a07c:	0c010113          	add	x2,x2,192
    a080:	00008067          	ret
    a084:	0a912a23          	sw	x9,180(x2)
    a088:	09c12483          	lw	x9,156(x2)
    a08c:	04912423          	sw	x9,72(x2)
    a090:	00c12583          	lw	x11,12(x2)
    a094:	04810513          	add	x10,x2,72
    a098:	a95fd0ef          	jal	7b2c <follow_path>
    a09c:	00050413          	mv	x8,x10
    a0a0:	24050c63          	beqz	x10,a2f8 <f_mkdir+0x2b0>
    a0a4:	00400793          	li	x15,4
    a0a8:	00f50663          	beq	x10,x15,a0b4 <f_mkdir+0x6c>
    a0ac:	0b412483          	lw	x9,180(x2)
    a0b0:	fc1ff06f          	j	a070 <f_mkdir+0x28>
    a0b4:	0b212823          	sw	x18,176(x2)
    a0b8:	00912c23          	sw	x9,24(x2)
    a0bc:	00000593          	li	x11,0
    a0c0:	01810513          	add	x10,x2,24
    a0c4:	ec5fa0ef          	jal	4f88 <create_chain>
    a0c8:	00050913          	mv	x18,x10
    a0cc:	1e050a63          	beqz	x10,a2c0 <f_mkdir+0x278>
    a0d0:	00100793          	li	x15,1
    a0d4:	20f50663          	beq	x10,x15,a2e0 <f_mkdir+0x298>
    a0d8:	fff00793          	li	x15,-1
    a0dc:	00100413          	li	x8,1
    a0e0:	1ef50263          	beq	x10,x15,a2c4 <f_mkdir+0x27c>
    a0e4:	0b312623          	sw	x19,172(x2)
    a0e8:	00090593          	mv	x11,x18
    a0ec:	00048513          	mv	x10,x9
    a0f0:	e89f90ef          	jal	3f78 <dir_clear>
    a0f4:	00050413          	mv	x8,x10
    a0f8:	1e051863          	bnez	x10,a2e8 <f_mkdir+0x2a0>
    a0fc:	0004c703          	lbu	x14,0(x9)
    a100:	00400793          	li	x15,4
    a104:	06f71e63          	bne	x14,x15,a180 <f_mkdir+0x138>
    a108:	04810513          	add	x10,x2,72
    a10c:	a24fd0ef          	jal	7330 <dir_register>
    a110:	00050413          	mv	x8,x10
    a114:	1c051e63          	bnez	x10,a2f0 <f_mkdir+0x2a8>
    a118:	0004c703          	lbu	x14,0(x9)
    a11c:	00400793          	li	x15,4
    a120:	0ef70263          	beq	x14,x15,a204 <f_mkdir+0x1bc>
    a124:	08412783          	lw	x15,132(x2)
    a128:	00078b23          	sb	x0,22(x15)
    a12c:	00078ba3          	sb	x0,23(x15)
    a130:	03500713          	li	x14,53
    a134:	00e78c23          	sb	x14,24(x15)
    a138:	05800713          	li	x14,88
    a13c:	00e78ca3          	sb	x14,25(x15)
    a140:	00090613          	mv	x12,x18
    a144:	08412583          	lw	x11,132(x2)
    a148:	00048513          	mv	x10,x9
    a14c:	d04fa0ef          	jal	4650 <st_clust>
    a150:	08412783          	lw	x15,132(x2)
    a154:	01000713          	li	x14,16
    a158:	00e785a3          	sb	x14,11(x15)
    a15c:	00100793          	li	x15,1
    a160:	00f48223          	sb	x15,4(x9)
    a164:	00048513          	mv	x10,x9
    a168:	fd5f90ef          	jal	413c <sync_fs>
    a16c:	00050413          	mv	x8,x10
    a170:	0b412483          	lw	x9,180(x2)
    a174:	0b012903          	lw	x18,176(x2)
    a178:	0ac12983          	lw	x19,172(x2)
    a17c:	ef5ff06f          	j	a070 <f_mkdir+0x28>
    a180:	03c48413          	add	x8,x9,60
    a184:	00b00613          	li	x12,11
    a188:	02000593          	li	x11,32
    a18c:	00040513          	mv	x10,x8
    a190:	e6cf80ef          	jal	27fc <memset>
    a194:	02e00993          	li	x19,46
    a198:	03348e23          	sb	x19,60(x9)
    a19c:	01000793          	li	x15,16
    a1a0:	04f483a3          	sb	x15,71(x9)
    a1a4:	04048923          	sb	x0,82(x9)
    a1a8:	040489a3          	sb	x0,83(x9)
    a1ac:	03500793          	li	x15,53
    a1b0:	04f48a23          	sb	x15,84(x9)
    a1b4:	05800793          	li	x15,88
    a1b8:	04f48aa3          	sb	x15,85(x9)
    a1bc:	00090613          	mv	x12,x18
    a1c0:	00040593          	mv	x11,x8
    a1c4:	00048513          	mv	x10,x9
    a1c8:	c88fa0ef          	jal	4650 <st_clust>
    a1cc:	05c48793          	add	x15,x9,92
    a1d0:	02000613          	li	x12,32
    a1d4:	00040593          	mv	x11,x8
    a1d8:	00078413          	mv	x8,x15
    a1dc:	00078513          	mv	x10,x15
    a1e0:	da0f80ef          	jal	2780 <memcpy>
    a1e4:	05348ea3          	sb	x19,93(x9)
    a1e8:	05012603          	lw	x12,80(x2)
    a1ec:	00040593          	mv	x11,x8
    a1f0:	00048513          	mv	x10,x9
    a1f4:	c5cfa0ef          	jal	4650 <st_clust>
    a1f8:	00100793          	li	x15,1
    a1fc:	00f48223          	sb	x15,4(x9)
    a200:	f09ff06f          	j	a108 <f_mkdir+0xc0>
    a204:	0104a783          	lw	x15,16(x9)
    a208:	00078623          	sb	x0,12(x15)
    a20c:	000786a3          	sb	x0,13(x15)
    a210:	03500713          	li	x14,53
    a214:	00e78723          	sb	x14,14(x15)
    a218:	05800713          	li	x14,88
    a21c:	00e787a3          	sb	x14,15(x15)
    a220:	0104a783          	lw	x15,16(x9)
    a224:	03278a23          	sb	x18,52(x15)
    a228:	00895713          	srl	x14,x18,0x8
    a22c:	02e78aa3          	sb	x14,53(x15)
    a230:	01095713          	srl	x14,x18,0x10
    a234:	02e78b23          	sb	x14,54(x15)
    a238:	01895913          	srl	x18,x18,0x18
    a23c:	03278ba3          	sb	x18,55(x15)
    a240:	0104a703          	lw	x14,16(x9)
    a244:	00a4d783          	lhu	x15,10(x9)
    a248:	02070c23          	sb	x0,56(x14)
    a24c:	00179693          	sll	x13,x15,0x1
    a250:	02d70ca3          	sb	x13,57(x14)
    a254:	0077d693          	srl	x13,x15,0x7
    a258:	02d70d23          	sb	x13,58(x14)
    a25c:	00f7d793          	srl	x15,x15,0xf
    a260:	02f70da3          	sb	x15,59(x14)
    a264:	0104a703          	lw	x14,16(x9)
    a268:	00a4d783          	lhu	x15,10(x9)
    a26c:	02070423          	sb	x0,40(x14)
    a270:	00179693          	sll	x13,x15,0x1
    a274:	02d704a3          	sb	x13,41(x14)
    a278:	0077d693          	srl	x13,x15,0x7
    a27c:	02d70523          	sb	x13,42(x14)
    a280:	00f7d793          	srl	x15,x15,0xf
    a284:	02f705a3          	sb	x15,43(x14)
    a288:	0104a783          	lw	x15,16(x9)
    a28c:	00300713          	li	x14,3
    a290:	02e780a3          	sb	x14,33(x15)
    a294:	0104a783          	lw	x15,16(x9)
    a298:	01000713          	li	x14,16
    a29c:	00e78223          	sb	x14,4(x15)
    a2a0:	04810513          	add	x10,x2,72
    a2a4:	ba9fb0ef          	jal	5e4c <store_xdir>
    a2a8:	00050413          	mv	x8,x10
    a2ac:	ea050ce3          	beqz	x10,a164 <f_mkdir+0x11c>
    a2b0:	0b412483          	lw	x9,180(x2)
    a2b4:	0b012903          	lw	x18,176(x2)
    a2b8:	0ac12983          	lw	x19,172(x2)
    a2bc:	db5ff06f          	j	a070 <f_mkdir+0x28>
    a2c0:	00700413          	li	x8,7
    a2c4:	00000613          	li	x12,0
    a2c8:	00090593          	mv	x11,x18
    a2cc:	01810513          	add	x10,x2,24
    a2d0:	968fb0ef          	jal	5438 <remove_chain>
    a2d4:	0b412483          	lw	x9,180(x2)
    a2d8:	0b012903          	lw	x18,176(x2)
    a2dc:	d95ff06f          	j	a070 <f_mkdir+0x28>
    a2e0:	00200413          	li	x8,2
    a2e4:	fe1ff06f          	j	a2c4 <f_mkdir+0x27c>
    a2e8:	0ac12983          	lw	x19,172(x2)
    a2ec:	fd9ff06f          	j	a2c4 <f_mkdir+0x27c>
    a2f0:	0ac12983          	lw	x19,172(x2)
    a2f4:	fd1ff06f          	j	a2c4 <f_mkdir+0x27c>
    a2f8:	00800413          	li	x8,8
    a2fc:	0b412483          	lw	x9,180(x2)
    a300:	d71ff06f          	j	a070 <f_mkdir+0x28>

0000a304 <f_rename>:
    a304:	ee010113          	add	x2,x2,-288
    a308:	10112e23          	sw	x1,284(x2)
    a30c:	00a12623          	sw	x10,12(x2)
    a310:	00b12423          	sw	x11,8(x2)
    a314:	00810513          	add	x10,x2,8
    a318:	dd4f90ef          	jal	38ec <get_ldnumber>
    a31c:	00200613          	li	x12,2
    a320:	0fc10593          	add	x11,x2,252
    a324:	00c10513          	add	x10,x2,12
    a328:	e3dfb0ef          	jal	6164 <mount_volume>
    a32c:	00050863          	beqz	x10,a33c <f_rename+0x38>
    a330:	11c12083          	lw	x1,284(x2)
    a334:	12010113          	add	x2,x2,288
    a338:	00008067          	ret
    a33c:	10812c23          	sw	x8,280(x2)
    a340:	0fc12403          	lw	x8,252(x2)
    a344:	0a812423          	sw	x8,168(x2)
    a348:	00c12583          	lw	x11,12(x2)
    a34c:	0a810513          	add	x10,x2,168
    a350:	fdcfd0ef          	jal	7b2c <follow_path>
    a354:	2a051063          	bnez	x10,a5f4 <f_rename+0x2f0>
    a358:	0f314783          	lbu	x15,243(x2)
    a35c:	0a07f793          	and	x15,x15,160
    a360:	00600513          	li	x10,6
    a364:	28079c63          	bnez	x15,a5fc <f_rename+0x2f8>
    a368:	00044703          	lbu	x14,0(x8)
    a36c:	00400793          	li	x15,4
    a370:	04f70663          	beq	x14,x15,a3bc <f_rename+0xb8>
    a374:	02000613          	li	x12,32
    a378:	0e412583          	lw	x11,228(x2)
    a37c:	01810513          	add	x10,x2,24
    a380:	c00f80ef          	jal	2780 <memcpy>
    a384:	05000613          	li	x12,80
    a388:	0a810593          	add	x11,x2,168
    a38c:	05810513          	add	x10,x2,88
    a390:	bf0f80ef          	jal	2780 <memcpy>
    a394:	00812583          	lw	x11,8(x2)
    a398:	05810513          	add	x10,x2,88
    a39c:	f90fd0ef          	jal	7b2c <follow_path>
    a3a0:	16051663          	bnez	x10,a50c <f_rename+0x208>
    a3a4:	06012703          	lw	x14,96(x2)
    a3a8:	0b012783          	lw	x15,176(x2)
    a3ac:	00800513          	li	x10,8
    a3b0:	14f70463          	beq	x14,x15,a4f8 <f_rename+0x1f4>
    a3b4:	11812403          	lw	x8,280(x2)
    a3b8:	f79ff06f          	j	a330 <f_rename+0x2c>
    a3bc:	04000613          	li	x12,64
    a3c0:	01042583          	lw	x11,16(x8)
    a3c4:	01810513          	add	x10,x2,24
    a3c8:	bb8f80ef          	jal	2780 <memcpy>
    a3cc:	05000613          	li	x12,80
    a3d0:	0a810593          	add	x11,x2,168
    a3d4:	05810513          	add	x10,x2,88
    a3d8:	ba8f80ef          	jal	2780 <memcpy>
    a3dc:	00812583          	lw	x11,8(x2)
    a3e0:	05810513          	add	x10,x2,88
    a3e4:	f48fd0ef          	jal	7b2c <follow_path>
    a3e8:	02051863          	bnez	x10,a418 <f_rename+0x114>
    a3ec:	06012703          	lw	x14,96(x2)
    a3f0:	0b012783          	lw	x15,176(x2)
    a3f4:	00800513          	li	x10,8
    a3f8:	00f70663          	beq	x14,x15,a404 <f_rename+0x100>
    a3fc:	11812403          	lw	x8,280(x2)
    a400:	f31ff06f          	j	a330 <f_rename+0x2c>
    a404:	08812703          	lw	x14,136(x2)
    a408:	0d812783          	lw	x15,216(x2)
    a40c:	00f70e63          	beq	x14,x15,a428 <f_rename+0x124>
    a410:	11812403          	lw	x8,280(x2)
    a414:	f1dff06f          	j	a330 <f_rename+0x2c>
    a418:	00400793          	li	x15,4
    a41c:	00f50663          	beq	x10,x15,a428 <f_rename+0x124>
    a420:	11812403          	lw	x8,280(x2)
    a424:	f0dff06f          	j	a330 <f_rename+0x2c>
    a428:	05810513          	add	x10,x2,88
    a42c:	f05fc0ef          	jal	7330 <dir_register>
    a430:	00050663          	beqz	x10,a43c <f_rename+0x138>
    a434:	11812403          	lw	x8,280(x2)
    a438:	ef9ff06f          	j	a330 <f_rename+0x2c>
    a43c:	10912a23          	sw	x9,276(x2)
    a440:	11212823          	sw	x18,272(x2)
    a444:	11312623          	sw	x19,268(x2)
    a448:	01042503          	lw	x10,16(x8)
    a44c:	00154983          	lbu	x19,1(x10)
    a450:	02354903          	lbu	x18,35(x10)
    a454:	02554483          	lbu	x9,37(x10)
    a458:	00849493          	sll	x9,x9,0x8
    a45c:	02454783          	lbu	x15,36(x10)
    a460:	00f4e4b3          	or	x9,x9,x15
    a464:	01049493          	sll	x9,x9,0x10
    a468:	4104d493          	sra	x9,x9,0x10
    a46c:	04000613          	li	x12,64
    a470:	01810593          	add	x11,x2,24
    a474:	b0cf80ef          	jal	2780 <memcpy>
    a478:	01042783          	lw	x15,16(x8)
    a47c:	013780a3          	sb	x19,1(x15)
    a480:	01042783          	lw	x15,16(x8)
    a484:	032781a3          	sb	x18,35(x15)
    a488:	01042703          	lw	x14,16(x8)
    a48c:	02970223          	sb	x9,36(x14)
    a490:	01049793          	sll	x15,x9,0x10
    a494:	0107d793          	srl	x15,x15,0x10
    a498:	0087d793          	srl	x15,x15,0x8
    a49c:	02f702a3          	sb	x15,37(x14)
    a4a0:	01042703          	lw	x14,16(x8)
    a4a4:	00474783          	lbu	x15,4(x14)
    a4a8:	0107f693          	and	x13,x15,16
    a4ac:	00069663          	bnez	x13,a4b8 <f_rename+0x1b4>
    a4b0:	0207e793          	or	x15,x15,32
    a4b4:	00f70223          	sb	x15,4(x14)
    a4b8:	05810513          	add	x10,x2,88
    a4bc:	991fb0ef          	jal	5e4c <store_xdir>
    a4c0:	02051263          	bnez	x10,a4e4 <f_rename+0x1e0>
    a4c4:	11012903          	lw	x18,272(x2)
    a4c8:	10c12983          	lw	x19,268(x2)
    a4cc:	0a810513          	add	x10,x2,168
    a4d0:	e4cfb0ef          	jal	5b1c <dir_remove>
    a4d4:	10050663          	beqz	x10,a5e0 <f_rename+0x2dc>
    a4d8:	11812403          	lw	x8,280(x2)
    a4dc:	11412483          	lw	x9,276(x2)
    a4e0:	e51ff06f          	j	a330 <f_rename+0x2c>
    a4e4:	11812403          	lw	x8,280(x2)
    a4e8:	11412483          	lw	x9,276(x2)
    a4ec:	11012903          	lw	x18,272(x2)
    a4f0:	10c12983          	lw	x19,268(x2)
    a4f4:	e3dff06f          	j	a330 <f_rename+0x2c>
    a4f8:	08812703          	lw	x14,136(x2)
    a4fc:	0d812783          	lw	x15,216(x2)
    a500:	00f70e63          	beq	x14,x15,a51c <f_rename+0x218>
    a504:	11812403          	lw	x8,280(x2)
    a508:	e29ff06f          	j	a330 <f_rename+0x2c>
    a50c:	00400793          	li	x15,4
    a510:	00f50663          	beq	x10,x15,a51c <f_rename+0x218>
    a514:	11812403          	lw	x8,280(x2)
    a518:	e19ff06f          	j	a330 <f_rename+0x2c>
    a51c:	05810513          	add	x10,x2,88
    a520:	e11fc0ef          	jal	7330 <dir_register>
    a524:	00050663          	beqz	x10,a530 <f_rename+0x22c>
    a528:	11812403          	lw	x8,280(x2)
    a52c:	e05ff06f          	j	a330 <f_rename+0x2c>
    a530:	10912a23          	sw	x9,276(x2)
    a534:	09412483          	lw	x9,148(x2)
    a538:	01300613          	li	x12,19
    a53c:	02510593          	add	x11,x2,37
    a540:	00d48513          	add	x10,x9,13
    a544:	a3cf80ef          	jal	2780 <memcpy>
    a548:	02314783          	lbu	x15,35(x2)
    a54c:	0107f713          	and	x14,x15,16
    a550:	00071463          	bnez	x14,a558 <f_rename+0x254>
    a554:	0207e793          	or	x15,x15,32
    a558:	00f485a3          	sb	x15,11(x9)
    a55c:	00100793          	li	x15,1
    a560:	00f40223          	sb	x15,4(x8)
    a564:	00b4c783          	lbu	x15,11(x9)
    a568:	0107f793          	and	x15,x15,16
    a56c:	f60780e3          	beqz	x15,a4cc <f_rename+0x1c8>
    a570:	0b012703          	lw	x14,176(x2)
    a574:	06012783          	lw	x15,96(x2)
    a578:	f4f70ae3          	beq	x14,x15,a4cc <f_rename+0x1c8>
    a57c:	00048593          	mv	x11,x9
    a580:	00040513          	mv	x10,x8
    a584:	d60fd0ef          	jal	7ae4 <ld_clust>
    a588:	00050593          	mv	x11,x10
    a58c:	00040513          	mv	x10,x8
    a590:	a2cf90ef          	jal	37bc <clst2sect>
    a594:	00050593          	mv	x11,x10
    a598:	00200513          	li	x10,2
    a59c:	00059863          	bnez	x11,a5ac <f_rename+0x2a8>
    a5a0:	11812403          	lw	x8,280(x2)
    a5a4:	11412483          	lw	x9,276(x2)
    a5a8:	d89ff06f          	j	a330 <f_rename+0x2c>
    a5ac:	00040513          	mv	x10,x8
    a5b0:	81df90ef          	jal	3dcc <move_window>
    a5b4:	04051863          	bnez	x10,a604 <f_rename+0x300>
    a5b8:	05d44703          	lbu	x14,93(x8)
    a5bc:	02e00793          	li	x15,46
    a5c0:	f0f716e3          	bne	x14,x15,a4cc <f_rename+0x1c8>
    a5c4:	06012603          	lw	x12,96(x2)
    a5c8:	05c40593          	add	x11,x8,92
    a5cc:	00040513          	mv	x10,x8
    a5d0:	880fa0ef          	jal	4650 <st_clust>
    a5d4:	00100793          	li	x15,1
    a5d8:	00f40223          	sb	x15,4(x8)
    a5dc:	ef1ff06f          	j	a4cc <f_rename+0x1c8>
    a5e0:	00040513          	mv	x10,x8
    a5e4:	b59f90ef          	jal	413c <sync_fs>
    a5e8:	11812403          	lw	x8,280(x2)
    a5ec:	11412483          	lw	x9,276(x2)
    a5f0:	d41ff06f          	j	a330 <f_rename+0x2c>
    a5f4:	11812403          	lw	x8,280(x2)
    a5f8:	d39ff06f          	j	a330 <f_rename+0x2c>
    a5fc:	11812403          	lw	x8,280(x2)
    a600:	d31ff06f          	j	a330 <f_rename+0x2c>
    a604:	11812403          	lw	x8,280(x2)
    a608:	11412483          	lw	x9,276(x2)
    a60c:	d25ff06f          	j	a330 <f_rename+0x2c>

0000a610 <f_chmod>:
    a610:	f8010113          	add	x2,x2,-128
    a614:	06112e23          	sw	x1,124(x2)
    a618:	06812c23          	sw	x8,120(x2)
    a61c:	06912a23          	sw	x9,116(x2)
    a620:	00a12623          	sw	x10,12(x2)
    a624:	00058493          	mv	x9,x11
    a628:	00060413          	mv	x8,x12
    a62c:	00200613          	li	x12,2
    a630:	06c10593          	add	x11,x2,108
    a634:	00c10513          	add	x10,x2,12
    a638:	b2dfb0ef          	jal	6164 <mount_volume>
    a63c:	00050c63          	beqz	x10,a654 <f_chmod+0x44>
    a640:	07c12083          	lw	x1,124(x2)
    a644:	07812403          	lw	x8,120(x2)
    a648:	07412483          	lw	x9,116(x2)
    a64c:	08010113          	add	x2,x2,128
    a650:	00008067          	ret
    a654:	07212823          	sw	x18,112(x2)
    a658:	06c12903          	lw	x18,108(x2)
    a65c:	01212c23          	sw	x18,24(x2)
    a660:	00c12583          	lw	x11,12(x2)
    a664:	01810513          	add	x10,x2,24
    a668:	cc4fd0ef          	jal	7b2c <follow_path>
    a66c:	08051063          	bnez	x10,a6ec <f_chmod+0xdc>
    a670:	06314783          	lbu	x15,99(x2)
    a674:	0a07f793          	and	x15,x15,160
    a678:	00600513          	li	x10,6
    a67c:	06079c63          	bnez	x15,a6f4 <f_chmod+0xe4>
    a680:	02747613          	and	x12,x8,39
    a684:	00094703          	lbu	x14,0(x18)
    a688:	00400793          	li	x15,4
    a68c:	02f70a63          	beq	x14,x15,a6c0 <f_chmod+0xb0>
    a690:	05412703          	lw	x14,84(x2)
    a694:	00b74783          	lbu	x15,11(x14)
    a698:	0097c5b3          	xor	x11,x15,x9
    a69c:	00b67633          	and	x12,x12,x11
    a6a0:	00c7c7b3          	xor	x15,x15,x12
    a6a4:	00f705a3          	sb	x15,11(x14)
    a6a8:	00100793          	li	x15,1
    a6ac:	00f90223          	sb	x15,4(x18)
    a6b0:	00090513          	mv	x10,x18
    a6b4:	a89f90ef          	jal	413c <sync_fs>
    a6b8:	07012903          	lw	x18,112(x2)
    a6bc:	f85ff06f          	j	a640 <f_chmod+0x30>
    a6c0:	01092703          	lw	x14,16(x18)
    a6c4:	00474783          	lbu	x15,4(x14)
    a6c8:	0097c5b3          	xor	x11,x15,x9
    a6cc:	00b675b3          	and	x11,x12,x11
    a6d0:	00b7c7b3          	xor	x15,x15,x11
    a6d4:	00f70223          	sb	x15,4(x14)
    a6d8:	01810513          	add	x10,x2,24
    a6dc:	f70fb0ef          	jal	5e4c <store_xdir>
    a6e0:	fc0508e3          	beqz	x10,a6b0 <f_chmod+0xa0>
    a6e4:	07012903          	lw	x18,112(x2)
    a6e8:	f59ff06f          	j	a640 <f_chmod+0x30>
    a6ec:	07012903          	lw	x18,112(x2)
    a6f0:	f51ff06f          	j	a640 <f_chmod+0x30>
    a6f4:	07012903          	lw	x18,112(x2)
    a6f8:	f49ff06f          	j	a640 <f_chmod+0x30>

0000a6fc <f_utime>:
    a6fc:	f8010113          	add	x2,x2,-128
    a700:	06112e23          	sw	x1,124(x2)
    a704:	06812c23          	sw	x8,120(x2)
    a708:	00a12623          	sw	x10,12(x2)
    a70c:	00058413          	mv	x8,x11
    a710:	00200613          	li	x12,2
    a714:	06c10593          	add	x11,x2,108
    a718:	00c10513          	add	x10,x2,12
    a71c:	a49fb0ef          	jal	6164 <mount_volume>
    a720:	00050a63          	beqz	x10,a734 <f_utime+0x38>
    a724:	07c12083          	lw	x1,124(x2)
    a728:	07812403          	lw	x8,120(x2)
    a72c:	08010113          	add	x2,x2,128
    a730:	00008067          	ret
    a734:	06912a23          	sw	x9,116(x2)
    a738:	06c12483          	lw	x9,108(x2)
    a73c:	00912c23          	sw	x9,24(x2)
    a740:	00c12583          	lw	x11,12(x2)
    a744:	01810513          	add	x10,x2,24
    a748:	be4fd0ef          	jal	7b2c <follow_path>
    a74c:	0a051663          	bnez	x10,a7f8 <f_utime+0xfc>
    a750:	06314783          	lbu	x15,99(x2)
    a754:	0a07f793          	and	x15,x15,160
    a758:	00600513          	li	x10,6
    a75c:	0a079263          	bnez	x15,a800 <f_utime+0x104>
    a760:	0004c703          	lbu	x14,0(x9)
    a764:	00400793          	li	x15,4
    a768:	04f70663          	beq	x14,x15,a7b4 <f_utime+0xb8>
    a76c:	05412703          	lw	x14,84(x2)
    a770:	00845783          	lhu	x15,8(x8)
    a774:	01079793          	sll	x15,x15,0x10
    a778:	00a45683          	lhu	x13,10(x8)
    a77c:	00d7e7b3          	or	x15,x15,x13
    a780:	00f70b23          	sb	x15,22(x14)
    a784:	0087d693          	srl	x13,x15,0x8
    a788:	00d70ba3          	sb	x13,23(x14)
    a78c:	0107d693          	srl	x13,x15,0x10
    a790:	00d70c23          	sb	x13,24(x14)
    a794:	0187d793          	srl	x15,x15,0x18
    a798:	00f70ca3          	sb	x15,25(x14)
    a79c:	00100793          	li	x15,1
    a7a0:	00f48223          	sb	x15,4(x9)
    a7a4:	00048513          	mv	x10,x9
    a7a8:	995f90ef          	jal	413c <sync_fs>
    a7ac:	07412483          	lw	x9,116(x2)
    a7b0:	f75ff06f          	j	a724 <f_utime+0x28>
    a7b4:	0104a703          	lw	x14,16(x9)
    a7b8:	00845783          	lhu	x15,8(x8)
    a7bc:	01079793          	sll	x15,x15,0x10
    a7c0:	00a45683          	lhu	x13,10(x8)
    a7c4:	00d7e7b3          	or	x15,x15,x13
    a7c8:	00f70623          	sb	x15,12(x14)
    a7cc:	0087d693          	srl	x13,x15,0x8
    a7d0:	00d706a3          	sb	x13,13(x14)
    a7d4:	0107d693          	srl	x13,x15,0x10
    a7d8:	00d70723          	sb	x13,14(x14)
    a7dc:	0187d793          	srl	x15,x15,0x18
    a7e0:	00f707a3          	sb	x15,15(x14)
    a7e4:	01810513          	add	x10,x2,24
    a7e8:	e64fb0ef          	jal	5e4c <store_xdir>
    a7ec:	fa050ce3          	beqz	x10,a7a4 <f_utime+0xa8>
    a7f0:	07412483          	lw	x9,116(x2)
    a7f4:	f31ff06f          	j	a724 <f_utime+0x28>
    a7f8:	07412483          	lw	x9,116(x2)
    a7fc:	f29ff06f          	j	a724 <f_utime+0x28>
    a800:	07412483          	lw	x9,116(x2)
    a804:	f21ff06f          	j	a724 <f_utime+0x28>

0000a808 <f_gets>:
    a808:	fd010113          	add	x2,x2,-48
    a80c:	02112623          	sw	x1,44(x2)
    a810:	02812423          	sw	x8,40(x2)
    a814:	02912223          	sw	x9,36(x2)
    a818:	03212023          	sw	x18,32(x2)
    a81c:	01312e23          	sw	x19,28(x2)
    a820:	01412c23          	sw	x20,24(x2)
    a824:	01512a23          	sw	x21,20(x2)
    a828:	01612823          	sw	x22,16(x2)
    a82c:	00050a13          	mv	x20,x10
    a830:	00060993          	mv	x19,x12
    a834:	fff58913          	add	x18,x11,-1
    a838:	00050493          	mv	x9,x10
    a83c:	00000413          	li	x8,0
    a840:	00d00a93          	li	x21,13
    a844:	00a00b13          	li	x22,10
    a848:	03245e63          	bge	x8,x18,a884 <f_gets+0x7c>
    a84c:	00810693          	add	x13,x2,8
    a850:	00100613          	li	x12,1
    a854:	00c10593          	add	x11,x2,12
    a858:	00098513          	mv	x10,x19
    a85c:	f29fd0ef          	jal	8784 <f_read>
    a860:	00812703          	lw	x14,8(x2)
    a864:	00100793          	li	x15,1
    a868:	00f71e63          	bne	x14,x15,a884 <f_gets+0x7c>
    a86c:	00c14783          	lbu	x15,12(x2)
    a870:	fd578ce3          	beq	x15,x21,a848 <f_gets+0x40>
    a874:	00148493          	add	x9,x9,1
    a878:	fef48fa3          	sb	x15,-1(x9)
    a87c:	00140413          	add	x8,x8,1
    a880:	fd6794e3          	bne	x15,x22,a848 <f_gets+0x40>
    a884:	00048023          	sb	x0,0(x9)
    a888:	00803433          	snez	x8,x8
    a88c:	40800433          	neg	x8,x8
    a890:	008a7533          	and	x10,x20,x8
    a894:	02c12083          	lw	x1,44(x2)
    a898:	02812403          	lw	x8,40(x2)
    a89c:	02412483          	lw	x9,36(x2)
    a8a0:	02012903          	lw	x18,32(x2)
    a8a4:	01c12983          	lw	x19,28(x2)
    a8a8:	01812a03          	lw	x20,24(x2)
    a8ac:	01412a83          	lw	x21,20(x2)
    a8b0:	01012b03          	lw	x22,16(x2)
    a8b4:	03010113          	add	x2,x2,48
    a8b8:	00008067          	ret

0000a8bc <f_putc>:
    a8bc:	fa010113          	add	x2,x2,-96
    a8c0:	04112e23          	sw	x1,92(x2)
    a8c4:	04812c23          	sw	x8,88(x2)
    a8c8:	04912a23          	sw	x9,84(x2)
    a8cc:	00050413          	mv	x8,x10
    a8d0:	00058493          	mv	x9,x11
    a8d4:	04c00613          	li	x12,76
    a8d8:	00000593          	li	x11,0
    a8dc:	00410513          	add	x10,x2,4
    a8e0:	f1df70ef          	jal	27fc <memset>
    a8e4:	00912223          	sw	x9,4(x2)
    a8e8:	00040593          	mv	x11,x8
    a8ec:	00410513          	add	x10,x2,4
    a8f0:	e34fe0ef          	jal	8f24 <putc_bfd>
    a8f4:	00410513          	add	x10,x2,4
    a8f8:	ed0fe0ef          	jal	8fc8 <putc_flush>
    a8fc:	05c12083          	lw	x1,92(x2)
    a900:	05812403          	lw	x8,88(x2)
    a904:	05412483          	lw	x9,84(x2)
    a908:	06010113          	add	x2,x2,96
    a90c:	00008067          	ret

0000a910 <f_puts>:
    a910:	fa010113          	add	x2,x2,-96
    a914:	04112e23          	sw	x1,92(x2)
    a918:	04812c23          	sw	x8,88(x2)
    a91c:	04912a23          	sw	x9,84(x2)
    a920:	00050413          	mv	x8,x10
    a924:	00058493          	mv	x9,x11
    a928:	04c00613          	li	x12,76
    a92c:	00000593          	li	x11,0
    a930:	00410513          	add	x10,x2,4
    a934:	ec9f70ef          	jal	27fc <memset>
    a938:	00912223          	sw	x9,4(x2)
    a93c:	00044583          	lbu	x11,0(x8)
    a940:	00058c63          	beqz	x11,a958 <f_puts+0x48>
    a944:	00140413          	add	x8,x8,1
    a948:	00410513          	add	x10,x2,4
    a94c:	dd8fe0ef          	jal	8f24 <putc_bfd>
    a950:	00044583          	lbu	x11,0(x8)
    a954:	fe0598e3          	bnez	x11,a944 <f_puts+0x34>
    a958:	00410513          	add	x10,x2,4
    a95c:	e6cfe0ef          	jal	8fc8 <putc_flush>
    a960:	05c12083          	lw	x1,92(x2)
    a964:	05812403          	lw	x8,88(x2)
    a968:	05412483          	lw	x9,84(x2)
    a96c:	06010113          	add	x2,x2,96
    a970:	00008067          	ret

0000a974 <f_printf>:
    a974:	f0010113          	add	x2,x2,-256
    a978:	0c112e23          	sw	x1,220(x2)
    a97c:	0c812c23          	sw	x8,216(x2)
    a980:	0d412423          	sw	x20,200(x2)
    a984:	00050413          	mv	x8,x10
    a988:	00058a13          	mv	x20,x11
    a98c:	0ec12423          	sw	x12,232(x2)
    a990:	0ed12623          	sw	x13,236(x2)
    a994:	0ee12823          	sw	x14,240(x2)
    a998:	0ef12a23          	sw	x15,244(x2)
    a99c:	0f012c23          	sw	x16,248(x2)
    a9a0:	0f112e23          	sw	x17,252(x2)
    a9a4:	040107a3          	sb	x0,79(x2)
    a9a8:	04c00613          	li	x12,76
    a9ac:	00000593          	li	x11,0
    a9b0:	05010513          	add	x10,x2,80
    a9b4:	e49f70ef          	jal	27fc <memset>
    a9b8:	04812823          	sw	x8,80(x2)
    a9bc:	0e810793          	add	x15,x2,232
    a9c0:	08f12e23          	sw	x15,156(x2)
    a9c4:	000a4583          	lbu	x11,0(x20)
    a9c8:	18058ce3          	beqz	x11,b360 <f_printf+0x9ec>
    a9cc:	0c912a23          	sw	x9,212(x2)
    a9d0:	0d212823          	sw	x18,208(x2)
    a9d4:	0d312623          	sw	x19,204(x2)
    a9d8:	0d512223          	sw	x21,196(x2)
    a9dc:	0d612023          	sw	x22,192(x2)
    a9e0:	0b712e23          	sw	x23,188(x2)
    a9e4:	0b812c23          	sw	x24,184(x2)
    a9e8:	0b912a23          	sw	x25,180(x2)
    a9ec:	0ba12823          	sw	x26,176(x2)
    a9f0:	0bb12623          	sw	x27,172(x2)
    a9f4:	001a0413          	add	x8,x20,1
    a9f8:	0000f7b7          	lui	x15,0xf
    a9fc:	1b878793          	add	x15,x15,440 # f1b8 <__clzsi2+0x82c>
    aa00:	00f12e23          	sw	x15,28(x2)
    aa04:	02000c93          	li	x25,32
    aa08:	02c10793          	add	x15,x2,44
    aa0c:	00f12823          	sw	x15,16(x2)
    aa10:	01c0006f          	j	aa2c <f_printf+0xb8>
    aa14:	05010513          	add	x10,x2,80
    aa18:	d0cfe0ef          	jal	8f24 <putc_bfd>
    aa1c:	00040a13          	mv	x20,x8
    aa20:	001a0413          	add	x8,x20,1
    aa24:	000a4583          	lbu	x11,0(x20)
    aa28:	100588e3          	beqz	x11,b338 <f_printf+0x9c4>
    aa2c:	02500793          	li	x15,37
    aa30:	fef592e3          	bne	x11,x15,aa14 <f_printf+0xa0>
    aa34:	001a4403          	lbu	x8,1(x20)
    aa38:	03000793          	li	x15,48
    aa3c:	06f40a63          	beq	x8,x15,aab0 <f_printf+0x13c>
    aa40:	02d00793          	li	x15,45
    aa44:	08f40063          	beq	x8,x15,aac4 <f_printf+0x150>
    aa48:	002a0a13          	add	x20,x20,2
    aa4c:	01912423          	sw	x25,8(x2)
    aa50:	00012a23          	sw	x0,20(x2)
    aa54:	02a00793          	li	x15,42
    aa58:	08f41263          	bne	x8,x15,aadc <f_printf+0x168>
    aa5c:	09c12783          	lw	x15,156(x2)
    aa60:	00478713          	add	x14,x15,4
    aa64:	08e12e23          	sw	x14,156(x2)
    aa68:	0007aa83          	lw	x21,0(x15)
    aa6c:	000a4403          	lbu	x8,0(x20)
    aa70:	001a0a13          	add	x20,x20,1
    aa74:	02e00793          	li	x15,46
    aa78:	fff00d13          	li	x26,-1
    aa7c:	0af40263          	beq	x8,x15,ab20 <f_printf+0x1ac>
    aa80:	06c00793          	li	x15,108
    aa84:	10f40663          	beq	x8,x15,ab90 <f_printf+0x21c>
    aa88:	0e040ae3          	beqz	x8,b37c <f_printf+0xa08>
    aa8c:	fbb40793          	add	x15,x8,-69
    aa90:	0ff7f693          	zext.b	x13,x15
    aa94:	03300713          	li	x14,51
    aa98:	5cd76263          	bltu	x14,x13,b05c <f_printf+0x6e8>
    aa9c:	00269793          	sll	x15,x13,0x2
    aaa0:	01c12703          	lw	x14,28(x2)
    aaa4:	00e787b3          	add	x15,x15,x14
    aaa8:	0007a783          	lw	x15,0(x15)
    aaac:	00078067          	jr	x15
    aab0:	00812423          	sw	x8,8(x2)
    aab4:	002a4403          	lbu	x8,2(x20)
    aab8:	003a0a13          	add	x20,x20,3
    aabc:	00012a23          	sw	x0,20(x2)
    aac0:	f95ff06f          	j	aa54 <f_printf+0xe0>
    aac4:	002a4403          	lbu	x8,2(x20)
    aac8:	003a0a13          	add	x20,x20,3
    aacc:	01912423          	sw	x25,8(x2)
    aad0:	00200793          	li	x15,2
    aad4:	00f12a23          	sw	x15,20(x2)
    aad8:	f7dff06f          	j	aa54 <f_printf+0xe0>
    aadc:	fd040793          	add	x15,x8,-48
    aae0:	0ff7f793          	zext.b	x15,x15
    aae4:	00900693          	li	x13,9
    aae8:	00000a93          	li	x21,0
    aaec:	00900713          	li	x14,9
    aaf0:	f8f6e2e3          	bltu	x13,x15,aa74 <f_printf+0x100>
    aaf4:	002a9793          	sll	x15,x21,0x2
    aaf8:	015787b3          	add	x15,x15,x21
    aafc:	00179793          	sll	x15,x15,0x1
    ab00:	008787b3          	add	x15,x15,x8
    ab04:	fd078a93          	add	x21,x15,-48
    ab08:	001a0a13          	add	x20,x20,1
    ab0c:	fffa4403          	lbu	x8,-1(x20)
    ab10:	fd040793          	add	x15,x8,-48
    ab14:	0ff7f793          	zext.b	x15,x15
    ab18:	fcf77ee3          	bgeu	x14,x15,aaf4 <f_printf+0x180>
    ab1c:	f59ff06f          	j	aa74 <f_printf+0x100>
    ab20:	000a4403          	lbu	x8,0(x20)
    ab24:	02a00793          	li	x15,42
    ab28:	02f41063          	bne	x8,x15,ab48 <f_printf+0x1d4>
    ab2c:	09c12783          	lw	x15,156(x2)
    ab30:	00478713          	add	x14,x15,4
    ab34:	08e12e23          	sw	x14,156(x2)
    ab38:	0007ad03          	lw	x26,0(x15)
    ab3c:	001a4403          	lbu	x8,1(x20)
    ab40:	002a0a13          	add	x20,x20,2
    ab44:	f3dff06f          	j	aa80 <f_printf+0x10c>
    ab48:	001a0a13          	add	x20,x20,1
    ab4c:	fd040793          	add	x15,x8,-48
    ab50:	0ff7f793          	zext.b	x15,x15
    ab54:	00900693          	li	x13,9
    ab58:	00000d13          	li	x26,0
    ab5c:	00900713          	li	x14,9
    ab60:	f2f6e0e3          	bltu	x13,x15,aa80 <f_printf+0x10c>
    ab64:	002d1793          	sll	x15,x26,0x2
    ab68:	01a787b3          	add	x15,x15,x26
    ab6c:	00179793          	sll	x15,x15,0x1
    ab70:	008787b3          	add	x15,x15,x8
    ab74:	fd078d13          	add	x26,x15,-48
    ab78:	001a0a13          	add	x20,x20,1
    ab7c:	fffa4403          	lbu	x8,-1(x20)
    ab80:	fd040793          	add	x15,x8,-48
    ab84:	0ff7f793          	zext.b	x15,x15
    ab88:	fcf77ee3          	bgeu	x14,x15,ab64 <f_printf+0x1f0>
    ab8c:	ef5ff06f          	j	aa80 <f_printf+0x10c>
    ab90:	000a4403          	lbu	x8,0(x20)
    ab94:	00f40c63          	beq	x8,x15,abac <f_printf+0x238>
    ab98:	01412783          	lw	x15,20(x2)
    ab9c:	0047e793          	or	x15,x15,4
    aba0:	00f12a23          	sw	x15,20(x2)
    aba4:	001a0a13          	add	x20,x20,1
    aba8:	ee1ff06f          	j	aa88 <f_printf+0x114>
    abac:	01412783          	lw	x15,20(x2)
    abb0:	00c7e793          	or	x15,x15,12
    abb4:	00f12a23          	sw	x15,20(x2)
    abb8:	001a4403          	lbu	x8,1(x20)
    abbc:	002a0a13          	add	x20,x20,2
    abc0:	ec9ff06f          	j	aa88 <f_printf+0x114>
    abc4:	09c12783          	lw	x15,156(x2)
    abc8:	00478713          	add	x14,x15,4
    abcc:	08e12e23          	sw	x14,156(x2)
    abd0:	0007c583          	lbu	x11,0(x15)
    abd4:	05010513          	add	x10,x2,80
    abd8:	b4cfe0ef          	jal	8f24 <putc_bfd>
    abdc:	e45ff06f          	j	aa20 <f_printf+0xac>
    abe0:	09c12783          	lw	x15,156(x2)
    abe4:	00478713          	add	x14,x15,4
    abe8:	08e12e23          	sw	x14,156(x2)
    abec:	0007a983          	lw	x19,0(x15)
    abf0:	04098e63          	beqz	x19,ac4c <f_printf+0x2d8>
    abf4:	0009c583          	lbu	x11,0(x19)
    abf8:	04058e63          	beqz	x11,ac54 <f_printf+0x2e0>
    abfc:	00000413          	li	x8,0
    ac00:	00140413          	add	x8,x8,1
    ac04:	008987b3          	add	x15,x19,x8
    ac08:	0007c783          	lbu	x15,0(x15)
    ac0c:	fe079ae3          	bnez	x15,ac00 <f_printf+0x28c>
    ac10:	000d4663          	bltz	x26,ac1c <f_printf+0x2a8>
    ac14:	008d7463          	bgeu	x26,x8,ac1c <f_printf+0x2a8>
    ac18:	000d0413          	mv	x8,x26
    ac1c:	01412783          	lw	x15,20(x2)
    ac20:	0027f793          	and	x15,x15,2
    ac24:	02079c63          	bnez	x15,ac5c <f_printf+0x2e8>
    ac28:	6b547263          	bgeu	x8,x21,b2cc <f_printf+0x958>
    ac2c:	00812583          	lw	x11,8(x2)
    ac30:	05010513          	add	x10,x2,80
    ac34:	af0fe0ef          	jal	8f24 <putc_bfd>
    ac38:	00140413          	add	x8,x8,1
    ac3c:	fe8a98e3          	bne	x21,x8,ac2c <f_printf+0x2b8>
    ac40:	0009c583          	lbu	x11,0(x19)
    ac44:	02059063          	bnez	x11,ac64 <f_printf+0x2f0>
    ac48:	dd9ff06f          	j	aa20 <f_printf+0xac>
    ac4c:	04f10993          	add	x19,x2,79
    ac50:	fa5ff06f          	j	abf4 <f_printf+0x280>
    ac54:	00000413          	li	x8,0
    ac58:	fb9ff06f          	j	ac10 <f_printf+0x29c>
    ac5c:	0009c583          	lbu	x11,0(x19)
    ac60:	02058463          	beqz	x11,ac88 <f_printf+0x314>
    ac64:	020d0263          	beqz	x26,ac88 <f_printf+0x314>
    ac68:	00098913          	mv	x18,x19
    ac6c:	00190913          	add	x18,x18,1
    ac70:	05010513          	add	x10,x2,80
    ac74:	ab0fe0ef          	jal	8f24 <putc_bfd>
    ac78:	00094583          	lbu	x11,0(x18)
    ac7c:	00058663          	beqz	x11,ac88 <f_printf+0x314>
    ac80:	41a907b3          	sub	x15,x18,x26
    ac84:	ff3794e3          	bne	x15,x19,ac6c <f_printf+0x2f8>
    ac88:	00140493          	add	x9,x8,1
    ac8c:	d9547ae3          	bgeu	x8,x21,aa20 <f_printf+0xac>
    ac90:	000c8593          	mv	x11,x25
    ac94:	05010513          	add	x10,x2,80
    ac98:	a8cfe0ef          	jal	8f24 <putc_bfd>
    ac9c:	00048793          	mv	x15,x9
    aca0:	00148493          	add	x9,x9,1
    aca4:	fefa96e3          	bne	x21,x15,ac90 <f_printf+0x31c>
    aca8:	d79ff06f          	j	aa20 <f_printf+0xac>
    acac:	09c12783          	lw	x15,156(x2)
    acb0:	00778793          	add	x15,x15,7
    acb4:	ff87f793          	and	x15,x15,-8
    acb8:	00878713          	add	x14,x15,8
    acbc:	08e12e23          	sw	x14,156(x2)
    acc0:	0007ab83          	lw	x23,0(x15)
    acc4:	0047ab03          	lw	x22,4(x15)
    acc8:	000b8613          	mv	x12,x23
    accc:	000b0693          	mv	x13,x22
    acd0:	000b8513          	mv	x10,x23
    acd4:	000b0593          	mv	x11,x22
    acd8:	325030ef          	jal	e7fc <__unorddf2>
    acdc:	32051663          	bnez	x10,b008 <f_printf+0x694>
    ace0:	0c0d4463          	bltz	x26,ada8 <f_printf+0x434>
    ace4:	00000613          	li	x12,0
    ace8:	00000693          	li	x13,0
    acec:	000b8513          	mv	x10,x23
    acf0:	000b0593          	mv	x11,x22
    acf4:	169020ef          	jal	d65c <__ledf2>
    acf8:	02b00993          	li	x19,43
    acfc:	0a054a63          	bltz	x10,adb0 <f_printf+0x43c>
    ad00:	001b1793          	sll	x15,x22,0x1
    ad04:	0017d913          	srl	x18,x15,0x1
    ad08:	0000f7b7          	lui	x15,0xf
    ad0c:	7107a603          	lw	x12,1808(x15) # f710 <cvt1.1+0x218>
    ad10:	7147a683          	lw	x13,1812(x15)
    ad14:	000b8513          	mv	x10,x23
    ad18:	00090593          	mv	x11,x18
    ad1c:	2e1030ef          	jal	e7fc <__unorddf2>
    ad20:	0a051a63          	bnez	x10,add4 <f_printf+0x460>
    ad24:	0000f7b7          	lui	x15,0xf
    ad28:	7107a603          	lw	x12,1808(x15) # f710 <cvt1.1+0x218>
    ad2c:	7147a683          	lw	x13,1812(x15)
    ad30:	000b8513          	mv	x10,x23
    ad34:	00090593          	mv	x11,x18
    ad38:	125020ef          	jal	d65c <__ledf2>
    ad3c:	08a05c63          	blez	x10,add4 <f_printf+0x460>
    ad40:	0000f7b7          	lui	x15,0xf
    ad44:	15878793          	add	x15,x15,344 # f158 <__clzsi2+0x7cc>
    ad48:	03310623          	sb	x19,44(x2)
    ad4c:	02d10493          	add	x9,x2,45
    ad50:	00178793          	add	x15,x15,1
    ad54:	00148493          	add	x9,x9,1
    ad58:	fff7c703          	lbu	x14,-1(x15)
    ad5c:	fee48fa3          	sb	x14,-1(x9)
    ad60:	0007c703          	lbu	x14,0(x15)
    ad64:	fe0716e3          	bnez	x14,ad50 <f_printf+0x3dc>
    ad68:	00048023          	sb	x0,0(x9)
    ad6c:	02c10513          	add	x10,x2,44
    ad70:	da1f70ef          	jal	2b10 <strlen>
    ad74:	00050413          	mv	x8,x10
    ad78:	01412783          	lw	x15,20(x2)
    ad7c:	0027f793          	and	x15,x15,2
    ad80:	28079c63          	bnez	x15,b018 <f_printf+0x6a4>
    ad84:	49557e63          	bgeu	x10,x21,b220 <f_printf+0x8ac>
    ad88:	00812583          	lw	x11,8(x2)
    ad8c:	05010513          	add	x10,x2,80
    ad90:	994fe0ef          	jal	8f24 <putc_bfd>
    ad94:	00140413          	add	x8,x8,1
    ad98:	fe8a98e3          	bne	x21,x8,ad88 <f_printf+0x414>
    ad9c:	02c14583          	lbu	x11,44(x2)
    ada0:	28059063          	bnez	x11,b020 <f_printf+0x6ac>
    ada4:	c7dff06f          	j	aa20 <f_printf+0xac>
    ada8:	00600d13          	li	x26,6
    adac:	f39ff06f          	j	ace4 <f_printf+0x370>
    adb0:	000b8613          	mv	x12,x23
    adb4:	000b0693          	mv	x13,x22
    adb8:	00000513          	li	x10,0
    adbc:	00000593          	li	x11,0
    adc0:	134030ef          	jal	def4 <__subdf3>
    adc4:	00050b93          	mv	x23,x10
    adc8:	00058b13          	mv	x22,x11
    adcc:	02d00993          	li	x19,45
    add0:	f31ff06f          	j	ad00 <f_printf+0x38c>
    add4:	06600793          	li	x15,102
    add8:	02f40e63          	beq	x8,x15,ae14 <f_printf+0x4a0>
    addc:	00000613          	li	x12,0
    ade0:	00000693          	li	x13,0
    ade4:	000b8513          	mv	x10,x23
    ade8:	000b0593          	mv	x11,x22
    adec:	6e4020ef          	jal	d4d0 <__eqdf2>
    adf0:	08051663          	bnez	x10,ae7c <f_printf+0x508>
    adf4:	00000913          	li	x18,0
    adf8:	00012c23          	sw	x0,24(x2)
    adfc:	02d00793          	li	x15,45
    ae00:	10f98863          	beq	x19,x15,af10 <f_printf+0x59c>
    ae04:	02c10993          	add	x19,x2,44
    ae08:	41a00d33          	neg	x26,x26
    ae0c:	fff00d93          	li	x27,-1
    ae10:	1140006f          	j	af24 <f_printf+0x5b0>
    ae14:	41a00533          	neg	x10,x26
    ae18:	d49f80ef          	jal	3b60 <i10x>
    ae1c:	0000f7b7          	lui	x15,0xf
    ae20:	7187a603          	lw	x12,1816(x15) # f718 <cvt1.1+0x220>
    ae24:	71c7a683          	lw	x13,1820(x15)
    ae28:	13d020ef          	jal	d764 <__muldf3>
    ae2c:	00050613          	mv	x12,x10
    ae30:	00058693          	mv	x13,x11
    ae34:	000b8513          	mv	x10,x23
    ae38:	000b0593          	mv	x11,x22
    ae3c:	520010ef          	jal	c35c <__adddf3>
    ae40:	00050713          	mv	x14,x10
    ae44:	00058793          	mv	x15,x11
    ae48:	00050b93          	mv	x23,x10
    ae4c:	00058b13          	mv	x22,x11
    ae50:	00070513          	mv	x10,x14
    ae54:	00078593          	mv	x11,x15
    ae58:	b0df80ef          	jal	3964 <ilog10>
    ae5c:	fff54793          	not	x15,x10
    ae60:	41f7d793          	sra	x15,x15,0x1f
    ae64:	00f57933          	and	x18,x10,x15
    ae68:	012d0733          	add	x14,x26,x18
    ae6c:	01c00793          	li	x15,28
    ae70:	3ae7ce63          	blt	x15,x14,b22c <f_printf+0x8b8>
    ae74:	00012c23          	sw	x0,24(x2)
    ae78:	f85ff06f          	j	adfc <f_printf+0x488>
    ae7c:	000b8513          	mv	x10,x23
    ae80:	000b0593          	mv	x11,x22
    ae84:	ae1f80ef          	jal	3964 <ilog10>
    ae88:	41a50533          	sub	x10,x10,x26
    ae8c:	cd5f80ef          	jal	3b60 <i10x>
    ae90:	0000f7b7          	lui	x15,0xf
    ae94:	7187a603          	lw	x12,1816(x15) # f718 <cvt1.1+0x220>
    ae98:	71c7a683          	lw	x13,1820(x15)
    ae9c:	0c9020ef          	jal	d764 <__muldf3>
    aea0:	000b8613          	mv	x12,x23
    aea4:	000b0693          	mv	x13,x22
    aea8:	4b4010ef          	jal	c35c <__adddf3>
    aeac:	00050913          	mv	x18,x10
    aeb0:	00058b13          	mv	x22,x11
    aeb4:	ab1f80ef          	jal	3964 <ilog10>
    aeb8:	06300793          	li	x15,99
    aebc:	36a7ce63          	blt	x15,x10,b238 <f_printf+0x8c4>
    aec0:	01800793          	li	x15,24
    aec4:	01a7d863          	bge	x15,x26,aed4 <f_printf+0x560>
    aec8:	0000f7b7          	lui	x15,0xf
    aecc:	15478793          	add	x15,x15,340 # f154 <__clzsi2+0x7c8>
    aed0:	e79ff06f          	j	ad48 <f_printf+0x3d4>
    aed4:	00a12c23          	sw	x10,24(x2)
    aed8:	f9d00793          	li	x15,-99
    aedc:	00f55463          	bge	x10,x15,aee4 <f_printf+0x570>
    aee0:	00f12c23          	sw	x15,24(x2)
    aee4:	01812503          	lw	x10,24(x2)
    aee8:	c79f80ef          	jal	3b60 <i10x>
    aeec:	00050613          	mv	x12,x10
    aef0:	00058693          	mv	x13,x11
    aef4:	00090513          	mv	x10,x18
    aef8:	000b0593          	mv	x11,x22
    aefc:	529010ef          	jal	cc24 <__divdf3>
    af00:	00050b93          	mv	x23,x10
    af04:	00058b13          	mv	x22,x11
    af08:	00000913          	li	x18,0
    af0c:	ef1ff06f          	j	adfc <f_printf+0x488>
    af10:	02d00793          	li	x15,45
    af14:	02f10623          	sb	x15,44(x2)
    af18:	02d10993          	add	x19,x2,45
    af1c:	eedff06f          	j	ae08 <f_printf+0x494>
    af20:	00048993          	mv	x19,x9
    af24:	00090513          	mv	x10,x18
    af28:	c39f80ef          	jal	3b60 <i10x>
    af2c:	00050493          	mv	x9,x10
    af30:	00050613          	mv	x12,x10
    af34:	00b12623          	sw	x11,12(x2)
    af38:	00058693          	mv	x13,x11
    af3c:	000b8513          	mv	x10,x23
    af40:	000b0593          	mv	x11,x22
    af44:	4e1010ef          	jal	cc24 <__divdf3>
    af48:	109030ef          	jal	e850 <__fixdfsi>
    af4c:	00050c13          	mv	x24,x10
    af50:	185030ef          	jal	e8d4 <__floatsidf>
    af54:	00048613          	mv	x12,x9
    af58:	00c12683          	lw	x13,12(x2)
    af5c:	009020ef          	jal	d764 <__muldf3>
    af60:	00050613          	mv	x12,x10
    af64:	00058693          	mv	x13,x11
    af68:	000b8513          	mv	x10,x23
    af6c:	000b0593          	mv	x11,x22
    af70:	785020ef          	jal	def4 <__subdf3>
    af74:	00050b93          	mv	x23,x10
    af78:	00058b13          	mv	x22,x11
    af7c:	00198493          	add	x9,x19,1
    af80:	030c0c13          	add	x24,x24,48
    af84:	01898023          	sb	x24,0(x19)
    af88:	fff90913          	add	x18,x18,-1
    af8c:	01a94c63          	blt	x18,x26,afa4 <f_printf+0x630>
    af90:	f9b918e3          	bne	x18,x27,af20 <f_printf+0x5ac>
    af94:	00298493          	add	x9,x19,2
    af98:	02e00793          	li	x15,46
    af9c:	00f980a3          	sb	x15,1(x19)
    afa0:	f81ff06f          	j	af20 <f_printf+0x5ac>
    afa4:	06600793          	li	x15,102
    afa8:	dcf400e3          	beq	x8,x15,ad68 <f_printf+0x3f4>
    afac:	008980a3          	sb	x8,1(x19)
    afb0:	00398413          	add	x8,x19,3
    afb4:	02b00793          	li	x15,43
    afb8:	01812703          	lw	x14,24(x2)
    afbc:	02074e63          	bltz	x14,aff8 <f_printf+0x684>
    afc0:	00f98123          	sb	x15,2(x19)
    afc4:	00a00593          	li	x11,10
    afc8:	01812903          	lw	x18,24(x2)
    afcc:	00090513          	mv	x10,x18
    afd0:	5d4000ef          	jal	b5a4 <__divsi3>
    afd4:	03050793          	add	x15,x10,48
    afd8:	00f40023          	sb	x15,0(x8)
    afdc:	00240493          	add	x9,x8,2
    afe0:	00a00593          	li	x11,10
    afe4:	00090513          	mv	x10,x18
    afe8:	640000ef          	jal	b628 <__modsi3>
    afec:	03050793          	add	x15,x10,48
    aff0:	00f400a3          	sb	x15,1(x8)
    aff4:	d75ff06f          	j	ad68 <f_printf+0x3f4>
    aff8:	40e007b3          	neg	x15,x14
    affc:	00f12c23          	sw	x15,24(x2)
    b000:	02d00793          	li	x15,45
    b004:	fbdff06f          	j	afc0 <f_printf+0x64c>
    b008:	0000f7b7          	lui	x15,0xf
    b00c:	15078793          	add	x15,x15,336 # f150 <__clzsi2+0x7c4>
    b010:	02c10493          	add	x9,x2,44
    b014:	d3dff06f          	j	ad50 <f_printf+0x3dc>
    b018:	02c14583          	lbu	x11,44(x2)
    b01c:	00058e63          	beqz	x11,b038 <f_printf+0x6c4>
    b020:	02d10493          	add	x9,x2,45
    b024:	05010513          	add	x10,x2,80
    b028:	efdfd0ef          	jal	8f24 <putc_bfd>
    b02c:	00148493          	add	x9,x9,1
    b030:	fff4c583          	lbu	x11,-1(x9)
    b034:	fe0598e3          	bnez	x11,b024 <f_printf+0x6b0>
    b038:	00140493          	add	x9,x8,1
    b03c:	9f5472e3          	bgeu	x8,x21,aa20 <f_printf+0xac>
    b040:	000c8593          	mv	x11,x25
    b044:	05010513          	add	x10,x2,80
    b048:	eddfd0ef          	jal	8f24 <putc_bfd>
    b04c:	00048793          	mv	x15,x9
    b050:	00148493          	add	x9,x9,1
    b054:	fefa96e3          	bne	x21,x15,b040 <f_printf+0x6cc>
    b058:	9c9ff06f          	j	aa20 <f_printf+0xac>
    b05c:	00040593          	mv	x11,x8
    b060:	05010513          	add	x10,x2,80
    b064:	ec1fd0ef          	jal	8f24 <putc_bfd>
    b068:	9b9ff06f          	j	aa20 <f_printf+0xac>
    b06c:	01412783          	lw	x15,20(x2)
    b070:	0087f793          	and	x15,x15,8
    b074:	04078863          	beqz	x15,b0c4 <f_printf+0x750>
    b078:	09c12783          	lw	x15,156(x2)
    b07c:	00778793          	add	x15,x15,7
    b080:	ff87f793          	and	x15,x15,-8
    b084:	00878713          	add	x14,x15,8
    b088:	08e12e23          	sw	x14,156(x2)
    b08c:	0007a903          	lw	x18,0(x15)
    b090:	0047a483          	lw	x9,4(x15)
    b094:	06400793          	li	x15,100
    b098:	00a00c13          	li	x24,10
    b09c:	1cf41263          	bne	x8,x15,b260 <f_printf+0x8ec>
    b0a0:	1c04d063          	bgez	x9,b260 <f_printf+0x8ec>
    b0a4:	012037b3          	snez	x15,x18
    b0a8:	409004b3          	neg	x9,x9
    b0ac:	40f484b3          	sub	x9,x9,x15
    b0b0:	41200933          	neg	x18,x18
    b0b4:	01412783          	lw	x15,20(x2)
    b0b8:	0017e793          	or	x15,x15,1
    b0bc:	00f12a23          	sw	x15,20(x2)
    b0c0:	1a00006f          	j	b260 <f_printf+0x8ec>
    b0c4:	00a00c13          	li	x24,10
    b0c8:	2440006f          	j	b30c <f_printf+0x998>
    b0cc:	09c12783          	lw	x15,156(x2)
    b0d0:	00478713          	add	x14,x15,4
    b0d4:	08e12e23          	sw	x14,156(x2)
    b0d8:	0007a903          	lw	x18,0(x15)
    b0dc:	00000493          	li	x9,0
    b0e0:	1800006f          	j	b260 <f_printf+0x8ec>
    b0e4:	09c12783          	lw	x15,156(x2)
    b0e8:	00478713          	add	x14,x15,4
    b0ec:	08e12e23          	sw	x14,156(x2)
    b0f0:	0007a903          	lw	x18,0(x15)
    b0f4:	41f95493          	sra	x9,x18,0x1f
    b0f8:	fa9ff06f          	j	b0a0 <f_printf+0x72c>
    b0fc:	01812783          	lw	x15,24(x2)
    b100:	00878433          	add	x8,x15,x8
    b104:	0ff47413          	zext.b	x8,x8
    b108:	001d0993          	add	x19,x26,1
    b10c:	02c10793          	add	x15,x2,44
    b110:	013787b3          	add	x15,x15,x19
    b114:	03040413          	add	x8,x8,48
    b118:	fe878fa3          	sb	x8,-1(x15)
    b11c:	076be263          	bltu	x23,x22,b180 <f_printf+0x80c>
    b120:	057b0863          	beq	x22,x23,b170 <f_printf+0x7fc>
    b124:	05998c63          	beq	x19,x25,b17c <f_printf+0x808>
    b128:	00098d13          	mv	x26,x19
    b12c:	000c0613          	mv	x12,x24
    b130:	000b0693          	mv	x13,x22
    b134:	00090513          	mv	x10,x18
    b138:	00048593          	mv	x11,x9
    b13c:	3c9000ef          	jal	bd04 <__umoddi3>
    b140:	0ff57413          	zext.b	x8,x10
    b144:	01212623          	sw	x18,12(x2)
    b148:	00048b93          	mv	x23,x9
    b14c:	000c0613          	mv	x12,x24
    b150:	000b0693          	mv	x13,x22
    b154:	00090513          	mv	x10,x18
    b158:	00048593          	mv	x11,x9
    b15c:	4fc000ef          	jal	b658 <_end>
    b160:	00050913          	mv	x18,x10
    b164:	00058493          	mv	x9,x11
    b168:	fa8df0e3          	bgeu	x27,x8,b108 <f_printf+0x794>
    b16c:	f91ff06f          	j	b0fc <f_printf+0x788>
    b170:	00c12783          	lw	x15,12(x2)
    b174:	fb87f8e3          	bgeu	x15,x24,b124 <f_printf+0x7b0>
    b178:	0080006f          	j	b180 <f_printf+0x80c>
    b17c:	01f00d13          	li	x26,31
    b180:	01412783          	lw	x15,20(x2)
    b184:	0017f793          	and	x15,x15,1
    b188:	00078e63          	beqz	x15,b1a4 <f_printf+0x830>
    b18c:	08098793          	add	x15,x19,128
    b190:	02010713          	add	x14,x2,32
    b194:	00e789b3          	add	x19,x15,x14
    b198:	02d00793          	li	x15,45
    b19c:	f8f98623          	sb	x15,-116(x19)
    b1a0:	002d0993          	add	x19,x26,2
    b1a4:	01412783          	lw	x15,20(x2)
    b1a8:	0027f793          	and	x15,x15,2
    b1ac:	06079263          	bnez	x15,b210 <f_printf+0x89c>
    b1b0:	0759f463          	bgeu	x19,x21,b218 <f_printf+0x8a4>
    b1b4:	00098413          	mv	x8,x19
    b1b8:	00812583          	lw	x11,8(x2)
    b1bc:	05010513          	add	x10,x2,80
    b1c0:	d65fd0ef          	jal	8f24 <putc_bfd>
    b1c4:	00140413          	add	x8,x8,1
    b1c8:	fe8a98e3          	bne	x21,x8,b1b8 <f_printf+0x844>
    b1cc:	02c10793          	add	x15,x2,44
    b1d0:	013789b3          	add	x19,x15,x19
    b1d4:	fff9c583          	lbu	x11,-1(x19)
    b1d8:	05010513          	add	x10,x2,80
    b1dc:	d49fd0ef          	jal	8f24 <putc_bfd>
    b1e0:	fff98993          	add	x19,x19,-1
    b1e4:	01012783          	lw	x15,16(x2)
    b1e8:	ff3796e3          	bne	x15,x19,b1d4 <f_printf+0x860>
    b1ec:	00140493          	add	x9,x8,1
    b1f0:	835478e3          	bgeu	x8,x21,aa20 <f_printf+0xac>
    b1f4:	000c8593          	mv	x11,x25
    b1f8:	05010513          	add	x10,x2,80
    b1fc:	d29fd0ef          	jal	8f24 <putc_bfd>
    b200:	00048793          	mv	x15,x9
    b204:	00148493          	add	x9,x9,1
    b208:	fefa96e3          	bne	x21,x15,b1f4 <f_printf+0x880>
    b20c:	815ff06f          	j	aa20 <f_printf+0xac>
    b210:	00098413          	mv	x8,x19
    b214:	fb9ff06f          	j	b1cc <f_printf+0x858>
    b218:	00098413          	mv	x8,x19
    b21c:	fb1ff06f          	j	b1cc <f_printf+0x858>
    b220:	02c14583          	lbu	x11,44(x2)
    b224:	de059ee3          	bnez	x11,b020 <f_printf+0x6ac>
    b228:	ff8ff06f          	j	aa20 <f_printf+0xac>
    b22c:	0000f7b7          	lui	x15,0xf
    b230:	15478793          	add	x15,x15,340 # f154 <__clzsi2+0x7c8>
    b234:	b15ff06f          	j	ad48 <f_printf+0x3d4>
    b238:	0000f7b7          	lui	x15,0xf
    b23c:	15478793          	add	x15,x15,340 # f154 <__clzsi2+0x7c8>
    b240:	b09ff06f          	j	ad48 <f_printf+0x3d4>
    b244:	09c12783          	lw	x15,156(x2)
    b248:	00778793          	add	x15,x15,7
    b24c:	ff87f793          	and	x15,x15,-8
    b250:	00878713          	add	x14,x15,8
    b254:	08e12e23          	sw	x14,156(x2)
    b258:	0007a903          	lw	x18,0(x15)
    b25c:	0047a483          	lw	x9,4(x15)
    b260:	f8840413          	add	x8,x8,-120
    b264:	00700793          	li	x15,7
    b268:	00041463          	bnez	x8,b270 <f_printf+0x8fc>
    b26c:	02700793          	li	x15,39
    b270:	0ff7f793          	zext.b	x15,x15
    b274:	00f12c23          	sw	x15,24(x2)
    b278:	00000d13          	li	x26,0
    b27c:	00000b13          	li	x22,0
    b280:	00900d93          	li	x27,9
    b284:	ea9ff06f          	j	b12c <f_printf+0x7b8>
    b288:	00800c13          	li	x24,8
    b28c:	0080006f          	j	b294 <f_printf+0x920>
    b290:	01000c13          	li	x24,16
    b294:	01412783          	lw	x15,20(x2)
    b298:	0087f793          	and	x15,x15,8
    b29c:	fa0794e3          	bnez	x15,b244 <f_printf+0x8d0>
    b2a0:	01412783          	lw	x15,20(x2)
    b2a4:	0047f793          	and	x15,x15,4
    b2a8:	e20792e3          	bnez	x15,b0cc <f_printf+0x758>
    b2ac:	06400793          	li	x15,100
    b2b0:	e2f40ae3          	beq	x8,x15,b0e4 <f_printf+0x770>
    b2b4:	09c12783          	lw	x15,156(x2)
    b2b8:	00478713          	add	x14,x15,4
    b2bc:	08e12e23          	sw	x14,156(x2)
    b2c0:	0007a903          	lw	x18,0(x15)
    b2c4:	00000493          	li	x9,0
    b2c8:	f99ff06f          	j	b260 <f_printf+0x8ec>
    b2cc:	f4058a63          	beqz	x11,aa20 <f_printf+0xac>
    b2d0:	980d1ce3          	bnez	x26,ac68 <f_printf+0x2f4>
    b2d4:	f4cff06f          	j	aa20 <f_printf+0xac>
    b2d8:	09c12783          	lw	x15,156(x2)
    b2dc:	00778793          	add	x15,x15,7
    b2e0:	ff87f793          	and	x15,x15,-8
    b2e4:	00878713          	add	x14,x15,8
    b2e8:	08e12e23          	sw	x14,156(x2)
    b2ec:	0007a903          	lw	x18,0(x15)
    b2f0:	0047a483          	lw	x9,4(x15)
    b2f4:	00200c13          	li	x24,2
    b2f8:	f69ff06f          	j	b260 <f_printf+0x8ec>
    b2fc:	01412783          	lw	x15,20(x2)
    b300:	0087f793          	and	x15,x15,8
    b304:	00200c13          	li	x24,2
    b308:	fc0798e3          	bnez	x15,b2d8 <f_printf+0x964>
    b30c:	01412783          	lw	x15,20(x2)
    b310:	0047f793          	and	x15,x15,4
    b314:	f8078ce3          	beqz	x15,b2ac <f_printf+0x938>
    b318:	06400793          	li	x15,100
    b31c:	daf418e3          	bne	x8,x15,b0cc <f_printf+0x758>
    b320:	09c12783          	lw	x15,156(x2)
    b324:	00478713          	add	x14,x15,4
    b328:	08e12e23          	sw	x14,156(x2)
    b32c:	0007a903          	lw	x18,0(x15)
    b330:	41f95493          	sra	x9,x18,0x1f
    b334:	d6dff06f          	j	b0a0 <f_printf+0x72c>
    b338:	0d412483          	lw	x9,212(x2)
    b33c:	0d012903          	lw	x18,208(x2)
    b340:	0cc12983          	lw	x19,204(x2)
    b344:	0c412a83          	lw	x21,196(x2)
    b348:	0c012b03          	lw	x22,192(x2)
    b34c:	0bc12b83          	lw	x23,188(x2)
    b350:	0b812c03          	lw	x24,184(x2)
    b354:	0b412c83          	lw	x25,180(x2)
    b358:	0b012d03          	lw	x26,176(x2)
    b35c:	0ac12d83          	lw	x27,172(x2)
    b360:	05010513          	add	x10,x2,80
    b364:	c65fd0ef          	jal	8fc8 <putc_flush>
    b368:	0dc12083          	lw	x1,220(x2)
    b36c:	0d812403          	lw	x8,216(x2)
    b370:	0c812a03          	lw	x20,200(x2)
    b374:	10010113          	add	x2,x2,256
    b378:	00008067          	ret
    b37c:	0d412483          	lw	x9,212(x2)
    b380:	0d012903          	lw	x18,208(x2)
    b384:	0cc12983          	lw	x19,204(x2)
    b388:	0c412a83          	lw	x21,196(x2)
    b38c:	0c012b03          	lw	x22,192(x2)
    b390:	0bc12b83          	lw	x23,188(x2)
    b394:	0b812c03          	lw	x24,184(x2)
    b398:	0b412c83          	lw	x25,180(x2)
    b39c:	0b012d03          	lw	x26,176(x2)
    b3a0:	0ac12d83          	lw	x27,172(x2)
    b3a4:	fbdff06f          	j	b360 <f_printf+0x9ec>

0000b3a8 <ff_uni2oem>:
    b3a8:	00050713          	mv	x14,x10
    b3ac:	07f00793          	li	x15,127
    b3b0:	00a7e863          	bltu	x15,x10,b3c0 <ff_uni2oem+0x18>
    b3b4:	01051513          	sll	x10,x10,0x10
    b3b8:	01055513          	srl	x10,x10,0x10
    b3bc:	00008067          	ret
    b3c0:	000107b7          	lui	x15,0x10
    b3c4:	00000513          	li	x10,0
    b3c8:	00f77663          	bgeu	x14,x15,b3d4 <ff_uni2oem+0x2c>
    b3cc:	1b500793          	li	x15,437
    b3d0:	00f58463          	beq	x11,x15,b3d8 <ff_uni2oem+0x30>
    b3d4:	00008067          	ret
    b3d8:	0000f6b7          	lui	x13,0xf
    b3dc:	33c68693          	add	x13,x13,828 # f33c <uc437>
    b3e0:	00000793          	li	x15,0
    b3e4:	08000593          	li	x11,128
    b3e8:	0006d603          	lhu	x12,0(x13)
    b3ec:	00e60c63          	beq	x12,x14,b404 <ff_uni2oem+0x5c>
    b3f0:	00178793          	add	x15,x15,1 # 10001 <load_fname_cheat+0x12d>
    b3f4:	01079793          	sll	x15,x15,0x10
    b3f8:	0107d793          	srl	x15,x15,0x10
    b3fc:	00268693          	add	x13,x13,2
    b400:	feb794e3          	bne	x15,x11,b3e8 <ff_uni2oem+0x40>
    b404:	08078513          	add	x10,x15,128
    b408:	0ff57513          	zext.b	x10,x10
    b40c:	00008067          	ret

0000b410 <ff_oem2uni>:
    b410:	07f00793          	li	x15,127
    b414:	02a7fc63          	bgeu	x15,x10,b44c <ff_oem2uni+0x3c>
    b418:	1b500793          	li	x15,437
    b41c:	00f58663          	beq	x11,x15,b428 <ff_oem2uni+0x18>
    b420:	00000513          	li	x10,0
    b424:	00008067          	ret
    b428:	0ff00793          	li	x15,255
    b42c:	00a7ee63          	bltu	x15,x10,b448 <ff_oem2uni+0x38>
    b430:	00151513          	sll	x10,x10,0x1
    b434:	0000f7b7          	lui	x15,0xf
    b438:	33c78793          	add	x15,x15,828 # f33c <uc437>
    b43c:	00a787b3          	add	x15,x15,x10
    b440:	f007d503          	lhu	x10,-256(x15)
    b444:	00008067          	ret
    b448:	00000513          	li	x10,0
    b44c:	00008067          	ret

0000b450 <ff_wtoupper>:
    b450:	000107b7          	lui	x15,0x10
    b454:	08f57c63          	bgeu	x10,x15,b4ec <ff_wtoupper+0x9c>
    b458:	01051813          	sll	x16,x10,0x10
    b45c:	01085813          	srl	x16,x16,0x10
    b460:	000017b7          	lui	x15,0x1
    b464:	04f87463          	bgeu	x16,x15,b4ac <ff_wtoupper+0x5c>
    b468:	0000f737          	lui	x14,0xf
    b46c:	4f870713          	add	x14,x14,1272 # f4f8 <cvt1.1>
    b470:	01051513          	sll	x10,x10,0x10
    b474:	01055513          	srl	x10,x10,0x10
    b478:	00075683          	lhu	x13,0(x14)
    b47c:	06068663          	beqz	x13,b4e8 <ff_wtoupper+0x98>
    b480:	06d86463          	bltu	x16,x13,b4e8 <ff_wtoupper+0x98>
    b484:	00470713          	add	x14,x14,4
    b488:	ffe75783          	lhu	x15,-2(x14)
    b48c:	0087d613          	srl	x12,x15,0x8
    b490:	0ff7f793          	zext.b	x15,x15
    b494:	00d785b3          	add	x11,x15,x13
    b498:	02b54063          	blt	x10,x11,b4b8 <ff_wtoupper+0x68>
    b49c:	fc061ee3          	bnez	x12,b478 <ff_wtoupper+0x28>
    b4a0:	00179793          	sll	x15,x15,0x1
    b4a4:	00f70733          	add	x14,x14,x15
    b4a8:	fd1ff06f          	j	b478 <ff_wtoupper+0x28>
    b4ac:	0000f737          	lui	x14,0xf
    b4b0:	43c70713          	add	x14,x14,1084 # f43c <cvt2.0>
    b4b4:	fbdff06f          	j	b470 <ff_wtoupper+0x20>
    b4b8:	00800793          	li	x15,8
    b4bc:	02c7e663          	bltu	x15,x12,b4e8 <ff_wtoupper+0x98>
    b4c0:	00261613          	sll	x12,x12,0x2
    b4c4:	0000f7b7          	lui	x15,0xf
    b4c8:	31878793          	add	x15,x15,792 # f318 <ExCvt+0x80>
    b4cc:	00f60633          	add	x12,x12,x15
    b4d0:	00062783          	lw	x15,0(x12)
    b4d4:	00078067          	jr	x15
    b4d8:	40d507b3          	sub	x15,x10,x13
    b4dc:	00179793          	sll	x15,x15,0x1
    b4e0:	00f70733          	add	x14,x14,x15
    b4e4:	00075803          	lhu	x16,0(x14)
    b4e8:	00080513          	mv	x10,x16
    b4ec:	00008067          	ret
    b4f0:	40d807b3          	sub	x15,x16,x13
    b4f4:	0017f793          	and	x15,x15,1
    b4f8:	40f80833          	sub	x16,x16,x15
    b4fc:	01081813          	sll	x16,x16,0x10
    b500:	01085813          	srl	x16,x16,0x10
    b504:	fe5ff06f          	j	b4e8 <ff_wtoupper+0x98>
    b508:	ff080813          	add	x16,x16,-16
    b50c:	01081813          	sll	x16,x16,0x10
    b510:	01085813          	srl	x16,x16,0x10
    b514:	fd5ff06f          	j	b4e8 <ff_wtoupper+0x98>
    b518:	fe080813          	add	x16,x16,-32
    b51c:	01081813          	sll	x16,x16,0x10
    b520:	01085813          	srl	x16,x16,0x10
    b524:	fc5ff06f          	j	b4e8 <ff_wtoupper+0x98>
    b528:	fd080813          	add	x16,x16,-48
    b52c:	01081813          	sll	x16,x16,0x10
    b530:	01085813          	srl	x16,x16,0x10
    b534:	fb5ff06f          	j	b4e8 <ff_wtoupper+0x98>
    b538:	fe680813          	add	x16,x16,-26
    b53c:	01081813          	sll	x16,x16,0x10
    b540:	01085813          	srl	x16,x16,0x10
    b544:	fa5ff06f          	j	b4e8 <ff_wtoupper+0x98>
    b548:	00880813          	add	x16,x16,8
    b54c:	01081813          	sll	x16,x16,0x10
    b550:	01085813          	srl	x16,x16,0x10
    b554:	f95ff06f          	j	b4e8 <ff_wtoupper+0x98>
    b558:	fb080813          	add	x16,x16,-80
    b55c:	01081813          	sll	x16,x16,0x10
    b560:	01085813          	srl	x16,x16,0x10
    b564:	f85ff06f          	j	b4e8 <ff_wtoupper+0x98>
    b568:	ffffe7b7          	lui	x15,0xffffe
    b56c:	3a078793          	add	x15,x15,928 # ffffe3a0 <STACK_TOP+0xffefe3a0>
    b570:	00f80833          	add	x16,x16,x15
    b574:	01081813          	sll	x16,x16,0x10
    b578:	01085813          	srl	x16,x16,0x10
    b57c:	f6dff06f          	j	b4e8 <ff_wtoupper+0x98>

0000b580 <__mulsi3>:
    b580:	00050613          	mv	x12,x10
    b584:	00000513          	li	x10,0
    b588:	0015f693          	and	x13,x11,1
    b58c:	00068463          	beqz	x13,b594 <__mulsi3+0x14>
    b590:	00c50533          	add	x10,x10,x12
    b594:	0015d593          	srl	x11,x11,0x1
    b598:	00161613          	sll	x12,x12,0x1
    b59c:	fe0596e3          	bnez	x11,b588 <__mulsi3+0x8>
    b5a0:	00008067          	ret

0000b5a4 <__divsi3>:
    b5a4:	06054063          	bltz	x10,b604 <__umodsi3+0x10>
    b5a8:	0605c663          	bltz	x11,b614 <__umodsi3+0x20>

0000b5ac <__hidden___udivsi3>:
    b5ac:	00058613          	mv	x12,x11
    b5b0:	00050593          	mv	x11,x10
    b5b4:	fff00513          	li	x10,-1
    b5b8:	02060c63          	beqz	x12,b5f0 <__hidden___udivsi3+0x44>
    b5bc:	00100693          	li	x13,1
    b5c0:	00b67a63          	bgeu	x12,x11,b5d4 <__hidden___udivsi3+0x28>
    b5c4:	00c05863          	blez	x12,b5d4 <__hidden___udivsi3+0x28>
    b5c8:	00161613          	sll	x12,x12,0x1
    b5cc:	00169693          	sll	x13,x13,0x1
    b5d0:	feb66ae3          	bltu	x12,x11,b5c4 <__hidden___udivsi3+0x18>
    b5d4:	00000513          	li	x10,0
    b5d8:	00c5e663          	bltu	x11,x12,b5e4 <__hidden___udivsi3+0x38>
    b5dc:	40c585b3          	sub	x11,x11,x12
    b5e0:	00d56533          	or	x10,x10,x13
    b5e4:	0016d693          	srl	x13,x13,0x1
    b5e8:	00165613          	srl	x12,x12,0x1
    b5ec:	fe0696e3          	bnez	x13,b5d8 <__hidden___udivsi3+0x2c>
    b5f0:	00008067          	ret

0000b5f4 <__umodsi3>:
    b5f4:	00008293          	mv	x5,x1
    b5f8:	fb5ff0ef          	jal	b5ac <__hidden___udivsi3>
    b5fc:	00058513          	mv	x10,x11
    b600:	00028067          	jr	x5
    b604:	40a00533          	neg	x10,x10
    b608:	00b04863          	bgtz	x11,b618 <__umodsi3+0x24>
    b60c:	40b005b3          	neg	x11,x11
    b610:	f9dff06f          	j	b5ac <__hidden___udivsi3>
    b614:	40b005b3          	neg	x11,x11
    b618:	00008293          	mv	x5,x1
    b61c:	f91ff0ef          	jal	b5ac <__hidden___udivsi3>
    b620:	40a00533          	neg	x10,x10
    b624:	00028067          	jr	x5

0000b628 <__modsi3>:
    b628:	00008293          	mv	x5,x1
    b62c:	0005ca63          	bltz	x11,b640 <__modsi3+0x18>
    b630:	00054c63          	bltz	x10,b648 <__modsi3+0x20>
    b634:	f79ff0ef          	jal	b5ac <__hidden___udivsi3>
    b638:	00058513          	mv	x10,x11
    b63c:	00028067          	jr	x5
    b640:	40b005b3          	neg	x11,x11
    b644:	fe0558e3          	bgez	x10,b634 <__modsi3+0xc>
    b648:	40a00533          	neg	x10,x10
    b64c:	f61ff0ef          	jal	b5ac <__hidden___udivsi3>
    b650:	40b00533          	neg	x10,x11
    b654:	00028067          	jr	x5

Disassembly of section .text.__udivdi3:

0000b658 <__udivdi3>:
    b658:	fd010113          	add	x2,x2,-48
    b65c:	01312e23          	sw	x19,28(x2)
    b660:	02112623          	sw	x1,44(x2)
    b664:	01612823          	sw	x22,16(x2)
    b668:	00050993          	mv	x19,x10
    b66c:	16069663          	bnez	x13,b7d8 <__udivdi3+0x180>
    b670:	02812423          	sw	x8,40(x2)
    b674:	01512a23          	sw	x21,20(x2)
    b678:	02912223          	sw	x9,36(x2)
    b67c:	03212023          	sw	x18,32(x2)
    b680:	01412c23          	sw	x20,24(x2)
    b684:	00060a93          	mv	x21,x12
    b688:	00050413          	mv	x8,x10
    b68c:	1cc5f063          	bgeu	x11,x12,b84c <__udivdi3+0x1f4>
    b690:	000107b7          	lui	x15,0x10
    b694:	00058493          	mv	x9,x11
    b698:	2af66e63          	bltu	x12,x15,b954 <__udivdi3+0x2fc>
    b69c:	010007b7          	lui	x15,0x1000
    b6a0:	01800713          	li	x14,24
    b6a4:	00f67463          	bgeu	x12,x15,b6ac <__udivdi3+0x54>
    b6a8:	01000713          	li	x14,16
    b6ac:	00e656b3          	srl	x13,x12,x14
    b6b0:	00004797          	auipc	x15,0x4
    b6b4:	26c78793          	add	x15,x15,620 # f91c <__clz_tab>
    b6b8:	00d787b3          	add	x15,x15,x13
    b6bc:	0007c783          	lbu	x15,0(x15)
    b6c0:	02000693          	li	x13,32
    b6c4:	00e787b3          	add	x15,x15,x14
    b6c8:	40f68733          	sub	x14,x13,x15
    b6cc:	00f68c63          	beq	x13,x15,b6e4 <__udivdi3+0x8c>
    b6d0:	00e594b3          	sll	x9,x11,x14
    b6d4:	00f9d7b3          	srl	x15,x19,x15
    b6d8:	00e61ab3          	sll	x21,x12,x14
    b6dc:	0097e4b3          	or	x9,x15,x9
    b6e0:	00e99433          	sll	x8,x19,x14
    b6e4:	010ada13          	srl	x20,x21,0x10
    b6e8:	000a0593          	mv	x11,x20
    b6ec:	00048513          	mv	x10,x9
    b6f0:	010a9b13          	sll	x22,x21,0x10
    b6f4:	eb9ff0ef          	jal	b5ac <__hidden___udivsi3>
    b6f8:	010b5b13          	srl	x22,x22,0x10
    b6fc:	00050593          	mv	x11,x10
    b700:	00050913          	mv	x18,x10
    b704:	000b0513          	mv	x10,x22
    b708:	e79ff0ef          	jal	b580 <__mulsi3>
    b70c:	00050793          	mv	x15,x10
    b710:	000a0593          	mv	x11,x20
    b714:	00048513          	mv	x10,x9
    b718:	00078493          	mv	x9,x15
    b71c:	ed9ff0ef          	jal	b5f4 <__umodsi3>
    b720:	01051513          	sll	x10,x10,0x10
    b724:	01045793          	srl	x15,x8,0x10
    b728:	00a7e7b3          	or	x15,x15,x10
    b72c:	0097fc63          	bgeu	x15,x9,b744 <__udivdi3+0xec>
    b730:	00fa87b3          	add	x15,x21,x15
    b734:	fff90713          	add	x14,x18,-1
    b738:	0157e463          	bltu	x15,x21,b740 <__udivdi3+0xe8>
    b73c:	5a97e863          	bltu	x15,x9,bcec <__udivdi3+0x694>
    b740:	00070913          	mv	x18,x14
    b744:	409784b3          	sub	x9,x15,x9
    b748:	000a0593          	mv	x11,x20
    b74c:	00048513          	mv	x10,x9
    b750:	e5dff0ef          	jal	b5ac <__hidden___udivsi3>
    b754:	00050593          	mv	x11,x10
    b758:	00050993          	mv	x19,x10
    b75c:	000b0513          	mv	x10,x22
    b760:	e21ff0ef          	jal	b580 <__mulsi3>
    b764:	00050793          	mv	x15,x10
    b768:	000a0593          	mv	x11,x20
    b76c:	00048513          	mv	x10,x9
    b770:	01041413          	sll	x8,x8,0x10
    b774:	00078493          	mv	x9,x15
    b778:	e7dff0ef          	jal	b5f4 <__umodsi3>
    b77c:	01051513          	sll	x10,x10,0x10
    b780:	01045413          	srl	x8,x8,0x10
    b784:	00a46433          	or	x8,x8,x10
    b788:	00947c63          	bgeu	x8,x9,b7a0 <__udivdi3+0x148>
    b78c:	008a8433          	add	x8,x21,x8
    b790:	fff98793          	add	x15,x19,-1
    b794:	4d546e63          	bltu	x8,x21,bc70 <__udivdi3+0x618>
    b798:	ffe98993          	add	x19,x19,-2
    b79c:	4c947a63          	bgeu	x8,x9,bc70 <__udivdi3+0x618>
    b7a0:	01091613          	sll	x12,x18,0x10
    b7a4:	01366533          	or	x10,x12,x19
    b7a8:	00000b13          	li	x22,0
    b7ac:	02812403          	lw	x8,40(x2)
    b7b0:	02c12083          	lw	x1,44(x2)
    b7b4:	02412483          	lw	x9,36(x2)
    b7b8:	02012903          	lw	x18,32(x2)
    b7bc:	01812a03          	lw	x20,24(x2)
    b7c0:	01412a83          	lw	x21,20(x2)
    b7c4:	01c12983          	lw	x19,28(x2)
    b7c8:	000b0593          	mv	x11,x22
    b7cc:	01012b03          	lw	x22,16(x2)
    b7d0:	03010113          	add	x2,x2,48
    b7d4:	00008067          	ret
    b7d8:	02d5f263          	bgeu	x11,x13,b7fc <__udivdi3+0x1a4>
    b7dc:	00000b13          	li	x22,0
    b7e0:	00000513          	li	x10,0
    b7e4:	02c12083          	lw	x1,44(x2)
    b7e8:	01c12983          	lw	x19,28(x2)
    b7ec:	000b0593          	mv	x11,x22
    b7f0:	01012b03          	lw	x22,16(x2)
    b7f4:	03010113          	add	x2,x2,48
    b7f8:	00008067          	ret
    b7fc:	000107b7          	lui	x15,0x10
    b800:	26f6ee63          	bltu	x13,x15,ba7c <__udivdi3+0x424>
    b804:	01000737          	lui	x14,0x1000
    b808:	01800793          	li	x15,24
    b80c:	00e6f463          	bgeu	x13,x14,b814 <__udivdi3+0x1bc>
    b810:	01000793          	li	x15,16
    b814:	00f6d533          	srl	x10,x13,x15
    b818:	00004717          	auipc	x14,0x4
    b81c:	10470713          	add	x14,x14,260 # f91c <__clz_tab>
    b820:	00a70733          	add	x14,x14,x10
    b824:	00074703          	lbu	x14,0(x14)
    b828:	02000513          	li	x10,32
    b82c:	00f70733          	add	x14,x14,x15
    b830:	40e50b33          	sub	x22,x10,x14
    b834:	26e51c63          	bne	x10,x14,baac <__udivdi3+0x454>
    b838:	46b6ee63          	bltu	x13,x11,bcb4 <__udivdi3+0x65c>
    b83c:	00c9b533          	sltu	x10,x19,x12
    b840:	00153513          	seqz	x10,x10
    b844:	00000b13          	li	x22,0
    b848:	f9dff06f          	j	b7e4 <__udivdi3+0x18c>
    b84c:	10060c63          	beqz	x12,b964 <__udivdi3+0x30c>
    b850:	000107b7          	lui	x15,0x10
    b854:	44f67663          	bgeu	x12,x15,bca0 <__udivdi3+0x648>
    b858:	10063713          	sltiu	x14,x12,256
    b85c:	00173713          	seqz	x14,x14
    b860:	00371713          	sll	x14,x14,0x3
    b864:	00e656b3          	srl	x13,x12,x14
    b868:	00004797          	auipc	x15,0x4
    b86c:	0b478793          	add	x15,x15,180 # f91c <__clz_tab>
    b870:	00d787b3          	add	x15,x15,x13
    b874:	0007c483          	lbu	x9,0(x15)
    b878:	02000793          	li	x15,32
    b87c:	00e484b3          	add	x9,x9,x14
    b880:	40978733          	sub	x14,x15,x9
    b884:	10979463          	bne	x15,x9,b98c <__udivdi3+0x334>
    b888:	01061a13          	sll	x20,x12,0x10
    b88c:	40c584b3          	sub	x9,x11,x12
    b890:	01065913          	srl	x18,x12,0x10
    b894:	010a5a13          	srl	x20,x20,0x10
    b898:	00100b13          	li	x22,1
    b89c:	00090593          	mv	x11,x18
    b8a0:	00048513          	mv	x10,x9
    b8a4:	d09ff0ef          	jal	b5ac <__hidden___udivsi3>
    b8a8:	000a0593          	mv	x11,x20
    b8ac:	00050993          	mv	x19,x10
    b8b0:	cd1ff0ef          	jal	b580 <__mulsi3>
    b8b4:	00050793          	mv	x15,x10
    b8b8:	00090593          	mv	x11,x18
    b8bc:	00048513          	mv	x10,x9
    b8c0:	00078493          	mv	x9,x15
    b8c4:	d31ff0ef          	jal	b5f4 <__umodsi3>
    b8c8:	01051513          	sll	x10,x10,0x10
    b8cc:	01045793          	srl	x15,x8,0x10
    b8d0:	00a7e7b3          	or	x15,x15,x10
    b8d4:	0097fc63          	bgeu	x15,x9,b8ec <__udivdi3+0x294>
    b8d8:	00fa87b3          	add	x15,x21,x15
    b8dc:	fff98713          	add	x14,x19,-1
    b8e0:	0157e463          	bltu	x15,x21,b8e8 <__udivdi3+0x290>
    b8e4:	3e97ee63          	bltu	x15,x9,bce0 <__udivdi3+0x688>
    b8e8:	00070993          	mv	x19,x14
    b8ec:	409784b3          	sub	x9,x15,x9
    b8f0:	00090593          	mv	x11,x18
    b8f4:	00048513          	mv	x10,x9
    b8f8:	cb5ff0ef          	jal	b5ac <__hidden___udivsi3>
    b8fc:	000a0593          	mv	x11,x20
    b900:	00050a13          	mv	x20,x10
    b904:	c7dff0ef          	jal	b580 <__mulsi3>
    b908:	00050793          	mv	x15,x10
    b90c:	00090593          	mv	x11,x18
    b910:	00048513          	mv	x10,x9
    b914:	01041413          	sll	x8,x8,0x10
    b918:	00078493          	mv	x9,x15
    b91c:	cd9ff0ef          	jal	b5f4 <__umodsi3>
    b920:	01051513          	sll	x10,x10,0x10
    b924:	01045413          	srl	x8,x8,0x10
    b928:	00a46433          	or	x8,x8,x10
    b92c:	00947e63          	bgeu	x8,x9,b948 <__udivdi3+0x2f0>
    b930:	008a8433          	add	x8,x21,x8
    b934:	fffa0793          	add	x15,x20,-1
    b938:	01546663          	bltu	x8,x21,b944 <__udivdi3+0x2ec>
    b93c:	ffea0a13          	add	x20,x20,-2
    b940:	00946463          	bltu	x8,x9,b948 <__udivdi3+0x2f0>
    b944:	00078a13          	mv	x20,x15
    b948:	01099613          	sll	x12,x19,0x10
    b94c:	01466533          	or	x10,x12,x20
    b950:	e5dff06f          	j	b7ac <__udivdi3+0x154>
    b954:	10063713          	sltiu	x14,x12,256
    b958:	00173713          	seqz	x14,x14
    b95c:	00371713          	sll	x14,x14,0x3
    b960:	d4dff06f          	j	b6ac <__udivdi3+0x54>
    b964:	00000693          	li	x13,0
    b968:	00004797          	auipc	x15,0x4
    b96c:	fb478793          	add	x15,x15,-76 # f91c <__clz_tab>
    b970:	00d787b3          	add	x15,x15,x13
    b974:	0007c483          	lbu	x9,0(x15)
    b978:	00000713          	li	x14,0
    b97c:	02000793          	li	x15,32
    b980:	00e484b3          	add	x9,x9,x14
    b984:	40978733          	sub	x14,x15,x9
    b988:	f09780e3          	beq	x15,x9,b888 <__udivdi3+0x230>
    b98c:	00e61ab3          	sll	x21,x12,x14
    b990:	01712623          	sw	x23,12(x2)
    b994:	010ad913          	srl	x18,x21,0x10
    b998:	0095dbb3          	srl	x23,x11,x9
    b99c:	00e597b3          	sll	x15,x11,x14
    b9a0:	0099d4b3          	srl	x9,x19,x9
    b9a4:	00090593          	mv	x11,x18
    b9a8:	000b8513          	mv	x10,x23
    b9ac:	010a9a13          	sll	x20,x21,0x10
    b9b0:	00f4e4b3          	or	x9,x9,x15
    b9b4:	00e99433          	sll	x8,x19,x14
    b9b8:	010a5a13          	srl	x20,x20,0x10
    b9bc:	bf1ff0ef          	jal	b5ac <__hidden___udivsi3>
    b9c0:	00050593          	mv	x11,x10
    b9c4:	00050b13          	mv	x22,x10
    b9c8:	000a0513          	mv	x10,x20
    b9cc:	bb5ff0ef          	jal	b580 <__mulsi3>
    b9d0:	00050993          	mv	x19,x10
    b9d4:	00090593          	mv	x11,x18
    b9d8:	000b8513          	mv	x10,x23
    b9dc:	c19ff0ef          	jal	b5f4 <__umodsi3>
    b9e0:	01051513          	sll	x10,x10,0x10
    b9e4:	0104d793          	srl	x15,x9,0x10
    b9e8:	00a7e7b3          	or	x15,x15,x10
    b9ec:	0137fe63          	bgeu	x15,x19,ba08 <__udivdi3+0x3b0>
    b9f0:	00fa87b3          	add	x15,x21,x15
    b9f4:	fffb0713          	add	x14,x22,-1
    b9f8:	2d57ec63          	bltu	x15,x21,bcd0 <__udivdi3+0x678>
    b9fc:	2d37fa63          	bgeu	x15,x19,bcd0 <__udivdi3+0x678>
    ba00:	ffeb0b13          	add	x22,x22,-2
    ba04:	015787b3          	add	x15,x15,x21
    ba08:	413789b3          	sub	x19,x15,x19
    ba0c:	00090593          	mv	x11,x18
    ba10:	00098513          	mv	x10,x19
    ba14:	b99ff0ef          	jal	b5ac <__hidden___udivsi3>
    ba18:	00050593          	mv	x11,x10
    ba1c:	00050b93          	mv	x23,x10
    ba20:	000a0513          	mv	x10,x20
    ba24:	b5dff0ef          	jal	b580 <__mulsi3>
    ba28:	00050793          	mv	x15,x10
    ba2c:	00090593          	mv	x11,x18
    ba30:	00098513          	mv	x10,x19
    ba34:	01049493          	sll	x9,x9,0x10
    ba38:	00078993          	mv	x19,x15
    ba3c:	bb9ff0ef          	jal	b5f4 <__umodsi3>
    ba40:	01051513          	sll	x10,x10,0x10
    ba44:	0104d493          	srl	x9,x9,0x10
    ba48:	00a4e4b3          	or	x9,x9,x10
    ba4c:	0134fe63          	bgeu	x9,x19,ba68 <__udivdi3+0x410>
    ba50:	009a84b3          	add	x9,x21,x9
    ba54:	fffb8793          	add	x15,x23,-1
    ba58:	2754e463          	bltu	x9,x21,bcc0 <__udivdi3+0x668>
    ba5c:	2734f263          	bgeu	x9,x19,bcc0 <__udivdi3+0x668>
    ba60:	ffeb8b93          	add	x23,x23,-2
    ba64:	015484b3          	add	x9,x9,x21
    ba68:	010b1b13          	sll	x22,x22,0x10
    ba6c:	017b6b33          	or	x22,x22,x23
    ba70:	413484b3          	sub	x9,x9,x19
    ba74:	00c12b83          	lw	x23,12(x2)
    ba78:	e25ff06f          	j	b89c <__udivdi3+0x244>
    ba7c:	1006b793          	sltiu	x15,x13,256
    ba80:	0017b793          	seqz	x15,x15
    ba84:	00379793          	sll	x15,x15,0x3
    ba88:	00f6d533          	srl	x10,x13,x15
    ba8c:	00004717          	auipc	x14,0x4
    ba90:	e9070713          	add	x14,x14,-368 # f91c <__clz_tab>
    ba94:	00a70733          	add	x14,x14,x10
    ba98:	00074703          	lbu	x14,0(x14)
    ba9c:	02000513          	li	x10,32
    baa0:	00f70733          	add	x14,x14,x15
    baa4:	40e50b33          	sub	x22,x10,x14
    baa8:	d8e508e3          	beq	x10,x14,b838 <__udivdi3+0x1e0>
    baac:	016696b3          	sll	x13,x13,x22
    bab0:	01912223          	sw	x25,4(x2)
    bab4:	00e65cb3          	srl	x25,x12,x14
    bab8:	00dcecb3          	or	x25,x25,x13
    babc:	01512a23          	sw	x21,20(x2)
    bac0:	01712623          	sw	x23,12(x2)
    bac4:	010cda93          	srl	x21,x25,0x10
    bac8:	00e5dbb3          	srl	x23,x11,x14
    bacc:	016597b3          	sll	x15,x11,x22
    bad0:	00e9d733          	srl	x14,x19,x14
    bad4:	01812423          	sw	x24,8(x2)
    bad8:	000a8593          	mv	x11,x21
    badc:	000b8513          	mv	x10,x23
    bae0:	010c9c13          	sll	x24,x25,0x10
    bae4:	02812423          	sw	x8,40(x2)
    bae8:	02912223          	sw	x9,36(x2)
    baec:	03212023          	sw	x18,32(x2)
    baf0:	00f764b3          	or	x9,x14,x15
    baf4:	01661933          	sll	x18,x12,x22
    baf8:	01412c23          	sw	x20,24(x2)
    bafc:	010c5c13          	srl	x24,x24,0x10
    bb00:	aadff0ef          	jal	b5ac <__hidden___udivsi3>
    bb04:	00050593          	mv	x11,x10
    bb08:	00050413          	mv	x8,x10
    bb0c:	000c0513          	mv	x10,x24
    bb10:	a71ff0ef          	jal	b580 <__mulsi3>
    bb14:	00050a13          	mv	x20,x10
    bb18:	000a8593          	mv	x11,x21
    bb1c:	000b8513          	mv	x10,x23
    bb20:	ad5ff0ef          	jal	b5f4 <__umodsi3>
    bb24:	01051513          	sll	x10,x10,0x10
    bb28:	0104d793          	srl	x15,x9,0x10
    bb2c:	00a7e7b3          	or	x15,x15,x10
    bb30:	0147fe63          	bgeu	x15,x20,bb4c <__udivdi3+0x4f4>
    bb34:	00fc87b3          	add	x15,x25,x15
    bb38:	fff40713          	add	x14,x8,-1
    bb3c:	1997ee63          	bltu	x15,x25,bcd8 <__udivdi3+0x680>
    bb40:	1947fc63          	bgeu	x15,x20,bcd8 <__udivdi3+0x680>
    bb44:	ffe40413          	add	x8,x8,-2
    bb48:	019787b3          	add	x15,x15,x25
    bb4c:	41478a33          	sub	x20,x15,x20
    bb50:	000a8593          	mv	x11,x21
    bb54:	000a0513          	mv	x10,x20
    bb58:	a55ff0ef          	jal	b5ac <__hidden___udivsi3>
    bb5c:	00050593          	mv	x11,x10
    bb60:	00050b93          	mv	x23,x10
    bb64:	000c0513          	mv	x10,x24
    bb68:	a19ff0ef          	jal	b580 <__mulsi3>
    bb6c:	00050793          	mv	x15,x10
    bb70:	000a8593          	mv	x11,x21
    bb74:	000a0513          	mv	x10,x20
    bb78:	00078a13          	mv	x20,x15
    bb7c:	a79ff0ef          	jal	b5f4 <__umodsi3>
    bb80:	01049713          	sll	x14,x9,0x10
    bb84:	01051513          	sll	x10,x10,0x10
    bb88:	01075713          	srl	x14,x14,0x10
    bb8c:	00a76733          	or	x14,x14,x10
    bb90:	01477e63          	bgeu	x14,x20,bbac <__udivdi3+0x554>
    bb94:	00ec8733          	add	x14,x25,x14
    bb98:	fffb8793          	add	x15,x23,-1
    bb9c:	13976663          	bltu	x14,x25,bcc8 <__udivdi3+0x670>
    bba0:	13477463          	bgeu	x14,x20,bcc8 <__udivdi3+0x670>
    bba4:	ffeb8b93          	add	x23,x23,-2
    bba8:	01970733          	add	x14,x14,x25
    bbac:	00010e37          	lui	x28,0x10
    bbb0:	01041413          	sll	x8,x8,0x10
    bbb4:	01746433          	or	x8,x8,x23
    bbb8:	fffe0793          	add	x15,x28,-1 # ffff <load_fname_cheat+0x12b>
    bbbc:	00f47833          	and	x16,x8,x15
    bbc0:	00f977b3          	and	x15,x18,x15
    bbc4:	41470733          	sub	x14,x14,x20
    bbc8:	01045e93          	srl	x29,x8,0x10
    bbcc:	01095913          	srl	x18,x18,0x10
    bbd0:	00080513          	mv	x10,x16
    bbd4:	00078593          	mv	x11,x15
    bbd8:	9a9ff0ef          	jal	b580 <__mulsi3>
    bbdc:	00050313          	mv	x6,x10
    bbe0:	00090593          	mv	x11,x18
    bbe4:	00080513          	mv	x10,x16
    bbe8:	999ff0ef          	jal	b580 <__mulsi3>
    bbec:	00050813          	mv	x16,x10
    bbf0:	00078593          	mv	x11,x15
    bbf4:	000e8513          	mv	x10,x29
    bbf8:	989ff0ef          	jal	b580 <__mulsi3>
    bbfc:	00050893          	mv	x17,x10
    bc00:	00090593          	mv	x11,x18
    bc04:	000e8513          	mv	x10,x29
    bc08:	979ff0ef          	jal	b580 <__mulsi3>
    bc0c:	01035793          	srl	x15,x6,0x10
    bc10:	01180833          	add	x16,x16,x17
    bc14:	010787b3          	add	x15,x15,x16
    bc18:	0117f463          	bgeu	x15,x17,bc20 <__udivdi3+0x5c8>
    bc1c:	01c50533          	add	x10,x10,x28
    bc20:	0107d693          	srl	x13,x15,0x10
    bc24:	00a686b3          	add	x13,x13,x10
    bc28:	06d76863          	bltu	x14,x13,bc98 <__udivdi3+0x640>
    bc2c:	04d70663          	beq	x14,x13,bc78 <__udivdi3+0x620>
    bc30:	00040513          	mv	x10,x8
    bc34:	02812403          	lw	x8,40(x2)
    bc38:	02c12083          	lw	x1,44(x2)
    bc3c:	00000b13          	li	x22,0
    bc40:	02412483          	lw	x9,36(x2)
    bc44:	02012903          	lw	x18,32(x2)
    bc48:	01812a03          	lw	x20,24(x2)
    bc4c:	01412a83          	lw	x21,20(x2)
    bc50:	00c12b83          	lw	x23,12(x2)
    bc54:	00812c03          	lw	x24,8(x2)
    bc58:	00412c83          	lw	x25,4(x2)
    bc5c:	01c12983          	lw	x19,28(x2)
    bc60:	000b0593          	mv	x11,x22
    bc64:	01012b03          	lw	x22,16(x2)
    bc68:	03010113          	add	x2,x2,48
    bc6c:	00008067          	ret
    bc70:	00078993          	mv	x19,x15
    bc74:	b2dff06f          	j	b7a0 <__udivdi3+0x148>
    bc78:	00010737          	lui	x14,0x10
    bc7c:	fff70713          	add	x14,x14,-1 # ffff <load_fname_cheat+0x12b>
    bc80:	00e7f7b3          	and	x15,x15,x14
    bc84:	01079793          	sll	x15,x15,0x10
    bc88:	00e37333          	and	x6,x6,x14
    bc8c:	01699533          	sll	x10,x19,x22
    bc90:	006787b3          	add	x15,x15,x6
    bc94:	f8f57ee3          	bgeu	x10,x15,bc30 <__udivdi3+0x5d8>
    bc98:	fff40513          	add	x10,x8,-1
    bc9c:	f99ff06f          	j	bc34 <__udivdi3+0x5dc>
    bca0:	010007b7          	lui	x15,0x1000
    bca4:	04f67a63          	bgeu	x12,x15,bcf8 <__udivdi3+0x6a0>
    bca8:	01065693          	srl	x13,x12,0x10
    bcac:	01000713          	li	x14,16
    bcb0:	bb9ff06f          	j	b868 <__udivdi3+0x210>
    bcb4:	00000b13          	li	x22,0
    bcb8:	00100513          	li	x10,1
    bcbc:	b29ff06f          	j	b7e4 <__udivdi3+0x18c>
    bcc0:	00078b93          	mv	x23,x15
    bcc4:	da5ff06f          	j	ba68 <__udivdi3+0x410>
    bcc8:	00078b93          	mv	x23,x15
    bccc:	ee1ff06f          	j	bbac <__udivdi3+0x554>
    bcd0:	00070b13          	mv	x22,x14
    bcd4:	d35ff06f          	j	ba08 <__udivdi3+0x3b0>
    bcd8:	00070413          	mv	x8,x14
    bcdc:	e71ff06f          	j	bb4c <__udivdi3+0x4f4>
    bce0:	ffe98993          	add	x19,x19,-2
    bce4:	015787b3          	add	x15,x15,x21
    bce8:	c05ff06f          	j	b8ec <__udivdi3+0x294>
    bcec:	ffe90913          	add	x18,x18,-2
    bcf0:	015787b3          	add	x15,x15,x21
    bcf4:	a51ff06f          	j	b744 <__udivdi3+0xec>
    bcf8:	01865693          	srl	x13,x12,0x18
    bcfc:	01800713          	li	x14,24
    bd00:	b69ff06f          	j	b868 <__udivdi3+0x210>

Disassembly of section .text.__umoddi3:

0000bd04 <__umoddi3>:
    bd04:	fd010113          	add	x2,x2,-48
    bd08:	02112623          	sw	x1,44(x2)
    bd0c:	00050793          	mv	x15,x10
    bd10:	14069663          	bnez	x13,be5c <__umoddi3+0x158>
    bd14:	03212023          	sw	x18,32(x2)
    bd18:	01412c23          	sw	x20,24(x2)
    bd1c:	02812423          	sw	x8,40(x2)
    bd20:	02912223          	sw	x9,36(x2)
    bd24:	01312e23          	sw	x19,28(x2)
    bd28:	01512a23          	sw	x21,20(x2)
    bd2c:	00060a13          	mv	x20,x12
    bd30:	00050913          	mv	x18,x10
    bd34:	1ac5f663          	bgeu	x11,x12,bee0 <__umoddi3+0x1dc>
    bd38:	01612823          	sw	x22,16(x2)
    bd3c:	00010737          	lui	x14,0x10
    bd40:	00058993          	mv	x19,x11
    bd44:	28e66063          	bltu	x12,x14,bfc4 <__umoddi3+0x2c0>
    bd48:	01000737          	lui	x14,0x1000
    bd4c:	01800693          	li	x13,24
    bd50:	00e67463          	bgeu	x12,x14,bd58 <__umoddi3+0x54>
    bd54:	01000693          	li	x13,16
    bd58:	00d65533          	srl	x10,x12,x13
    bd5c:	00004717          	auipc	x14,0x4
    bd60:	bc070713          	add	x14,x14,-1088 # f91c <__clz_tab>
    bd64:	00a70733          	add	x14,x14,x10
    bd68:	00074703          	lbu	x14,0(x14)
    bd6c:	02000513          	li	x10,32
    bd70:	00d70733          	add	x14,x14,x13
    bd74:	40e504b3          	sub	x9,x10,x14
    bd78:	00e50c63          	beq	x10,x14,bd90 <__umoddi3+0x8c>
    bd7c:	009599b3          	sll	x19,x11,x9
    bd80:	00e7d733          	srl	x14,x15,x14
    bd84:	00961a33          	sll	x20,x12,x9
    bd88:	013769b3          	or	x19,x14,x19
    bd8c:	00979933          	sll	x18,x15,x9
    bd90:	010a5a93          	srl	x21,x20,0x10
    bd94:	000a8593          	mv	x11,x21
    bd98:	00098513          	mv	x10,x19
    bd9c:	010a1b13          	sll	x22,x20,0x10
    bda0:	80dff0ef          	jal	b5ac <__hidden___udivsi3>
    bda4:	010b5b13          	srl	x22,x22,0x10
    bda8:	000b0593          	mv	x11,x22
    bdac:	fd4ff0ef          	jal	b580 <__mulsi3>
    bdb0:	00050413          	mv	x8,x10
    bdb4:	000a8593          	mv	x11,x21
    bdb8:	00098513          	mv	x10,x19
    bdbc:	839ff0ef          	jal	b5f4 <__umodsi3>
    bdc0:	01051513          	sll	x10,x10,0x10
    bdc4:	01095793          	srl	x15,x18,0x10
    bdc8:	00a7e7b3          	or	x15,x15,x10
    bdcc:	0087f863          	bgeu	x15,x8,bddc <__umoddi3+0xd8>
    bdd0:	00fa07b3          	add	x15,x20,x15
    bdd4:	0147e463          	bltu	x15,x20,bddc <__umoddi3+0xd8>
    bdd8:	5687e863          	bltu	x15,x8,c348 <__umoddi3+0x644>
    bddc:	40878433          	sub	x8,x15,x8
    bde0:	000a8593          	mv	x11,x21
    bde4:	00040513          	mv	x10,x8
    bde8:	fc4ff0ef          	jal	b5ac <__hidden___udivsi3>
    bdec:	000b0593          	mv	x11,x22
    bdf0:	f90ff0ef          	jal	b580 <__mulsi3>
    bdf4:	00050793          	mv	x15,x10
    bdf8:	000a8593          	mv	x11,x21
    bdfc:	00040513          	mv	x10,x8
    be00:	00078413          	mv	x8,x15
    be04:	ff0ff0ef          	jal	b5f4 <__umodsi3>
    be08:	01091793          	sll	x15,x18,0x10
    be0c:	01051513          	sll	x10,x10,0x10
    be10:	0107d793          	srl	x15,x15,0x10
    be14:	00a7e7b3          	or	x15,x15,x10
    be18:	0087f863          	bgeu	x15,x8,be28 <__umoddi3+0x124>
    be1c:	00fa07b3          	add	x15,x20,x15
    be20:	0147e463          	bltu	x15,x20,be28 <__umoddi3+0x124>
    be24:	5087ea63          	bltu	x15,x8,c338 <__umoddi3+0x634>
    be28:	01012b03          	lw	x22,16(x2)
    be2c:	408787b3          	sub	x15,x15,x8
    be30:	0097d533          	srl	x10,x15,x9
    be34:	02812403          	lw	x8,40(x2)
    be38:	02412483          	lw	x9,36(x2)
    be3c:	02012903          	lw	x18,32(x2)
    be40:	01c12983          	lw	x19,28(x2)
    be44:	01812a03          	lw	x20,24(x2)
    be48:	01412a83          	lw	x21,20(x2)
    be4c:	00000593          	li	x11,0
    be50:	02c12083          	lw	x1,44(x2)
    be54:	03010113          	add	x2,x2,48
    be58:	00008067          	ret
    be5c:	00050893          	mv	x17,x10
    be60:	fed5e8e3          	bltu	x11,x13,be50 <__umoddi3+0x14c>
    be64:	03212023          	sw	x18,32(x2)
    be68:	01312e23          	sw	x19,28(x2)
    be6c:	00010737          	lui	x14,0x10
    be70:	00058813          	mv	x16,x11
    be74:	24e6ec63          	bltu	x13,x14,c0cc <__umoddi3+0x3c8>
    be78:	01000737          	lui	x14,0x1000
    be7c:	01800513          	li	x10,24
    be80:	00e6f463          	bgeu	x13,x14,be88 <__umoddi3+0x184>
    be84:	01000513          	li	x10,16
    be88:	00a6d333          	srl	x6,x13,x10
    be8c:	00004717          	auipc	x14,0x4
    be90:	a9070713          	add	x14,x14,-1392 # f91c <__clz_tab>
    be94:	00670733          	add	x14,x14,x6
    be98:	00074703          	lbu	x14,0(x14)
    be9c:	02000313          	li	x6,32
    bea0:	00a709b3          	add	x19,x14,x10
    bea4:	41330933          	sub	x18,x6,x19
    bea8:	25331a63          	bne	x6,x19,c0fc <__umoddi3+0x3f8>
    beac:	00b6e463          	bltu	x13,x11,beb4 <__umoddi3+0x1b0>
    beb0:	00c7ea63          	bltu	x15,x12,bec4 <__umoddi3+0x1c0>
    beb4:	40c788b3          	sub	x17,x15,x12
    beb8:	40d586b3          	sub	x13,x11,x13
    bebc:	0117b833          	sltu	x16,x15,x17
    bec0:	41068833          	sub	x16,x13,x16
    bec4:	02c12083          	lw	x1,44(x2)
    bec8:	02012903          	lw	x18,32(x2)
    becc:	01c12983          	lw	x19,28(x2)
    bed0:	00088513          	mv	x10,x17
    bed4:	00080593          	mv	x11,x16
    bed8:	03010113          	add	x2,x2,48
    bedc:	00008067          	ret
    bee0:	0e060a63          	beqz	x12,bfd4 <__umoddi3+0x2d0>
    bee4:	00010737          	lui	x14,0x10
    bee8:	42e67663          	bgeu	x12,x14,c314 <__umoddi3+0x610>
    beec:	10063693          	sltiu	x13,x12,256
    bef0:	0016b693          	seqz	x13,x13
    bef4:	00369693          	sll	x13,x13,0x3
    bef8:	00d65533          	srl	x10,x12,x13
    befc:	00004717          	auipc	x14,0x4
    bf00:	a2070713          	add	x14,x14,-1504 # f91c <__clz_tab>
    bf04:	00a70733          	add	x14,x14,x10
    bf08:	00074983          	lbu	x19,0(x14)
    bf0c:	02000713          	li	x14,32
    bf10:	00d989b3          	add	x19,x19,x13
    bf14:	413704b3          	sub	x9,x14,x19
    bf18:	0f371263          	bne	x14,x19,bffc <__umoddi3+0x2f8>
    bf1c:	01061413          	sll	x8,x12,0x10
    bf20:	40c589b3          	sub	x19,x11,x12
    bf24:	01065a93          	srl	x21,x12,0x10
    bf28:	01045413          	srl	x8,x8,0x10
    bf2c:	000a8593          	mv	x11,x21
    bf30:	00098513          	mv	x10,x19
    bf34:	e78ff0ef          	jal	b5ac <__hidden___udivsi3>
    bf38:	00040593          	mv	x11,x8
    bf3c:	e44ff0ef          	jal	b580 <__mulsi3>
    bf40:	00050793          	mv	x15,x10
    bf44:	000a8593          	mv	x11,x21
    bf48:	00098513          	mv	x10,x19
    bf4c:	00078993          	mv	x19,x15
    bf50:	ea4ff0ef          	jal	b5f4 <__umodsi3>
    bf54:	01051513          	sll	x10,x10,0x10
    bf58:	01095793          	srl	x15,x18,0x10
    bf5c:	00a7e7b3          	or	x15,x15,x10
    bf60:	0137f863          	bgeu	x15,x19,bf70 <__umoddi3+0x26c>
    bf64:	00fa07b3          	add	x15,x20,x15
    bf68:	0147e463          	bltu	x15,x20,bf70 <__umoddi3+0x26c>
    bf6c:	3d37ea63          	bltu	x15,x19,c340 <__umoddi3+0x63c>
    bf70:	413789b3          	sub	x19,x15,x19
    bf74:	000a8593          	mv	x11,x21
    bf78:	00098513          	mv	x10,x19
    bf7c:	e30ff0ef          	jal	b5ac <__hidden___udivsi3>
    bf80:	00040593          	mv	x11,x8
    bf84:	dfcff0ef          	jal	b580 <__mulsi3>
    bf88:	00050413          	mv	x8,x10
    bf8c:	000a8593          	mv	x11,x21
    bf90:	00098513          	mv	x10,x19
    bf94:	e60ff0ef          	jal	b5f4 <__umodsi3>
    bf98:	01091913          	sll	x18,x18,0x10
    bf9c:	01051793          	sll	x15,x10,0x10
    bfa0:	01095913          	srl	x18,x18,0x10
    bfa4:	00f967b3          	or	x15,x18,x15
    bfa8:	0087fa63          	bgeu	x15,x8,bfbc <__umoddi3+0x2b8>
    bfac:	00fa07b3          	add	x15,x20,x15
    bfb0:	0147e663          	bltu	x15,x20,bfbc <__umoddi3+0x2b8>
    bfb4:	0087f463          	bgeu	x15,x8,bfbc <__umoddi3+0x2b8>
    bfb8:	014787b3          	add	x15,x15,x20
    bfbc:	408787b3          	sub	x15,x15,x8
    bfc0:	e71ff06f          	j	be30 <__umoddi3+0x12c>
    bfc4:	10063693          	sltiu	x13,x12,256
    bfc8:	0016b693          	seqz	x13,x13
    bfcc:	00369693          	sll	x13,x13,0x3
    bfd0:	d89ff06f          	j	bd58 <__umoddi3+0x54>
    bfd4:	00000513          	li	x10,0
    bfd8:	00004717          	auipc	x14,0x4
    bfdc:	94470713          	add	x14,x14,-1724 # f91c <__clz_tab>
    bfe0:	00a70733          	add	x14,x14,x10
    bfe4:	00074983          	lbu	x19,0(x14)
    bfe8:	00000693          	li	x13,0
    bfec:	02000713          	li	x14,32
    bff0:	00d989b3          	add	x19,x19,x13
    bff4:	413704b3          	sub	x9,x14,x19
    bff8:	f33702e3          	beq	x14,x19,bf1c <__umoddi3+0x218>
    bffc:	00961a33          	sll	x20,x12,x9
    c000:	01712623          	sw	x23,12(x2)
    c004:	010a5a93          	srl	x21,x20,0x10
    c008:	0135dbb3          	srl	x23,x11,x19
    c00c:	00959733          	sll	x14,x11,x9
    c010:	0137d9b3          	srl	x19,x15,x19
    c014:	000a8593          	mv	x11,x21
    c018:	000b8513          	mv	x10,x23
    c01c:	010a1413          	sll	x8,x20,0x10
    c020:	00e9e9b3          	or	x19,x19,x14
    c024:	00979933          	sll	x18,x15,x9
    c028:	01612823          	sw	x22,16(x2)
    c02c:	01045413          	srl	x8,x8,0x10
    c030:	d7cff0ef          	jal	b5ac <__hidden___udivsi3>
    c034:	00040593          	mv	x11,x8
    c038:	d48ff0ef          	jal	b580 <__mulsi3>
    c03c:	00050b13          	mv	x22,x10
    c040:	000a8593          	mv	x11,x21
    c044:	000b8513          	mv	x10,x23
    c048:	dacff0ef          	jal	b5f4 <__umodsi3>
    c04c:	01051513          	sll	x10,x10,0x10
    c050:	0109d793          	srl	x15,x19,0x10
    c054:	00a7e7b3          	or	x15,x15,x10
    c058:	0167fa63          	bgeu	x15,x22,c06c <__umoddi3+0x368>
    c05c:	00fa07b3          	add	x15,x20,x15
    c060:	0147e663          	bltu	x15,x20,c06c <__umoddi3+0x368>
    c064:	0167f463          	bgeu	x15,x22,c06c <__umoddi3+0x368>
    c068:	014787b3          	add	x15,x15,x20
    c06c:	41678b33          	sub	x22,x15,x22
    c070:	000a8593          	mv	x11,x21
    c074:	000b0513          	mv	x10,x22
    c078:	d34ff0ef          	jal	b5ac <__hidden___udivsi3>
    c07c:	00040593          	mv	x11,x8
    c080:	d00ff0ef          	jal	b580 <__mulsi3>
    c084:	00050793          	mv	x15,x10
    c088:	000a8593          	mv	x11,x21
    c08c:	000b0513          	mv	x10,x22
    c090:	01099993          	sll	x19,x19,0x10
    c094:	00078b13          	mv	x22,x15
    c098:	d5cff0ef          	jal	b5f4 <__umodsi3>
    c09c:	01051513          	sll	x10,x10,0x10
    c0a0:	0109d993          	srl	x19,x19,0x10
    c0a4:	00a9e9b3          	or	x19,x19,x10
    c0a8:	0169fa63          	bgeu	x19,x22,c0bc <__umoddi3+0x3b8>
    c0ac:	013a09b3          	add	x19,x20,x19
    c0b0:	0149e663          	bltu	x19,x20,c0bc <__umoddi3+0x3b8>
    c0b4:	0169f463          	bgeu	x19,x22,c0bc <__umoddi3+0x3b8>
    c0b8:	014989b3          	add	x19,x19,x20
    c0bc:	416989b3          	sub	x19,x19,x22
    c0c0:	00c12b83          	lw	x23,12(x2)
    c0c4:	01012b03          	lw	x22,16(x2)
    c0c8:	e65ff06f          	j	bf2c <__umoddi3+0x228>
    c0cc:	1006b513          	sltiu	x10,x13,256
    c0d0:	00153513          	seqz	x10,x10
    c0d4:	00351513          	sll	x10,x10,0x3
    c0d8:	00a6d333          	srl	x6,x13,x10
    c0dc:	00004717          	auipc	x14,0x4
    c0e0:	84070713          	add	x14,x14,-1984 # f91c <__clz_tab>
    c0e4:	00670733          	add	x14,x14,x6
    c0e8:	00074703          	lbu	x14,0(x14)
    c0ec:	02000313          	li	x6,32
    c0f0:	00a709b3          	add	x19,x14,x10
    c0f4:	41330933          	sub	x18,x6,x19
    c0f8:	db330ae3          	beq	x6,x19,beac <__umoddi3+0x1a8>
    c0fc:	01512a23          	sw	x21,20(x2)
    c100:	012696b3          	sll	x13,x13,x18
    c104:	01365ab3          	srl	x21,x12,x19
    c108:	00daeab3          	or	x21,x21,x13
    c10c:	01712623          	sw	x23,12(x2)
    c110:	01a12023          	sw	x26,0(x2)
    c114:	010adb93          	srl	x23,x21,0x10
    c118:	0135dd33          	srl	x26,x11,x19
    c11c:	01259733          	sll	x14,x11,x18
    c120:	0137d6b3          	srl	x13,x15,x19
    c124:	01912223          	sw	x25,4(x2)
    c128:	000b8593          	mv	x11,x23
    c12c:	000d0513          	mv	x10,x26
    c130:	010a9c93          	sll	x25,x21,0x10
    c134:	02812423          	sw	x8,40(x2)
    c138:	02912223          	sw	x9,36(x2)
    c13c:	01261433          	sll	x8,x12,x18
    c140:	012794b3          	sll	x9,x15,x18
    c144:	01412c23          	sw	x20,24(x2)
    c148:	01612823          	sw	x22,16(x2)
    c14c:	00e6ea33          	or	x20,x13,x14
    c150:	01812423          	sw	x24,8(x2)
    c154:	010cdc93          	srl	x25,x25,0x10
    c158:	c54ff0ef          	jal	b5ac <__hidden___udivsi3>
    c15c:	00050593          	mv	x11,x10
    c160:	00050b13          	mv	x22,x10
    c164:	000c8513          	mv	x10,x25
    c168:	c18ff0ef          	jal	b580 <__mulsi3>
    c16c:	00050c13          	mv	x24,x10
    c170:	000b8593          	mv	x11,x23
    c174:	000d0513          	mv	x10,x26
    c178:	c7cff0ef          	jal	b5f4 <__umodsi3>
    c17c:	01051513          	sll	x10,x10,0x10
    c180:	010a5793          	srl	x15,x20,0x10
    c184:	00a7e7b3          	or	x15,x15,x10
    c188:	0187fe63          	bgeu	x15,x24,c1a4 <__umoddi3+0x4a0>
    c18c:	00fa87b3          	add	x15,x21,x15
    c190:	fffb0713          	add	x14,x22,-1
    c194:	1957ee63          	bltu	x15,x21,c330 <__umoddi3+0x62c>
    c198:	1987fc63          	bgeu	x15,x24,c330 <__umoddi3+0x62c>
    c19c:	ffeb0b13          	add	x22,x22,-2
    c1a0:	015787b3          	add	x15,x15,x21
    c1a4:	41878c33          	sub	x24,x15,x24
    c1a8:	000b8593          	mv	x11,x23
    c1ac:	000c0513          	mv	x10,x24
    c1b0:	bfcff0ef          	jal	b5ac <__hidden___udivsi3>
    c1b4:	00050593          	mv	x11,x10
    c1b8:	00050d13          	mv	x26,x10
    c1bc:	000c8513          	mv	x10,x25
    c1c0:	bc0ff0ef          	jal	b580 <__mulsi3>
    c1c4:	00050793          	mv	x15,x10
    c1c8:	000b8593          	mv	x11,x23
    c1cc:	000c0513          	mv	x10,x24
    c1d0:	00078b93          	mv	x23,x15
    c1d4:	c20ff0ef          	jal	b5f4 <__umodsi3>
    c1d8:	010a1593          	sll	x11,x20,0x10
    c1dc:	01051513          	sll	x10,x10,0x10
    c1e0:	0105d593          	srl	x11,x11,0x10
    c1e4:	00a5e5b3          	or	x11,x11,x10
    c1e8:	0175fe63          	bgeu	x11,x23,c204 <__umoddi3+0x500>
    c1ec:	00ba85b3          	add	x11,x21,x11
    c1f0:	fffd0793          	add	x15,x26,-1
    c1f4:	1355ea63          	bltu	x11,x21,c328 <__umoddi3+0x624>
    c1f8:	1375f863          	bgeu	x11,x23,c328 <__umoddi3+0x624>
    c1fc:	ffed0d13          	add	x26,x26,-2
    c200:	015585b3          	add	x11,x11,x21
    c204:	010b1793          	sll	x15,x22,0x10
    c208:	00010e37          	lui	x28,0x10
    c20c:	01a7e7b3          	or	x15,x15,x26
    c210:	fffe0313          	add	x6,x28,-1 # ffff <load_fname_cheat+0x12b>
    c214:	0067f8b3          	and	x17,x15,x6
    c218:	00647333          	and	x6,x8,x6
    c21c:	41758733          	sub	x14,x11,x23
    c220:	0107d793          	srl	x15,x15,0x10
    c224:	01045e93          	srl	x29,x8,0x10
    c228:	00088513          	mv	x10,x17
    c22c:	00030593          	mv	x11,x6
    c230:	b50ff0ef          	jal	b580 <__mulsi3>
    c234:	00050813          	mv	x16,x10
    c238:	000e8593          	mv	x11,x29
    c23c:	00088513          	mv	x10,x17
    c240:	b40ff0ef          	jal	b580 <__mulsi3>
    c244:	00050893          	mv	x17,x10
    c248:	00030593          	mv	x11,x6
    c24c:	00078513          	mv	x10,x15
    c250:	b30ff0ef          	jal	b580 <__mulsi3>
    c254:	00050313          	mv	x6,x10
    c258:	000e8593          	mv	x11,x29
    c25c:	00078513          	mv	x10,x15
    c260:	b20ff0ef          	jal	b580 <__mulsi3>
    c264:	01085793          	srl	x15,x16,0x10
    c268:	006888b3          	add	x17,x17,x6
    c26c:	011787b3          	add	x15,x15,x17
    c270:	0067f463          	bgeu	x15,x6,c278 <__umoddi3+0x574>
    c274:	01c50533          	add	x10,x10,x28
    c278:	00010637          	lui	x12,0x10
    c27c:	fff60613          	add	x12,x12,-1 # ffff <load_fname_cheat+0x12b>
    c280:	0107d693          	srl	x13,x15,0x10
    c284:	00c7f7b3          	and	x15,x15,x12
    c288:	01079793          	sll	x15,x15,0x10
    c28c:	00c87833          	and	x16,x16,x12
    c290:	00a686b3          	add	x13,x13,x10
    c294:	010787b3          	add	x15,x15,x16
    c298:	06d76263          	bltu	x14,x13,c2fc <__umoddi3+0x5f8>
    c29c:	04d70e63          	beq	x14,x13,c2f8 <__umoddi3+0x5f4>
    c2a0:	40f487b3          	sub	x15,x9,x15
    c2a4:	00f4b4b3          	sltu	x9,x9,x15
    c2a8:	02812403          	lw	x8,40(x2)
    c2ac:	02c12083          	lw	x1,44(x2)
    c2b0:	40d705b3          	sub	x11,x14,x13
    c2b4:	409585b3          	sub	x11,x11,x9
    c2b8:	01359733          	sll	x14,x11,x19
    c2bc:	0127d7b3          	srl	x15,x15,x18
    c2c0:	02412483          	lw	x9,36(x2)
    c2c4:	01c12983          	lw	x19,28(x2)
    c2c8:	01812a03          	lw	x20,24(x2)
    c2cc:	01412a83          	lw	x21,20(x2)
    c2d0:	01012b03          	lw	x22,16(x2)
    c2d4:	00c12b83          	lw	x23,12(x2)
    c2d8:	00812c03          	lw	x24,8(x2)
    c2dc:	00412c83          	lw	x25,4(x2)
    c2e0:	00012d03          	lw	x26,0(x2)
    c2e4:	0125d5b3          	srl	x11,x11,x18
    c2e8:	00f76533          	or	x10,x14,x15
    c2ec:	02012903          	lw	x18,32(x2)
    c2f0:	03010113          	add	x2,x2,48
    c2f4:	00008067          	ret
    c2f8:	faf4f4e3          	bgeu	x9,x15,c2a0 <__umoddi3+0x59c>
    c2fc:	40878433          	sub	x8,x15,x8
    c300:	0087b7b3          	sltu	x15,x15,x8
    c304:	01578ab3          	add	x21,x15,x21
    c308:	415686b3          	sub	x13,x13,x21
    c30c:	00040793          	mv	x15,x8
    c310:	f91ff06f          	j	c2a0 <__umoddi3+0x59c>
    c314:	01000737          	lui	x14,0x1000
    c318:	02e67c63          	bgeu	x12,x14,c350 <__umoddi3+0x64c>
    c31c:	01065513          	srl	x10,x12,0x10
    c320:	01000693          	li	x13,16
    c324:	bd9ff06f          	j	befc <__umoddi3+0x1f8>
    c328:	00078d13          	mv	x26,x15
    c32c:	ed9ff06f          	j	c204 <__umoddi3+0x500>
    c330:	00070b13          	mv	x22,x14
    c334:	e71ff06f          	j	c1a4 <__umoddi3+0x4a0>
    c338:	014787b3          	add	x15,x15,x20
    c33c:	aedff06f          	j	be28 <__umoddi3+0x124>
    c340:	014787b3          	add	x15,x15,x20
    c344:	c2dff06f          	j	bf70 <__umoddi3+0x26c>
    c348:	014787b3          	add	x15,x15,x20
    c34c:	a91ff06f          	j	bddc <__umoddi3+0xd8>
    c350:	01865513          	srl	x10,x12,0x18
    c354:	01800693          	li	x13,24
    c358:	ba5ff06f          	j	befc <__umoddi3+0x1f8>

Disassembly of section .text.__adddf3:

0000c35c <__adddf3>:
    c35c:	001007b7          	lui	x15,0x100
    c360:	fe010113          	add	x2,x2,-32
    c364:	fff78e93          	add	x29,x15,-1 # fffff <_ebss+0xed54f>
    c368:	00bef833          	and	x16,x29,x11
    c36c:	00def7b3          	and	x15,x29,x13
    c370:	0146d313          	srl	x6,x13,0x14
    c374:	01212823          	sw	x18,16(x2)
    c378:	0145d913          	srl	x18,x11,0x14
    c37c:	00379793          	sll	x15,x15,0x3
    c380:	00812c23          	sw	x8,24(x2)
    c384:	00381813          	sll	x16,x16,0x3
    c388:	01f5d413          	srl	x8,x11,0x1f
    c38c:	01d55713          	srl	x14,x10,0x1d
    c390:	01d65893          	srl	x17,x12,0x1d
    c394:	7ff97913          	and	x18,x18,2047
    c398:	7ff37313          	and	x6,x6,2047
    c39c:	00112e23          	sw	x1,28(x2)
    c3a0:	00912a23          	sw	x9,20(x2)
    c3a4:	01312623          	sw	x19,12(x2)
    c3a8:	01f6d693          	srl	x13,x13,0x1f
    c3ac:	00f8e8b3          	or	x17,x17,x15
    c3b0:	01076733          	or	x14,x14,x16
    c3b4:	00351593          	sll	x11,x10,0x3
    c3b8:	00361f13          	sll	x30,x12,0x3
    c3bc:	406907b3          	sub	x15,x18,x6
    c3c0:	1ed40463          	beq	x8,x13,c5a8 <__adddf3+0x24c>
    c3c4:	16f05263          	blez	x15,c528 <__adddf3+0x1cc>
    c3c8:	28030663          	beqz	x6,c654 <__adddf3+0x2f8>
    c3cc:	7ff00693          	li	x13,2047
    c3d0:	42d90663          	beq	x18,x13,c7fc <__adddf3+0x4a0>
    c3d4:	03800693          	li	x13,56
    c3d8:	00100613          	li	x12,1
    c3dc:	02f6ce63          	blt	x13,x15,c418 <__adddf3+0xbc>
    c3e0:	008006b7          	lui	x13,0x800
    c3e4:	00d8e8b3          	or	x17,x17,x13
    c3e8:	01f00693          	li	x13,31
    c3ec:	52f6ce63          	blt	x13,x15,c928 <__adddf3+0x5cc>
    c3f0:	02000693          	li	x13,32
    c3f4:	40f686b3          	sub	x13,x13,x15
    c3f8:	00d89633          	sll	x12,x17,x13
    c3fc:	00ff5533          	srl	x10,x30,x15
    c400:	00df16b3          	sll	x13,x30,x13
    c404:	00a66633          	or	x12,x12,x10
    c408:	00d036b3          	snez	x13,x13
    c40c:	00f8d8b3          	srl	x17,x17,x15
    c410:	00d66633          	or	x12,x12,x13
    c414:	41170733          	sub	x14,x14,x17
    c418:	40c58633          	sub	x12,x11,x12
    c41c:	00c5b5b3          	sltu	x11,x11,x12
    c420:	00060493          	mv	x9,x12
    c424:	40b709b3          	sub	x19,x14,x11
    c428:	00899793          	sll	x15,x19,0x8
    c42c:	3207da63          	bgez	x15,c760 <__adddf3+0x404>
    c430:	008007b7          	lui	x15,0x800
    c434:	fff78793          	add	x15,x15,-1 # 7fffff <STACK_TOP+0x6fffff>
    c438:	00f9f9b3          	and	x19,x19,x15
    c43c:	2c098863          	beqz	x19,c70c <__adddf3+0x3b0>
    c440:	00098513          	mv	x10,x19
    c444:	548020ef          	jal	e98c <__clzsi2>
    c448:	ff850793          	add	x15,x10,-8
    c44c:	02000693          	li	x13,32
    c450:	40f68733          	sub	x14,x13,x15
    c454:	00e4d733          	srl	x14,x9,x14
    c458:	00f999b3          	sll	x19,x19,x15
    c45c:	01376733          	or	x14,x14,x19
    c460:	00f494b3          	sll	x9,x9,x15
    c464:	4b27c863          	blt	x15,x18,c914 <__adddf3+0x5b8>
    c468:	412787b3          	sub	x15,x15,x18
    c46c:	00178793          	add	x15,x15,1
    c470:	40f686b3          	sub	x13,x13,x15
    c474:	00d49633          	sll	x12,x9,x13
    c478:	00f4d9b3          	srl	x19,x9,x15
    c47c:	00c03633          	snez	x12,x12
    c480:	01366633          	or	x12,x12,x19
    c484:	00d716b3          	sll	x13,x14,x13
    c488:	00c6e4b3          	or	x9,x13,x12
    c48c:	00f759b3          	srl	x19,x14,x15
    c490:	00000913          	li	x18,0
    c494:	0074f793          	and	x15,x9,7
    c498:	02078063          	beqz	x15,c4b8 <__adddf3+0x15c>
    c49c:	00f4f793          	and	x15,x9,15
    c4a0:	00400713          	li	x14,4
    c4a4:	00e78a63          	beq	x15,x14,c4b8 <__adddf3+0x15c>
    c4a8:	00448793          	add	x15,x9,4
    c4ac:	0097b633          	sltu	x12,x15,x9
    c4b0:	00c989b3          	add	x19,x19,x12
    c4b4:	00078493          	mv	x9,x15
    c4b8:	00899793          	sll	x15,x19,0x8
    c4bc:	6e07da63          	bgez	x15,cbb0 <__adddf3+0x854>
    c4c0:	00190793          	add	x15,x18,1
    c4c4:	7ff00713          	li	x14,2047
    c4c8:	00040e13          	mv	x28,x8
    c4cc:	2ae78663          	beq	x15,x14,c778 <__adddf3+0x41c>
    c4d0:	ff800737          	lui	x14,0xff800
    c4d4:	fff70713          	add	x14,x14,-1 # ff7fffff <STACK_TOP+0xff6fffff>
    c4d8:	00e9f733          	and	x14,x19,x14
    c4dc:	7ff7f793          	and	x15,x15,2047
    c4e0:	01d71813          	sll	x16,x14,0x1d
    c4e4:	0034d613          	srl	x12,x9,0x3
    c4e8:	00971713          	sll	x14,x14,0x9
    c4ec:	00c86833          	or	x16,x16,x12
    c4f0:	00c75713          	srl	x14,x14,0xc
    c4f4:	01c12083          	lw	x1,28(x2)
    c4f8:	01812403          	lw	x8,24(x2)
    c4fc:	01479793          	sll	x15,x15,0x14
    c500:	00e7e7b3          	or	x15,x15,x14
    c504:	01fe1713          	sll	x14,x28,0x1f
    c508:	00e7e7b3          	or	x15,x15,x14
    c50c:	01412483          	lw	x9,20(x2)
    c510:	01012903          	lw	x18,16(x2)
    c514:	00c12983          	lw	x19,12(x2)
    c518:	00080513          	mv	x10,x16
    c51c:	00078593          	mv	x11,x15
    c520:	02010113          	add	x2,x2,32
    c524:	00008067          	ret
    c528:	14078c63          	beqz	x15,c680 <__adddf3+0x324>
    c52c:	412307b3          	sub	x15,x6,x18
    c530:	3c091263          	bnez	x18,c8f4 <__adddf3+0x598>
    c534:	00b76533          	or	x10,x14,x11
    c538:	4c050463          	beqz	x10,ca00 <__adddf3+0x6a4>
    c53c:	fff78513          	add	x10,x15,-1
    c540:	60050263          	beqz	x10,cb44 <__adddf3+0x7e8>
    c544:	7ff00813          	li	x16,2047
    c548:	57078663          	beq	x15,x16,cab4 <__adddf3+0x758>
    c54c:	03800793          	li	x15,56
    c550:	00100613          	li	x12,1
    c554:	02a7cc63          	blt	x15,x10,c58c <__adddf3+0x230>
    c558:	00050793          	mv	x15,x10
    c55c:	01f00613          	li	x12,31
    c560:	56f64c63          	blt	x12,x15,cad8 <__adddf3+0x77c>
    c564:	02000513          	li	x10,32
    c568:	40f50533          	sub	x10,x10,x15
    c56c:	00a71633          	sll	x12,x14,x10
    c570:	00f5d833          	srl	x16,x11,x15
    c574:	00a59533          	sll	x10,x11,x10
    c578:	01066633          	or	x12,x12,x16
    c57c:	00a03533          	snez	x10,x10
    c580:	00f75733          	srl	x14,x14,x15
    c584:	00a66633          	or	x12,x12,x10
    c588:	40e888b3          	sub	x17,x17,x14
    c58c:	40cf0633          	sub	x12,x30,x12
    c590:	00cf3733          	sltu	x14,x30,x12
    c594:	00060493          	mv	x9,x12
    c598:	40e889b3          	sub	x19,x17,x14
    c59c:	00030913          	mv	x18,x6
    c5a0:	00068413          	mv	x8,x13
    c5a4:	e85ff06f          	j	c428 <__adddf3+0xcc>
    c5a8:	1ef05063          	blez	x15,c788 <__adddf3+0x42c>
    c5ac:	14031063          	bnez	x6,c6ec <__adddf3+0x390>
    c5b0:	01e8e6b3          	or	x13,x17,x30
    c5b4:	26068c63          	beqz	x13,c82c <__adddf3+0x4d0>
    c5b8:	fff78693          	add	x13,x15,-1
    c5bc:	48068063          	beqz	x13,ca3c <__adddf3+0x6e0>
    c5c0:	7ff00613          	li	x12,2047
    c5c4:	22c78c63          	beq	x15,x12,c7fc <__adddf3+0x4a0>
    c5c8:	03800793          	li	x15,56
    c5cc:	00100993          	li	x19,1
    c5d0:	02d7cc63          	blt	x15,x13,c608 <__adddf3+0x2ac>
    c5d4:	00068793          	mv	x15,x13
    c5d8:	01f00693          	li	x13,31
    c5dc:	4af6c063          	blt	x13,x15,ca7c <__adddf3+0x720>
    c5e0:	02000693          	li	x13,32
    c5e4:	40f686b3          	sub	x13,x13,x15
    c5e8:	00d899b3          	sll	x19,x17,x13
    c5ec:	00ff5633          	srl	x12,x30,x15
    c5f0:	00df16b3          	sll	x13,x30,x13
    c5f4:	00c9e9b3          	or	x19,x19,x12
    c5f8:	00d036b3          	snez	x13,x13
    c5fc:	00f8d8b3          	srl	x17,x17,x15
    c600:	00d9e9b3          	or	x19,x19,x13
    c604:	01170733          	add	x14,x14,x17
    c608:	00b985b3          	add	x11,x19,x11
    c60c:	0135b9b3          	sltu	x19,x11,x19
    c610:	00058493          	mv	x9,x11
    c614:	00e989b3          	add	x19,x19,x14
    c618:	00899793          	sll	x15,x19,0x8
    c61c:	1407d263          	bgez	x15,c760 <__adddf3+0x404>
    c620:	00190913          	add	x18,x18,1
    c624:	7ff00793          	li	x15,2047
    c628:	36f90c63          	beq	x18,x15,c9a0 <__adddf3+0x644>
    c62c:	ff8007b7          	lui	x15,0xff800
    c630:	fff78793          	add	x15,x15,-1 # ff7fffff <STACK_TOP+0xff6fffff>
    c634:	0014f613          	and	x12,x9,1
    c638:	00f9f7b3          	and	x15,x19,x15
    c63c:	0014d713          	srl	x14,x9,0x1
    c640:	00c76733          	or	x14,x14,x12
    c644:	01f79613          	sll	x12,x15,0x1f
    c648:	00e664b3          	or	x9,x12,x14
    c64c:	0017d993          	srl	x19,x15,0x1
    c650:	e45ff06f          	j	c494 <__adddf3+0x138>
    c654:	01e8e6b3          	or	x13,x17,x30
    c658:	1c068a63          	beqz	x13,c82c <__adddf3+0x4d0>
    c65c:	fff78693          	add	x13,x15,-1
    c660:	40068063          	beqz	x13,ca60 <__adddf3+0x704>
    c664:	7ff00613          	li	x12,2047
    c668:	18c78a63          	beq	x15,x12,c7fc <__adddf3+0x4a0>
    c66c:	03800793          	li	x15,56
    c670:	00100613          	li	x12,1
    c674:	dad7c2e3          	blt	x15,x13,c418 <__adddf3+0xbc>
    c678:	00068793          	mv	x15,x13
    c67c:	d6dff06f          	j	c3e8 <__adddf3+0x8c>
    c680:	00190813          	add	x16,x18,1
    c684:	7fe87813          	and	x16,x16,2046
    c688:	22081c63          	bnez	x16,c8c0 <__adddf3+0x564>
    c68c:	00b76333          	or	x6,x14,x11
    c690:	01e8e833          	or	x16,x17,x30
    c694:	38091063          	bnez	x18,ca14 <__adddf3+0x6b8>
    c698:	46030e63          	beqz	x6,cb14 <__adddf3+0x7b8>
    c69c:	40080663          	beqz	x16,caa8 <__adddf3+0x74c>
    c6a0:	41e589b3          	sub	x19,x11,x30
    c6a4:	0135b533          	sltu	x10,x11,x19
    c6a8:	41170633          	sub	x12,x14,x17
    c6ac:	40a60633          	sub	x12,x12,x10
    c6b0:	00861513          	sll	x10,x12,0x8
    c6b4:	50055e63          	bgez	x10,cbd0 <__adddf3+0x874>
    c6b8:	40bf05b3          	sub	x11,x30,x11
    c6bc:	40e88733          	sub	x14,x17,x14
    c6c0:	00bf3f33          	sltu	x30,x30,x11
    c6c4:	41e70733          	sub	x14,x14,x30
    c6c8:	00871613          	sll	x12,x14,0x8
    c6cc:	00058493          	mv	x9,x11
    c6d0:	52065e63          	bgez	x12,cc0c <__adddf3+0x8b0>
    c6d4:	ff8007b7          	lui	x15,0xff800
    c6d8:	fff78793          	add	x15,x15,-1 # ff7fffff <STACK_TOP+0xff6fffff>
    c6dc:	00f77733          	and	x14,x14,x15
    c6e0:	00068e13          	mv	x28,x13
    c6e4:	00100793          	li	x15,1
    c6e8:	df9ff06f          	j	c4e0 <__adddf3+0x184>
    c6ec:	7ff00693          	li	x13,2047
    c6f0:	10d90663          	beq	x18,x13,c7fc <__adddf3+0x4a0>
    c6f4:	03800693          	li	x13,56
    c6f8:	00100993          	li	x19,1
    c6fc:	f0f6c6e3          	blt	x13,x15,c608 <__adddf3+0x2ac>
    c700:	008006b7          	lui	x13,0x800
    c704:	00d8e8b3          	or	x17,x17,x13
    c708:	ed1ff06f          	j	c5d8 <__adddf3+0x27c>
    c70c:	00048513          	mv	x10,x9
    c710:	27c020ef          	jal	e98c <__clzsi2>
    c714:	01850793          	add	x15,x10,24
    c718:	01f00693          	li	x13,31
    c71c:	d2f6d8e3          	bge	x13,x15,c44c <__adddf3+0xf0>
    c720:	ff850713          	add	x14,x10,-8
    c724:	00e49733          	sll	x14,x9,x14
    c728:	2327c663          	blt	x15,x18,c954 <__adddf3+0x5f8>
    c72c:	41278933          	sub	x18,x15,x18
    c730:	00190793          	add	x15,x18,1
    c734:	48f6d663          	bge	x13,x15,cbc0 <__adddf3+0x864>
    c738:	fe190913          	add	x18,x18,-31
    c73c:	02000693          	li	x13,32
    c740:	012754b3          	srl	x9,x14,x18
    c744:	00d78c63          	beq	x15,x13,c75c <__adddf3+0x400>
    c748:	04000693          	li	x13,64
    c74c:	40f687b3          	sub	x15,x13,x15
    c750:	00f71733          	sll	x14,x14,x15
    c754:	00e03733          	snez	x14,x14
    c758:	00e4e4b3          	or	x9,x9,x14
    c75c:	00000913          	li	x18,0
    c760:	0074f793          	and	x15,x9,7
    c764:	d2079ce3          	bnez	x15,c49c <__adddf3+0x140>
    c768:	00090793          	mv	x15,x18
    c76c:	0034d613          	srl	x12,x9,0x3
    c770:	00098713          	mv	x14,x19
    c774:	0c00006f          	j	c834 <__adddf3+0x4d8>
    c778:	7ff00793          	li	x15,2047
    c77c:	00000713          	li	x14,0
    c780:	00000813          	li	x16,0
    c784:	d71ff06f          	j	c4f4 <__adddf3+0x198>
    c788:	0c078a63          	beqz	x15,c85c <__adddf3+0x500>
    c78c:	412307b3          	sub	x15,x6,x18
    c790:	1e090263          	beqz	x18,c974 <__adddf3+0x618>
    c794:	7ff00693          	li	x13,2047
    c798:	32d30863          	beq	x6,x13,cac8 <__adddf3+0x76c>
    c79c:	03800693          	li	x13,56
    c7a0:	00100993          	li	x19,1
    c7a4:	02f6ce63          	blt	x13,x15,c7e0 <__adddf3+0x484>
    c7a8:	008006b7          	lui	x13,0x800
    c7ac:	00d76733          	or	x14,x14,x13
    c7b0:	01f00693          	li	x13,31
    c7b4:	3cf6c863          	blt	x13,x15,cb84 <__adddf3+0x828>
    c7b8:	02000693          	li	x13,32
    c7bc:	40f686b3          	sub	x13,x13,x15
    c7c0:	00d719b3          	sll	x19,x14,x13
    c7c4:	00f5d633          	srl	x12,x11,x15
    c7c8:	00d596b3          	sll	x13,x11,x13
    c7cc:	00c9e9b3          	or	x19,x19,x12
    c7d0:	00d036b3          	snez	x13,x13
    c7d4:	00f75733          	srl	x14,x14,x15
    c7d8:	00d9e9b3          	or	x19,x19,x13
    c7dc:	00e888b3          	add	x17,x17,x14
    c7e0:	01e98733          	add	x14,x19,x30
    c7e4:	013739b3          	sltu	x19,x14,x19
    c7e8:	00070493          	mv	x9,x14
    c7ec:	011989b3          	add	x19,x19,x17
    c7f0:	00030913          	mv	x18,x6
    c7f4:	e25ff06f          	j	c618 <__adddf3+0x2bc>
    c7f8:	02081063          	bnez	x16,c818 <__adddf3+0x4bc>
    c7fc:	00351613          	sll	x12,x10,0x3
    c800:	00365613          	srl	x12,x12,0x3
    c804:	01d71813          	sll	x16,x14,0x1d
    c808:	00c86833          	or	x16,x16,x12
    c80c:	00375713          	srl	x14,x14,0x3
    c810:	01076733          	or	x14,x14,x16
    c814:	18070663          	beqz	x14,c9a0 <__adddf3+0x644>
    c818:	00000e13          	li	x28,0
    c81c:	7ff00793          	li	x15,2047
    c820:	00080737          	lui	x14,0x80
    c824:	00000813          	li	x16,0
    c828:	ccdff06f          	j	c4f4 <__adddf3+0x198>
    c82c:	00351613          	sll	x12,x10,0x3
    c830:	00365613          	srl	x12,x12,0x3
    c834:	01d71813          	sll	x16,x14,0x1d
    c838:	7ff00693          	li	x13,2047
    c83c:	00c86833          	or	x16,x16,x12
    c840:	00375713          	srl	x14,x14,0x3
    c844:	fcd786e3          	beq	x15,x13,c810 <__adddf3+0x4b4>
    c848:	00c71713          	sll	x14,x14,0xc
    c84c:	00c75713          	srl	x14,x14,0xc
    c850:	7ff7f793          	and	x15,x15,2047
    c854:	00040e13          	mv	x28,x8
    c858:	c9dff06f          	j	c4f4 <__adddf3+0x198>
    c85c:	00190693          	add	x13,x18,1
    c860:	7fe6f813          	and	x16,x13,2046
    c864:	14081863          	bnez	x16,c9b4 <__adddf3+0x658>
    c868:	00b766b3          	or	x13,x14,x11
    c86c:	28091c63          	bnez	x18,cb04 <__adddf3+0x7a8>
    c870:	30068263          	beqz	x13,cb74 <__adddf3+0x818>
    c874:	01e8e6b3          	or	x13,x17,x30
    c878:	22068863          	beqz	x13,caa8 <__adddf3+0x74c>
    c87c:	01e587b3          	add	x15,x11,x30
    c880:	00b7b5b3          	sltu	x11,x15,x11
    c884:	01170733          	add	x14,x14,x17
    c888:	00b70733          	add	x14,x14,x11
    c88c:	0037d813          	srl	x16,x15,0x3
    c890:	00871793          	sll	x15,x14,0x8
    c894:	00040e13          	mv	x28,x8
    c898:	3407de63          	bgez	x15,cbf4 <__adddf3+0x898>
    c89c:	ff8007b7          	lui	x15,0xff800
    c8a0:	fff78793          	add	x15,x15,-1 # ff7fffff <STACK_TOP+0xff6fffff>
    c8a4:	00f77733          	and	x14,x14,x15
    c8a8:	01d71793          	sll	x15,x14,0x1d
    c8ac:	00375713          	srl	x14,x14,0x3
    c8b0:	0107e833          	or	x16,x15,x16
    c8b4:	01d77733          	and	x14,x14,x29
    c8b8:	00100793          	li	x15,1
    c8bc:	c39ff06f          	j	c4f4 <__adddf3+0x198>
    c8c0:	41e58833          	sub	x16,x11,x30
    c8c4:	0105b7b3          	sltu	x15,x11,x16
    c8c8:	411709b3          	sub	x19,x14,x17
    c8cc:	40f989b3          	sub	x19,x19,x15
    c8d0:	00899793          	sll	x15,x19,0x8
    c8d4:	00080493          	mv	x9,x16
    c8d8:	1007c663          	bltz	x15,c9e4 <__adddf3+0x688>
    c8dc:	01386833          	or	x16,x16,x19
    c8e0:	b4081ee3          	bnez	x16,c43c <__adddf3+0xe0>
    c8e4:	00000e13          	li	x28,0
    c8e8:	00000793          	li	x15,0
    c8ec:	00000713          	li	x14,0
    c8f0:	c05ff06f          	j	c4f4 <__adddf3+0x198>
    c8f4:	7ff00513          	li	x10,2047
    c8f8:	1aa30e63          	beq	x6,x10,cab4 <__adddf3+0x758>
    c8fc:	03800513          	li	x10,56
    c900:	00100613          	li	x12,1
    c904:	c8f544e3          	blt	x10,x15,c58c <__adddf3+0x230>
    c908:	00800637          	lui	x12,0x800
    c90c:	00c76733          	or	x14,x14,x12
    c910:	c4dff06f          	j	c55c <__adddf3+0x200>
    c914:	ff8009b7          	lui	x19,0xff800
    c918:	fff98993          	add	x19,x19,-1 # ff7fffff <STACK_TOP+0xff6fffff>
    c91c:	40f90933          	sub	x18,x18,x15
    c920:	013779b3          	and	x19,x14,x19
    c924:	b71ff06f          	j	c494 <__adddf3+0x138>
    c928:	fe078693          	add	x13,x15,-32
    c92c:	02000613          	li	x12,32
    c930:	00d8d6b3          	srl	x13,x17,x13
    c934:	00c78a63          	beq	x15,x12,c948 <__adddf3+0x5ec>
    c938:	04000613          	li	x12,64
    c93c:	40f607b3          	sub	x15,x12,x15
    c940:	00f897b3          	sll	x15,x17,x15
    c944:	00ff6f33          	or	x30,x30,x15
    c948:	01e03633          	snez	x12,x30
    c94c:	00d66633          	or	x12,x12,x13
    c950:	ac9ff06f          	j	c418 <__adddf3+0xbc>
    c954:	ff8006b7          	lui	x13,0xff800
    c958:	fff68693          	add	x13,x13,-1 # ff7fffff <STACK_TOP+0xff6fffff>
    c95c:	40f907b3          	sub	x15,x18,x15
    c960:	00d77733          	and	x14,x14,x13
    c964:	01d71813          	sll	x16,x14,0x1d
    c968:	01386833          	or	x16,x16,x19
    c96c:	00375713          	srl	x14,x14,0x3
    c970:	ed9ff06f          	j	c848 <__adddf3+0x4ec>
    c974:	00b766b3          	or	x13,x14,x11
    c978:	1e068663          	beqz	x13,cb64 <__adddf3+0x808>
    c97c:	fff78693          	add	x13,x15,-1
    c980:	0a068e63          	beqz	x13,ca3c <__adddf3+0x6e0>
    c984:	7ff00513          	li	x10,2047
    c988:	14a78063          	beq	x15,x10,cac8 <__adddf3+0x76c>
    c98c:	03800793          	li	x15,56
    c990:	00100993          	li	x19,1
    c994:	e4d7c6e3          	blt	x15,x13,c7e0 <__adddf3+0x484>
    c998:	00068793          	mv	x15,x13
    c99c:	e15ff06f          	j	c7b0 <__adddf3+0x454>
    c9a0:	00040e13          	mv	x28,x8
    c9a4:	7ff00793          	li	x15,2047
    c9a8:	00000713          	li	x14,0
    c9ac:	00000813          	li	x16,0
    c9b0:	b45ff06f          	j	c4f4 <__adddf3+0x198>
    c9b4:	7ff00793          	li	x15,2047
    c9b8:	fef684e3          	beq	x13,x15,c9a0 <__adddf3+0x644>
    c9bc:	01e58f33          	add	x30,x11,x30
    c9c0:	00bf35b3          	sltu	x11,x30,x11
    c9c4:	011707b3          	add	x15,x14,x17
    c9c8:	00b787b3          	add	x15,x15,x11
    c9cc:	01f79613          	sll	x12,x15,0x1f
    c9d0:	001f5f13          	srl	x30,x30,0x1
    c9d4:	01e664b3          	or	x9,x12,x30
    c9d8:	0017d993          	srl	x19,x15,0x1
    c9dc:	00068913          	mv	x18,x13
    c9e0:	ab5ff06f          	j	c494 <__adddf3+0x138>
    c9e4:	40bf0633          	sub	x12,x30,x11
    c9e8:	40e887b3          	sub	x15,x17,x14
    c9ec:	00cf3733          	sltu	x14,x30,x12
    c9f0:	00060493          	mv	x9,x12
    c9f4:	40e789b3          	sub	x19,x15,x14
    c9f8:	00068413          	mv	x8,x13
    c9fc:	a41ff06f          	j	c43c <__adddf3+0xe0>
    ca00:	00361613          	sll	x12,x12,0x3
    ca04:	00365613          	srl	x12,x12,0x3
    ca08:	00068413          	mv	x8,x13
    ca0c:	00088713          	mv	x14,x17
    ca10:	e25ff06f          	j	c834 <__adddf3+0x4d8>
    ca14:	de0312e3          	bnez	x6,c7f8 <__adddf3+0x49c>
    ca18:	1c080663          	beqz	x16,cbe4 <__adddf3+0x888>
    ca1c:	0038d713          	srl	x14,x17,0x3
    ca20:	00361613          	sll	x12,x12,0x3
    ca24:	01d89893          	sll	x17,x17,0x1d
    ca28:	01176733          	or	x14,x14,x17
    ca2c:	00365613          	srl	x12,x12,0x3
    ca30:	00c76733          	or	x14,x14,x12
    ca34:	00068413          	mv	x8,x13
    ca38:	dddff06f          	j	c814 <__adddf3+0x4b8>
    ca3c:	01e58f33          	add	x30,x11,x30
    ca40:	011708b3          	add	x17,x14,x17
    ca44:	00bf35b3          	sltu	x11,x30,x11
    ca48:	00b889b3          	add	x19,x17,x11
    ca4c:	00899793          	sll	x15,x19,0x8
    ca50:	000f0493          	mv	x9,x30
    ca54:	0e07d463          	bgez	x15,cb3c <__adddf3+0x7e0>
    ca58:	00200913          	li	x18,2
    ca5c:	bd1ff06f          	j	c62c <__adddf3+0x2d0>
    ca60:	41e58f33          	sub	x30,x11,x30
    ca64:	411708b3          	sub	x17,x14,x17
    ca68:	01e5b5b3          	sltu	x11,x11,x30
    ca6c:	000f0493          	mv	x9,x30
    ca70:	40b889b3          	sub	x19,x17,x11
    ca74:	00100913          	li	x18,1
    ca78:	9b1ff06f          	j	c428 <__adddf3+0xcc>
    ca7c:	fe078693          	add	x13,x15,-32
    ca80:	02000613          	li	x12,32
    ca84:	00d8d6b3          	srl	x13,x17,x13
    ca88:	00c78a63          	beq	x15,x12,ca9c <__adddf3+0x740>
    ca8c:	04000613          	li	x12,64
    ca90:	40f607b3          	sub	x15,x12,x15
    ca94:	00f897b3          	sll	x15,x17,x15
    ca98:	00ff6f33          	or	x30,x30,x15
    ca9c:	01e039b3          	snez	x19,x30
    caa0:	00d9e9b3          	or	x19,x19,x13
    caa4:	b65ff06f          	j	c608 <__adddf3+0x2ac>
    caa8:	00351613          	sll	x12,x10,0x3
    caac:	00365993          	srl	x19,x12,0x3
    cab0:	eb5ff06f          	j	c964 <__adddf3+0x608>
    cab4:	00361613          	sll	x12,x12,0x3
    cab8:	00365613          	srl	x12,x12,0x3
    cabc:	00068413          	mv	x8,x13
    cac0:	00088713          	mv	x14,x17
    cac4:	d41ff06f          	j	c804 <__adddf3+0x4a8>
    cac8:	00361613          	sll	x12,x12,0x3
    cacc:	00365613          	srl	x12,x12,0x3
    cad0:	00088713          	mv	x14,x17
    cad4:	d31ff06f          	j	c804 <__adddf3+0x4a8>
    cad8:	fe078513          	add	x10,x15,-32
    cadc:	02000613          	li	x12,32
    cae0:	00a75533          	srl	x10,x14,x10
    cae4:	00c78a63          	beq	x15,x12,caf8 <__adddf3+0x79c>
    cae8:	04000613          	li	x12,64
    caec:	40f607b3          	sub	x15,x12,x15
    caf0:	00f717b3          	sll	x15,x14,x15
    caf4:	00f5e5b3          	or	x11,x11,x15
    caf8:	00b03633          	snez	x12,x11
    cafc:	00a66633          	or	x12,x12,x10
    cb00:	a8dff06f          	j	c58c <__adddf3+0x230>
    cb04:	fc0682e3          	beqz	x13,cac8 <__adddf3+0x76c>
    cb08:	01e8ef33          	or	x30,x17,x30
    cb0c:	d00f16e3          	bnez	x30,c818 <__adddf3+0x4bc>
    cb10:	cedff06f          	j	c7fc <__adddf3+0x4a0>
    cb14:	dc0808e3          	beqz	x16,c8e4 <__adddf3+0x588>
    cb18:	00361813          	sll	x16,x12,0x3
    cb1c:	01d89793          	sll	x15,x17,0x1d
    cb20:	00385813          	srl	x16,x16,0x3
    cb24:	0038d713          	srl	x14,x17,0x3
    cb28:	00f86833          	or	x16,x16,x15
    cb2c:	01d77733          	and	x14,x14,x29
    cb30:	00068e13          	mv	x28,x13
    cb34:	00000793          	li	x15,0
    cb38:	9bdff06f          	j	c4f4 <__adddf3+0x198>
    cb3c:	00100793          	li	x15,1
    cb40:	c2dff06f          	j	c76c <__adddf3+0x410>
    cb44:	40bf05b3          	sub	x11,x30,x11
    cb48:	40e888b3          	sub	x17,x17,x14
    cb4c:	00bf3733          	sltu	x14,x30,x11
    cb50:	00058493          	mv	x9,x11
    cb54:	40e889b3          	sub	x19,x17,x14
    cb58:	00068413          	mv	x8,x13
    cb5c:	00100913          	li	x18,1
    cb60:	8c9ff06f          	j	c428 <__adddf3+0xcc>
    cb64:	00361613          	sll	x12,x12,0x3
    cb68:	00365613          	srl	x12,x12,0x3
    cb6c:	00088713          	mv	x14,x17
    cb70:	cc5ff06f          	j	c834 <__adddf3+0x4d8>
    cb74:	00361613          	sll	x12,x12,0x3
    cb78:	00365993          	srl	x19,x12,0x3
    cb7c:	00088713          	mv	x14,x17
    cb80:	de5ff06f          	j	c964 <__adddf3+0x608>
    cb84:	fe078693          	add	x13,x15,-32
    cb88:	02000613          	li	x12,32
    cb8c:	00d756b3          	srl	x13,x14,x13
    cb90:	00c78a63          	beq	x15,x12,cba4 <__adddf3+0x848>
    cb94:	04000613          	li	x12,64
    cb98:	40f607b3          	sub	x15,x12,x15
    cb9c:	00f717b3          	sll	x15,x14,x15
    cba0:	00f5e5b3          	or	x11,x11,x15
    cba4:	00b039b3          	snez	x19,x11
    cba8:	00d9e9b3          	or	x19,x19,x13
    cbac:	c35ff06f          	j	c7e0 <__adddf3+0x484>
    cbb0:	0034d613          	srl	x12,x9,0x3
    cbb4:	00090793          	mv	x15,x18
    cbb8:	00098713          	mv	x14,x19
    cbbc:	c79ff06f          	j	c834 <__adddf3+0x4d8>
    cbc0:	02000693          	li	x13,32
    cbc4:	40f686b3          	sub	x13,x13,x15
    cbc8:	00000613          	li	x12,0
    cbcc:	8b5ff06f          	j	c480 <__adddf3+0x124>
    cbd0:	00c9e833          	or	x16,x19,x12
    cbd4:	d00808e3          	beqz	x16,c8e4 <__adddf3+0x588>
    cbd8:	0039d993          	srl	x19,x19,0x3
    cbdc:	00060713          	mv	x14,x12
    cbe0:	d85ff06f          	j	c964 <__adddf3+0x608>
    cbe4:	00000e13          	li	x28,0
    cbe8:	7ff00793          	li	x15,2047
    cbec:	00080737          	lui	x14,0x80
    cbf0:	905ff06f          	j	c4f4 <__adddf3+0x198>
    cbf4:	01d71793          	sll	x15,x14,0x1d
    cbf8:	00375713          	srl	x14,x14,0x3
    cbfc:	0107e833          	or	x16,x15,x16
    cc00:	01d77733          	and	x14,x14,x29
    cc04:	00000793          	li	x15,0
    cc08:	8edff06f          	j	c4f4 <__adddf3+0x198>
    cc0c:	01d71813          	sll	x16,x14,0x1d
    cc10:	0035d593          	srl	x11,x11,0x3
    cc14:	00b86833          	or	x16,x16,x11
    cc18:	00375713          	srl	x14,x14,0x3
    cc1c:	00068413          	mv	x8,x13
    cc20:	c29ff06f          	j	c848 <__adddf3+0x4ec>

Disassembly of section .text.__divdf3:

0000cc24 <__divdf3>:
    cc24:	fb010113          	add	x2,x2,-80
    cc28:	0145d793          	srl	x15,x11,0x14
    cc2c:	04812423          	sw	x8,72(x2)
    cc30:	04912223          	sw	x9,68(x2)
    cc34:	05212023          	sw	x18,64(x2)
    cc38:	03412c23          	sw	x20,56(x2)
    cc3c:	03512a23          	sw	x21,52(x2)
    cc40:	00c59493          	sll	x9,x11,0xc
    cc44:	04112623          	sw	x1,76(x2)
    cc48:	03312e23          	sw	x19,60(x2)
    cc4c:	03612823          	sw	x22,48(x2)
    cc50:	03712623          	sw	x23,44(x2)
    cc54:	03812423          	sw	x24,40(x2)
    cc58:	7ff7f793          	and	x15,x15,2047
    cc5c:	00050413          	mv	x8,x10
    cc60:	00060a13          	mv	x20,x12
    cc64:	00068913          	mv	x18,x13
    cc68:	00c4d493          	srl	x9,x9,0xc
    cc6c:	01f5da93          	srl	x21,x11,0x1f
    cc70:	18078c63          	beqz	x15,ce08 <__divdf3+0x1e4>
    cc74:	7ff00713          	li	x14,2047
    cc78:	08e78a63          	beq	x15,x14,cd0c <__divdf3+0xe8>
    cc7c:	01d55b13          	srl	x22,x10,0x1d
    cc80:	00349493          	sll	x9,x9,0x3
    cc84:	009b64b3          	or	x9,x22,x9
    cc88:	00800737          	lui	x14,0x800
    cc8c:	00e4eb33          	or	x22,x9,x14
    cc90:	00351b93          	sll	x23,x10,0x3
    cc94:	c0178993          	add	x19,x15,-1023
    cc98:	00000493          	li	x9,0
    cc9c:	00000c13          	li	x24,0
    cca0:	01495793          	srl	x15,x18,0x14
    cca4:	00c91413          	sll	x8,x18,0xc
    cca8:	7ff7f793          	and	x15,x15,2047
    ccac:	00c45413          	srl	x8,x8,0xc
    ccb0:	01f95913          	srl	x18,x18,0x1f
    ccb4:	08078463          	beqz	x15,cd3c <__divdf3+0x118>
    ccb8:	7ff00713          	li	x14,2047
    ccbc:	18e78c63          	beq	x15,x14,ce54 <__divdf3+0x230>
    ccc0:	00341413          	sll	x8,x8,0x3
    ccc4:	01da5713          	srl	x14,x20,0x1d
    ccc8:	00876733          	or	x14,x14,x8
    cccc:	c0178793          	add	x15,x15,-1023
    ccd0:	00800437          	lui	x8,0x800
    ccd4:	40f989b3          	sub	x19,x19,x15
    ccd8:	00876433          	or	x8,x14,x8
    ccdc:	003a1813          	sll	x16,x20,0x3
    cce0:	00000793          	li	x15,0
    cce4:	00f00713          	li	x14,15
    cce8:	012aca33          	xor	x20,x21,x18
    ccec:	24976663          	bltu	x14,x9,cf38 <__divdf3+0x314>
    ccf0:	00003697          	auipc	x13,0x3
    ccf4:	bec68693          	add	x13,x13,-1044 # f8dc <cvt1.1+0x3e4>
    ccf8:	00249493          	sll	x9,x9,0x2
    ccfc:	00d484b3          	add	x9,x9,x13
    cd00:	0004a703          	lw	x14,0(x9)
    cd04:	00d70733          	add	x14,x14,x13
    cd08:	00070067          	jr	x14 # 800000 <STACK_TOP+0x700000>
    cd0c:	00a4eb33          	or	x22,x9,x10
    cd10:	1c0b1e63          	bnez	x22,ceec <__divdf3+0x2c8>
    cd14:	01495793          	srl	x15,x18,0x14
    cd18:	00c91413          	sll	x8,x18,0xc
    cd1c:	7ff7f793          	and	x15,x15,2047
    cd20:	00000b93          	li	x23,0
    cd24:	00800493          	li	x9,8
    cd28:	7ff00993          	li	x19,2047
    cd2c:	00200c13          	li	x24,2
    cd30:	00c45413          	srl	x8,x8,0xc
    cd34:	01f95913          	srl	x18,x18,0x1f
    cd38:	f80790e3          	bnez	x15,ccb8 <__divdf3+0x94>
    cd3c:	01446833          	or	x16,x8,x20
    cd40:	1c080263          	beqz	x16,cf04 <__divdf3+0x2e0>
    cd44:	5c040663          	beqz	x8,d310 <__divdf3+0x6ec>
    cd48:	00040513          	mv	x10,x8
    cd4c:	441010ef          	jal	e98c <__clzsi2>
    cd50:	00050793          	mv	x15,x10
    cd54:	ff550693          	add	x13,x10,-11
    cd58:	01d00713          	li	x14,29
    cd5c:	ff878813          	add	x16,x15,-8
    cd60:	40d70733          	sub	x14,x14,x13
    cd64:	01041433          	sll	x8,x8,x16
    cd68:	00ea5733          	srl	x14,x20,x14
    cd6c:	00876433          	or	x8,x14,x8
    cd70:	010a1833          	sll	x16,x20,x16
    cd74:	013787b3          	add	x15,x15,x19
    cd78:	3f378993          	add	x19,x15,1011
    cd7c:	00000793          	li	x15,0
    cd80:	f65ff06f          	j	cce4 <__divdf3+0xc0>
    cd84:	40f70733          	sub	x14,x14,x15
    cd88:	03800693          	li	x13,56
    cd8c:	60e6d063          	bge	x13,x14,d38c <__divdf3+0x768>
    cd90:	00000793          	li	x15,0
    cd94:	00000693          	li	x13,0
    cd98:	00000713          	li	x14,0
    cd9c:	04c12083          	lw	x1,76(x2)
    cda0:	04812403          	lw	x8,72(x2)
    cda4:	01479793          	sll	x15,x15,0x14
    cda8:	00d7e7b3          	or	x15,x15,x13
    cdac:	01fa1693          	sll	x13,x20,0x1f
    cdb0:	00d7e7b3          	or	x15,x15,x13
    cdb4:	04412483          	lw	x9,68(x2)
    cdb8:	04012903          	lw	x18,64(x2)
    cdbc:	03c12983          	lw	x19,60(x2)
    cdc0:	03812a03          	lw	x20,56(x2)
    cdc4:	03412a83          	lw	x21,52(x2)
    cdc8:	03012b03          	lw	x22,48(x2)
    cdcc:	02c12b83          	lw	x23,44(x2)
    cdd0:	02812c03          	lw	x24,40(x2)
    cdd4:	00070513          	mv	x10,x14
    cdd8:	00078593          	mv	x11,x15
    cddc:	05010113          	add	x2,x2,80
    cde0:	00008067          	ret
    cde4:	7ff00793          	li	x15,2047
    cde8:	00000693          	li	x13,0
    cdec:	00000713          	li	x14,0
    cdf0:	fadff06f          	j	cd9c <__divdf3+0x178>
    cdf4:	00000a13          	li	x20,0
    cdf8:	7ff00793          	li	x15,2047
    cdfc:	000806b7          	lui	x13,0x80
    ce00:	00000713          	li	x14,0
    ce04:	f99ff06f          	j	cd9c <__divdf3+0x178>
    ce08:	00a4eb33          	or	x22,x9,x10
    ce0c:	100b0c63          	beqz	x22,cf24 <__divdf3+0x300>
    ce10:	52048463          	beqz	x9,d338 <__divdf3+0x714>
    ce14:	00048513          	mv	x10,x9
    ce18:	375010ef          	jal	e98c <__clzsi2>
    ce1c:	00050713          	mv	x14,x10
    ce20:	ff550793          	add	x15,x10,-11
    ce24:	01d00b13          	li	x22,29
    ce28:	ff870b93          	add	x23,x14,-8
    ce2c:	40fb0b33          	sub	x22,x22,x15
    ce30:	017494b3          	sll	x9,x9,x23
    ce34:	01645b33          	srl	x22,x8,x22
    ce38:	009b6b33          	or	x22,x22,x9
    ce3c:	01741bb3          	sll	x23,x8,x23
    ce40:	c0d00793          	li	x15,-1011
    ce44:	40e789b3          	sub	x19,x15,x14
    ce48:	00000493          	li	x9,0
    ce4c:	00000c13          	li	x24,0
    ce50:	e51ff06f          	j	cca0 <__divdf3+0x7c>
    ce54:	01446833          	or	x16,x8,x20
    ce58:	80198993          	add	x19,x19,-2047
    ce5c:	0a081c63          	bnez	x16,cf14 <__divdf3+0x2f0>
    ce60:	0024e493          	or	x9,x9,2
    ce64:	00000413          	li	x8,0
    ce68:	00200793          	li	x15,2
    ce6c:	e79ff06f          	j	cce4 <__divdf3+0xc0>
    ce70:	000a8913          	mv	x18,x21
    ce74:	000b0413          	mv	x8,x22
    ce78:	000b8813          	mv	x16,x23
    ce7c:	00200793          	li	x15,2
    ce80:	60fc0863          	beq	x24,x15,d490 <__divdf3+0x86c>
    ce84:	00300793          	li	x15,3
    ce88:	f6fc06e3          	beq	x24,x15,cdf4 <__divdf3+0x1d0>
    ce8c:	00100793          	li	x15,1
    ce90:	00090a13          	mv	x20,x18
    ce94:	eefc0ee3          	beq	x24,x15,cd90 <__divdf3+0x16c>
    ce98:	3ff98793          	add	x15,x19,1023
    ce9c:	3cf05263          	blez	x15,d260 <__divdf3+0x63c>
    cea0:	00787713          	and	x14,x16,7
    cea4:	5c071663          	bnez	x14,d470 <__divdf3+0x84c>
    cea8:	00741713          	sll	x14,x8,0x7
    ceac:	00075a63          	bgez	x14,cec0 <__divdf3+0x29c>
    ceb0:	ff0007b7          	lui	x15,0xff000
    ceb4:	fff78793          	add	x15,x15,-1 # feffffff <STACK_TOP+0xfeefffff>
    ceb8:	00f47433          	and	x8,x8,x15
    cebc:	40098793          	add	x15,x19,1024
    cec0:	7fe00713          	li	x14,2046
    cec4:	f2f740e3          	blt	x14,x15,cde4 <__divdf3+0x1c0>
    cec8:	00385813          	srl	x16,x16,0x3
    cecc:	01d41713          	sll	x14,x8,0x1d
    ced0:	00941693          	sll	x13,x8,0x9
    ced4:	01076733          	or	x14,x14,x16
    ced8:	00c6d693          	srl	x13,x13,0xc
    cedc:	7ff7f793          	and	x15,x15,2047
    cee0:	ebdff06f          	j	cd9c <__divdf3+0x178>
    cee4:	00078c13          	mv	x24,x15
    cee8:	f95ff06f          	j	ce7c <__divdf3+0x258>
    ceec:	00048b13          	mv	x22,x9
    cef0:	00050b93          	mv	x23,x10
    cef4:	00c00493          	li	x9,12
    cef8:	7ff00993          	li	x19,2047
    cefc:	00300c13          	li	x24,3
    cf00:	da1ff06f          	j	cca0 <__divdf3+0x7c>
    cf04:	0014e493          	or	x9,x9,1
    cf08:	00000413          	li	x8,0
    cf0c:	00100793          	li	x15,1
    cf10:	dd5ff06f          	j	cce4 <__divdf3+0xc0>
    cf14:	0034e493          	or	x9,x9,3
    cf18:	000a0813          	mv	x16,x20
    cf1c:	00300793          	li	x15,3
    cf20:	dc5ff06f          	j	cce4 <__divdf3+0xc0>
    cf24:	00000b93          	li	x23,0
    cf28:	00400493          	li	x9,4
    cf2c:	00000993          	li	x19,0
    cf30:	00100c13          	li	x24,1
    cf34:	d6dff06f          	j	cca0 <__divdf3+0x7c>
    cf38:	03912223          	sw	x25,36(x2)
    cf3c:	03a12023          	sw	x26,32(x2)
    cf40:	01b12e23          	sw	x27,28(x2)
    cf44:	3b646a63          	bltu	x8,x22,d2f8 <__divdf3+0x6d4>
    cf48:	3a8b0663          	beq	x22,x8,d2f4 <__divdf3+0x6d0>
    cf4c:	fff98993          	add	x19,x19,-1
    cf50:	000b8c13          	mv	x24,x23
    cf54:	000b0493          	mv	x9,x22
    cf58:	00000d13          	li	x26,0
    cf5c:	01885c93          	srl	x25,x16,0x18
    cf60:	00841413          	sll	x8,x8,0x8
    cf64:	01045913          	srl	x18,x8,0x10
    cf68:	008cecb3          	or	x25,x25,x8
    cf6c:	00090593          	mv	x11,x18
    cf70:	00048513          	mv	x10,x9
    cf74:	010c9b13          	sll	x22,x25,0x10
    cf78:	00881a93          	sll	x21,x16,0x8
    cf7c:	010b5b13          	srl	x22,x22,0x10
    cf80:	e2cfe0ef          	jal	b5ac <__hidden___udivsi3>
    cf84:	00050593          	mv	x11,x10
    cf88:	00050413          	mv	x8,x10
    cf8c:	000b0513          	mv	x10,x22
    cf90:	df0fe0ef          	jal	b580 <__mulsi3>
    cf94:	00050793          	mv	x15,x10
    cf98:	00090593          	mv	x11,x18
    cf9c:	00048513          	mv	x10,x9
    cfa0:	00078493          	mv	x9,x15
    cfa4:	e50fe0ef          	jal	b5f4 <__umodsi3>
    cfa8:	01051513          	sll	x10,x10,0x10
    cfac:	010c5793          	srl	x15,x24,0x10
    cfb0:	00a7e7b3          	or	x15,x15,x10
    cfb4:	0097fa63          	bgeu	x15,x9,cfc8 <__divdf3+0x3a4>
    cfb8:	00fc87b3          	add	x15,x25,x15
    cfbc:	fff40713          	add	x14,x8,-1 # 7fffff <STACK_TOP+0x6fffff>
    cfc0:	3b97fe63          	bgeu	x15,x25,d37c <__divdf3+0x758>
    cfc4:	00070413          	mv	x8,x14
    cfc8:	409784b3          	sub	x9,x15,x9
    cfcc:	00090593          	mv	x11,x18
    cfd0:	00048513          	mv	x10,x9
    cfd4:	dd8fe0ef          	jal	b5ac <__hidden___udivsi3>
    cfd8:	00050593          	mv	x11,x10
    cfdc:	00050b93          	mv	x23,x10
    cfe0:	000b0513          	mv	x10,x22
    cfe4:	d9cfe0ef          	jal	b580 <__mulsi3>
    cfe8:	00050793          	mv	x15,x10
    cfec:	00090593          	mv	x11,x18
    cff0:	00048513          	mv	x10,x9
    cff4:	00078493          	mv	x9,x15
    cff8:	dfcfe0ef          	jal	b5f4 <__umodsi3>
    cffc:	010c1793          	sll	x15,x24,0x10
    d000:	01051513          	sll	x10,x10,0x10
    d004:	0107d793          	srl	x15,x15,0x10
    d008:	00a7e7b3          	or	x15,x15,x10
    d00c:	0097fa63          	bgeu	x15,x9,d020 <__divdf3+0x3fc>
    d010:	00fc87b3          	add	x15,x25,x15
    d014:	fffb8713          	add	x14,x23,-1
    d018:	3597fa63          	bgeu	x15,x25,d36c <__divdf3+0x748>
    d01c:	00070b93          	mv	x23,x14
    d020:	00010337          	lui	x6,0x10
    d024:	01041413          	sll	x8,x8,0x10
    d028:	01746433          	or	x8,x8,x23
    d02c:	fff30d93          	add	x27,x6,-1 # ffff <load_fname_cheat+0x12b>
    d030:	01b478b3          	and	x17,x8,x27
    d034:	01bafdb3          	and	x27,x21,x27
    d038:	40978bb3          	sub	x23,x15,x9
    d03c:	010adc13          	srl	x24,x21,0x10
    d040:	01045793          	srl	x15,x8,0x10
    d044:	00088513          	mv	x10,x17
    d048:	000d8593          	mv	x11,x27
    d04c:	d34fe0ef          	jal	b580 <__mulsi3>
    d050:	00050813          	mv	x16,x10
    d054:	000c0593          	mv	x11,x24
    d058:	00088513          	mv	x10,x17
    d05c:	d24fe0ef          	jal	b580 <__mulsi3>
    d060:	00050893          	mv	x17,x10
    d064:	000d8593          	mv	x11,x27
    d068:	00078513          	mv	x10,x15
    d06c:	d14fe0ef          	jal	b580 <__mulsi3>
    d070:	00050e13          	mv	x28,x10
    d074:	000c0593          	mv	x11,x24
    d078:	00078513          	mv	x10,x15
    d07c:	d04fe0ef          	jal	b580 <__mulsi3>
    d080:	01085793          	srl	x15,x16,0x10
    d084:	01c888b3          	add	x17,x17,x28
    d088:	011787b3          	add	x15,x15,x17
    d08c:	01c7f463          	bgeu	x15,x28,d094 <__divdf3+0x470>
    d090:	00650533          	add	x10,x10,x6
    d094:	00010637          	lui	x12,0x10
    d098:	fff60613          	add	x12,x12,-1 # ffff <load_fname_cheat+0x12b>
    d09c:	00c7f4b3          	and	x9,x15,x12
    d0a0:	0107d693          	srl	x13,x15,0x10
    d0a4:	01049493          	sll	x9,x9,0x10
    d0a8:	00c87833          	and	x16,x16,x12
    d0ac:	00a687b3          	add	x15,x13,x10
    d0b0:	010484b3          	add	x9,x9,x16
    d0b4:	20fbea63          	bltu	x23,x15,d2c8 <__divdf3+0x6a4>
    d0b8:	20fb8663          	beq	x23,x15,d2c4 <__divdf3+0x6a0>
    d0bc:	409d04b3          	sub	x9,x26,x9
    d0c0:	40fb8bb3          	sub	x23,x23,x15
    d0c4:	009d3d33          	sltu	x26,x26,x9
    d0c8:	41ab8bb3          	sub	x23,x23,x26
    d0cc:	377c8a63          	beq	x25,x23,d440 <__divdf3+0x81c>
    d0d0:	00090593          	mv	x11,x18
    d0d4:	000b8513          	mv	x10,x23
    d0d8:	cd4fe0ef          	jal	b5ac <__hidden___udivsi3>
    d0dc:	00050593          	mv	x11,x10
    d0e0:	00a12623          	sw	x10,12(x2)
    d0e4:	00050d13          	mv	x26,x10
    d0e8:	000b0513          	mv	x10,x22
    d0ec:	c94fe0ef          	jal	b580 <__mulsi3>
    d0f0:	00050793          	mv	x15,x10
    d0f4:	00090593          	mv	x11,x18
    d0f8:	000b8513          	mv	x10,x23
    d0fc:	00078b93          	mv	x23,x15
    d100:	cf4fe0ef          	jal	b5f4 <__umodsi3>
    d104:	01051513          	sll	x10,x10,0x10
    d108:	0104d793          	srl	x15,x9,0x10
    d10c:	00a7e7b3          	or	x15,x15,x10
    d110:	0377f063          	bgeu	x15,x23,d130 <__divdf3+0x50c>
    d114:	00fc87b3          	add	x15,x25,x15
    d118:	fffd0693          	add	x13,x26,-1
    d11c:	3797e263          	bltu	x15,x25,d480 <__divdf3+0x85c>
    d120:	3777f063          	bgeu	x15,x23,d480 <__divdf3+0x85c>
    d124:	ffed0713          	add	x14,x26,-2
    d128:	00e12623          	sw	x14,12(x2)
    d12c:	019787b3          	add	x15,x15,x25
    d130:	41778bb3          	sub	x23,x15,x23
    d134:	00090593          	mv	x11,x18
    d138:	000b8513          	mv	x10,x23
    d13c:	c70fe0ef          	jal	b5ac <__hidden___udivsi3>
    d140:	00050593          	mv	x11,x10
    d144:	00050d13          	mv	x26,x10
    d148:	000b0513          	mv	x10,x22
    d14c:	c34fe0ef          	jal	b580 <__mulsi3>
    d150:	00050793          	mv	x15,x10
    d154:	00090593          	mv	x11,x18
    d158:	000b8513          	mv	x10,x23
    d15c:	00078913          	mv	x18,x15
    d160:	01049493          	sll	x9,x9,0x10
    d164:	c90fe0ef          	jal	b5f4 <__umodsi3>
    d168:	01051513          	sll	x10,x10,0x10
    d16c:	0104d493          	srl	x9,x9,0x10
    d170:	00a4e4b3          	or	x9,x9,x10
    d174:	0124fe63          	bgeu	x9,x18,d190 <__divdf3+0x56c>
    d178:	009c84b3          	add	x9,x25,x9
    d17c:	fffd0793          	add	x15,x26,-1
    d180:	3194e463          	bltu	x9,x25,d488 <__divdf3+0x864>
    d184:	3124f263          	bgeu	x9,x18,d488 <__divdf3+0x864>
    d188:	ffed0d13          	add	x26,x26,-2
    d18c:	019484b3          	add	x9,x9,x25
    d190:	00c12783          	lw	x15,12(x2)
    d194:	412484b3          	sub	x9,x9,x18
    d198:	000d8593          	mv	x11,x27
    d19c:	01079813          	sll	x16,x15,0x10
    d1a0:	01a86833          	or	x16,x16,x26
    d1a4:	01081313          	sll	x6,x16,0x10
    d1a8:	01035313          	srl	x6,x6,0x10
    d1ac:	01085793          	srl	x15,x16,0x10
    d1b0:	00030513          	mv	x10,x6
    d1b4:	bccfe0ef          	jal	b580 <__mulsi3>
    d1b8:	00050893          	mv	x17,x10
    d1bc:	000c0593          	mv	x11,x24
    d1c0:	00030513          	mv	x10,x6
    d1c4:	bbcfe0ef          	jal	b580 <__mulsi3>
    d1c8:	00050313          	mv	x6,x10
    d1cc:	000d8593          	mv	x11,x27
    d1d0:	00078513          	mv	x10,x15
    d1d4:	bacfe0ef          	jal	b580 <__mulsi3>
    d1d8:	00050e13          	mv	x28,x10
    d1dc:	000c0593          	mv	x11,x24
    d1e0:	00078513          	mv	x10,x15
    d1e4:	b9cfe0ef          	jal	b580 <__mulsi3>
    d1e8:	0108d793          	srl	x15,x17,0x10
    d1ec:	01c30333          	add	x6,x6,x28
    d1f0:	006787b3          	add	x15,x15,x6
    d1f4:	01c7f663          	bgeu	x15,x28,d200 <__divdf3+0x5dc>
    d1f8:	00010737          	lui	x14,0x10
    d1fc:	00e50533          	add	x10,x10,x14
    d200:	000106b7          	lui	x13,0x10
    d204:	fff68693          	add	x13,x13,-1 # ffff <load_fname_cheat+0x12b>
    d208:	0107d713          	srl	x14,x15,0x10
    d20c:	00d7f7b3          	and	x15,x15,x13
    d210:	01079793          	sll	x15,x15,0x10
    d214:	00d8f8b3          	and	x17,x17,x13
    d218:	00a70733          	add	x14,x14,x10
    d21c:	011787b3          	add	x15,x15,x17
    d220:	02e4e063          	bltu	x9,x14,d240 <__divdf3+0x61c>
    d224:	00e48c63          	beq	x9,x14,d23c <__divdf3+0x618>
    d228:	02412c83          	lw	x25,36(x2)
    d22c:	02012d03          	lw	x26,32(x2)
    d230:	01c12d83          	lw	x27,28(x2)
    d234:	00186813          	or	x16,x16,1
    d238:	c61ff06f          	j	ce98 <__divdf3+0x274>
    d23c:	1c078a63          	beqz	x15,d410 <__divdf3+0x7ec>
    d240:	009c84b3          	add	x9,x25,x9
    d244:	fff80613          	add	x12,x16,-1
    d248:	00048693          	mv	x13,x9
    d24c:	1b94ec63          	bltu	x9,x25,d404 <__divdf3+0x7e0>
    d250:	24e4ea63          	bltu	x9,x14,d4a4 <__divdf3+0x880>
    d254:	26e48863          	beq	x9,x14,d4c4 <__divdf3+0x8a0>
    d258:	00060813          	mv	x16,x12
    d25c:	fcdff06f          	j	d228 <__divdf3+0x604>
    d260:	00100713          	li	x14,1
    d264:	b20790e3          	bnez	x15,cd84 <__divdf3+0x160>
    d268:	41e98793          	add	x15,x19,1054
    d26c:	00f816b3          	sll	x13,x16,x15
    d270:	00d036b3          	snez	x13,x13
    d274:	00f417b3          	sll	x15,x8,x15
    d278:	00f6e7b3          	or	x15,x13,x15
    d27c:	00e85833          	srl	x16,x16,x14
    d280:	00f86833          	or	x16,x16,x15
    d284:	00787793          	and	x15,x16,7
    d288:	00e45433          	srl	x8,x8,x14
    d28c:	02078063          	beqz	x15,d2ac <__divdf3+0x688>
    d290:	00f87793          	and	x15,x16,15
    d294:	00400713          	li	x14,4
    d298:	00e78a63          	beq	x15,x14,d2ac <__divdf3+0x688>
    d29c:	00480793          	add	x15,x16,4
    d2a0:	0107b833          	sltu	x16,x15,x16
    d2a4:	01040433          	add	x8,x8,x16
    d2a8:	00078813          	mv	x16,x15
    d2ac:	00841613          	sll	x12,x8,0x8
    d2b0:	00100793          	li	x15,1
    d2b4:	00000693          	li	x13,0
    d2b8:	00000713          	li	x14,0
    d2bc:	ae0640e3          	bltz	x12,cd9c <__divdf3+0x178>
    d2c0:	1280006f          	j	d3e8 <__divdf3+0x7c4>
    d2c4:	de9d7ce3          	bgeu	x26,x9,d0bc <__divdf3+0x498>
    d2c8:	015d06b3          	add	x13,x26,x21
    d2cc:	01a6b633          	sltu	x12,x13,x26
    d2d0:	019605b3          	add	x11,x12,x25
    d2d4:	00bb8bb3          	add	x23,x23,x11
    d2d8:	00068d13          	mv	x26,x13
    d2dc:	fff40593          	add	x11,x8,-1
    d2e0:	077cfe63          	bgeu	x25,x23,d35c <__divdf3+0x738>
    d2e4:	14fbe063          	bltu	x23,x15,d424 <__divdf3+0x800>
    d2e8:	13778c63          	beq	x15,x23,d420 <__divdf3+0x7fc>
    d2ec:	00058413          	mv	x8,x11
    d2f0:	dcdff06f          	j	d0bc <__divdf3+0x498>
    d2f4:	c50bece3          	bltu	x23,x16,cf4c <__divdf3+0x328>
    d2f8:	01fb1c13          	sll	x24,x22,0x1f
    d2fc:	001bd713          	srl	x14,x23,0x1
    d300:	001b5493          	srl	x9,x22,0x1
    d304:	00ec6c33          	or	x24,x24,x14
    d308:	01fb9d13          	sll	x26,x23,0x1f
    d30c:	c51ff06f          	j	cf5c <__divdf3+0x338>
    d310:	000a0513          	mv	x10,x20
    d314:	678010ef          	jal	e98c <__clzsi2>
    d318:	01550693          	add	x13,x10,21
    d31c:	01c00713          	li	x14,28
    d320:	02050793          	add	x15,x10,32
    d324:	a2d75ae3          	bge	x14,x13,cd58 <__divdf3+0x134>
    d328:	ff850513          	add	x10,x10,-8
    d32c:	00000813          	li	x16,0
    d330:	00aa1433          	sll	x8,x20,x10
    d334:	a41ff06f          	j	cd74 <__divdf3+0x150>
    d338:	654010ef          	jal	e98c <__clzsi2>
    d33c:	01550793          	add	x15,x10,21
    d340:	01c00693          	li	x13,28
    d344:	02050713          	add	x14,x10,32
    d348:	acf6dee3          	bge	x13,x15,ce24 <__divdf3+0x200>
    d34c:	ff850493          	add	x9,x10,-8
    d350:	00941b33          	sll	x22,x8,x9
    d354:	00000b93          	li	x23,0
    d358:	ae9ff06f          	j	ce40 <__divdf3+0x21c>
    d35c:	f97c98e3          	bne	x25,x23,d2ec <__divdf3+0x6c8>
    d360:	f80602e3          	beqz	x12,d2e4 <__divdf3+0x6c0>
    d364:	00058413          	mv	x8,x11
    d368:	d55ff06f          	j	d0bc <__divdf3+0x498>
    d36c:	ca97f8e3          	bgeu	x15,x9,d01c <__divdf3+0x3f8>
    d370:	ffeb8b93          	add	x23,x23,-2
    d374:	019787b3          	add	x15,x15,x25
    d378:	ca9ff06f          	j	d020 <__divdf3+0x3fc>
    d37c:	c497f4e3          	bgeu	x15,x9,cfc4 <__divdf3+0x3a0>
    d380:	ffe40413          	add	x8,x8,-2
    d384:	019787b3          	add	x15,x15,x25
    d388:	c41ff06f          	j	cfc8 <__divdf3+0x3a4>
    d38c:	01f00693          	li	x13,31
    d390:	ece6dce3          	bge	x13,x14,d268 <__divdf3+0x644>
    d394:	fe100693          	li	x13,-31
    d398:	40f686b3          	sub	x13,x13,x15
    d39c:	02000793          	li	x15,32
    d3a0:	00d456b3          	srl	x13,x8,x13
    d3a4:	00f70863          	beq	x14,x15,d3b4 <__divdf3+0x790>
    d3a8:	43e98793          	add	x15,x19,1086
    d3ac:	00f417b3          	sll	x15,x8,x15
    d3b0:	00f86833          	or	x16,x16,x15
    d3b4:	01003833          	snez	x16,x16
    d3b8:	00d86833          	or	x16,x16,x13
    d3bc:	00787713          	and	x14,x16,7
    d3c0:	00000693          	li	x13,0
    d3c4:	02070863          	beqz	x14,d3f4 <__divdf3+0x7d0>
    d3c8:	00f87793          	and	x15,x16,15
    d3cc:	00400713          	li	x14,4
    d3d0:	00000413          	li	x8,0
    d3d4:	00e78a63          	beq	x15,x14,d3e8 <__divdf3+0x7c4>
    d3d8:	00480793          	add	x15,x16,4
    d3dc:	0107b833          	sltu	x16,x15,x16
    d3e0:	01003433          	snez	x8,x16
    d3e4:	00078813          	mv	x16,x15
    d3e8:	00941693          	sll	x13,x8,0x9
    d3ec:	01d41713          	sll	x14,x8,0x1d
    d3f0:	00c6d693          	srl	x13,x13,0xc
    d3f4:	00385813          	srl	x16,x16,0x3
    d3f8:	00e86733          	or	x14,x16,x14
    d3fc:	00000793          	li	x15,0
    d400:	99dff06f          	j	cd9c <__divdf3+0x178>
    d404:	00060813          	mv	x16,x12
    d408:	e2e690e3          	bne	x13,x14,d228 <__divdf3+0x604>
    d40c:	e1579ee3          	bne	x15,x21,d228 <__divdf3+0x604>
    d410:	02412c83          	lw	x25,36(x2)
    d414:	02012d03          	lw	x26,32(x2)
    d418:	01c12d83          	lw	x27,28(x2)
    d41c:	a7dff06f          	j	ce98 <__divdf3+0x274>
    d420:	ec96f6e3          	bgeu	x13,x9,d2ec <__divdf3+0x6c8>
    d424:	00da86b3          	add	x13,x21,x13
    d428:	0156b633          	sltu	x12,x13,x21
    d42c:	01960633          	add	x12,x12,x25
    d430:	ffe40413          	add	x8,x8,-2
    d434:	00068d13          	mv	x26,x13
    d438:	00cb8bb3          	add	x23,x23,x12
    d43c:	c81ff06f          	j	d0bc <__divdf3+0x498>
    d440:	c0200713          	li	x14,-1022
    d444:	02412c83          	lw	x25,36(x2)
    d448:	02012d03          	lw	x26,32(x2)
    d44c:	01c12d83          	lw	x27,28(x2)
    d450:	3ff98793          	add	x15,x19,1023
    d454:	fff00813          	li	x16,-1
    d458:	e0e9c4e3          	blt	x19,x14,d260 <__divdf3+0x63c>
    d45c:	00480713          	add	x14,x16,4
    d460:	01073833          	sltu	x16,x14,x16
    d464:	01040433          	add	x8,x8,x16
    d468:	00070813          	mv	x16,x14
    d46c:	a3dff06f          	j	cea8 <__divdf3+0x284>
    d470:	00f87713          	and	x14,x16,15
    d474:	00400693          	li	x13,4
    d478:	a2d708e3          	beq	x14,x13,cea8 <__divdf3+0x284>
    d47c:	fe1ff06f          	j	d45c <__divdf3+0x838>
    d480:	00d12623          	sw	x13,12(x2)
    d484:	cadff06f          	j	d130 <__divdf3+0x50c>
    d488:	00078d13          	mv	x26,x15
    d48c:	d05ff06f          	j	d190 <__divdf3+0x56c>
    d490:	00090a13          	mv	x20,x18
    d494:	7ff00793          	li	x15,2047
    d498:	00000693          	li	x13,0
    d49c:	00000713          	li	x14,0
    d4a0:	8fdff06f          	j	cd9c <__divdf3+0x178>
    d4a4:	001a9613          	sll	x12,x21,0x1
    d4a8:	015636b3          	sltu	x13,x12,x21
    d4ac:	019686b3          	add	x13,x13,x25
    d4b0:	00d486b3          	add	x13,x9,x13
    d4b4:	ffe80813          	add	x16,x16,-2
    d4b8:	00060a93          	mv	x21,x12
    d4bc:	f4e688e3          	beq	x13,x14,d40c <__divdf3+0x7e8>
    d4c0:	d69ff06f          	j	d228 <__divdf3+0x604>
    d4c4:	fefae0e3          	bltu	x21,x15,d4a4 <__divdf3+0x880>
    d4c8:	00060813          	mv	x16,x12
    d4cc:	f41ff06f          	j	d40c <__divdf3+0x7e8>

Disassembly of section .text.__eqdf2:

0000d4d0 <__eqdf2>:
    d4d0:	0145d713          	srl	x14,x11,0x14
    d4d4:	001007b7          	lui	x15,0x100
    d4d8:	fff78793          	add	x15,x15,-1 # fffff <_ebss+0xed54f>
    d4dc:	0146d813          	srl	x16,x13,0x14
    d4e0:	7ff77713          	and	x14,x14,2047
    d4e4:	7ff00313          	li	x6,2047
    d4e8:	00b7fe33          	and	x28,x15,x11
    d4ec:	00050893          	mv	x17,x10
    d4f0:	00d7f7b3          	and	x15,x15,x13
    d4f4:	01f5d593          	srl	x11,x11,0x1f
    d4f8:	7ff87813          	and	x16,x16,2047
    d4fc:	01f6d693          	srl	x13,x13,0x1f
    d500:	00100513          	li	x10,1
    d504:	00670c63          	beq	x14,x6,d51c <__eqdf2+0x4c>
    d508:	00680863          	beq	x16,x6,d518 <__eqdf2+0x48>
    d50c:	01071463          	bne	x14,x16,d514 <__eqdf2+0x44>
    d510:	02fe0663          	beq	x28,x15,d53c <__eqdf2+0x6c>
    d514:	00008067          	ret
    d518:	00008067          	ret
    d51c:	fee81ce3          	bne	x16,x14,d514 <__eqdf2+0x44>
    d520:	00fe67b3          	or	x15,x28,x15
    d524:	00c7e7b3          	or	x15,x15,x12
    d528:	0117e7b3          	or	x15,x15,x17
    d52c:	fe0794e3          	bnez	x15,d514 <__eqdf2+0x44>
    d530:	40d585b3          	sub	x11,x11,x13
    d534:	00b03533          	snez	x10,x11
    d538:	00008067          	ret
    d53c:	fcc89ce3          	bne	x17,x12,d514 <__eqdf2+0x44>
    d540:	00d58a63          	beq	x11,x13,d554 <__eqdf2+0x84>
    d544:	fc0718e3          	bnez	x14,d514 <__eqdf2+0x44>
    d548:	011e6e33          	or	x28,x28,x17
    d54c:	01c03533          	snez	x10,x28
    d550:	00008067          	ret
    d554:	00000513          	li	x10,0
    d558:	00008067          	ret

Disassembly of section .text.__gedf2:

0000d55c <__gedf2>:
    d55c:	0145d893          	srl	x17,x11,0x14
    d560:	001007b7          	lui	x15,0x100
    d564:	fff78793          	add	x15,x15,-1 # fffff <_ebss+0xed54f>
    d568:	0146d713          	srl	x14,x13,0x14
    d56c:	7ff8f893          	and	x17,x17,2047
    d570:	7ff00e13          	li	x28,2047
    d574:	00b7f333          	and	x6,x15,x11
    d578:	00050813          	mv	x16,x10
    d57c:	00050e93          	mv	x29,x10
    d580:	00d7f7b3          	and	x15,x15,x13
    d584:	01f5d593          	srl	x11,x11,0x1f
    d588:	00060f13          	mv	x30,x12
    d58c:	7ff77513          	and	x10,x14,2047
    d590:	01f6d693          	srl	x13,x13,0x1f
    d594:	05c88863          	beq	x17,x28,d5e4 <__gedf2+0x88>
    d598:	03c50463          	beq	x10,x28,d5c0 <__gedf2+0x64>
    d59c:	06089a63          	bnez	x17,d610 <__gedf2+0xb4>
    d5a0:	01036833          	or	x16,x6,x16
    d5a4:	06051063          	bnez	x10,d604 <__gedf2+0xa8>
    d5a8:	00c7e633          	or	x12,x15,x12
    d5ac:	08060c63          	beqz	x12,d644 <__gedf2+0xe8>
    d5b0:	0a081263          	bnez	x16,d654 <__gedf2+0xf8>
    d5b4:	00100513          	li	x10,1
    d5b8:	08068263          	beqz	x13,d63c <__gedf2+0xe0>
    d5bc:	00008067          	ret
    d5c0:	00c7e633          	or	x12,x15,x12
    d5c4:	08061463          	bnez	x12,d64c <__gedf2+0xf0>
    d5c8:	00089663          	bnez	x17,d5d4 <__gedf2+0x78>
    d5cc:	01036333          	or	x6,x6,x16
    d5d0:	fe0302e3          	beqz	x6,d5b4 <__gedf2+0x58>
    d5d4:	06d58063          	beq	x11,x13,d634 <__gedf2+0xd8>
    d5d8:	06059263          	bnez	x11,d63c <__gedf2+0xe0>
    d5dc:	00100513          	li	x10,1
    d5e0:	00008067          	ret
    d5e4:	01036333          	or	x6,x6,x16
    d5e8:	06031263          	bnez	x6,d64c <__gedf2+0xf0>
    d5ec:	ff1516e3          	bne	x10,x17,d5d8 <__gedf2+0x7c>
    d5f0:	00c7e7b3          	or	x15,x15,x12
    d5f4:	04079c63          	bnez	x15,d64c <__gedf2+0xf0>
    d5f8:	fed590e3          	bne	x11,x13,d5d8 <__gedf2+0x7c>
    d5fc:	00000513          	li	x10,0
    d600:	00008067          	ret
    d604:	fa0808e3          	beqz	x16,d5b4 <__gedf2+0x58>
    d608:	fcd598e3          	bne	x11,x13,d5d8 <__gedf2+0x7c>
    d60c:	0280006f          	j	d634 <__gedf2+0xd8>
    d610:	fc0504e3          	beqz	x10,d5d8 <__gedf2+0x7c>
    d614:	fcd592e3          	bne	x11,x13,d5d8 <__gedf2+0x7c>
    d618:	fd1540e3          	blt	x10,x17,d5d8 <__gedf2+0x7c>
    d61c:	00a8cc63          	blt	x17,x10,d634 <__gedf2+0xd8>
    d620:	fa67ece3          	bltu	x15,x6,d5d8 <__gedf2+0x7c>
    d624:	00f31863          	bne	x6,x15,d634 <__gedf2+0xd8>
    d628:	fbdf68e3          	bltu	x30,x29,d5d8 <__gedf2+0x7c>
    d62c:	00000513          	li	x10,0
    d630:	f9eef6e3          	bgeu	x29,x30,d5bc <__gedf2+0x60>
    d634:	00100513          	li	x10,1
    d638:	f80592e3          	bnez	x11,d5bc <__gedf2+0x60>
    d63c:	fff00513          	li	x10,-1
    d640:	00008067          	ret
    d644:	f8081ae3          	bnez	x16,d5d8 <__gedf2+0x7c>
    d648:	00008067          	ret
    d64c:	ffe00513          	li	x10,-2
    d650:	00008067          	ret
    d654:	fcd586e3          	beq	x11,x13,d620 <__gedf2+0xc4>
    d658:	f81ff06f          	j	d5d8 <__gedf2+0x7c>

Disassembly of section .text.__ledf2:

0000d65c <__ledf2>:
    d65c:	0145d893          	srl	x17,x11,0x14
    d660:	001007b7          	lui	x15,0x100
    d664:	fff78793          	add	x15,x15,-1 # fffff <_ebss+0xed54f>
    d668:	0146d713          	srl	x14,x13,0x14
    d66c:	7ff8f893          	and	x17,x17,2047
    d670:	7ff00313          	li	x6,2047
    d674:	00b7fe33          	and	x28,x15,x11
    d678:	00050813          	mv	x16,x10
    d67c:	00050e93          	mv	x29,x10
    d680:	00d7f7b3          	and	x15,x15,x13
    d684:	01f5d593          	srl	x11,x11,0x1f
    d688:	00060f13          	mv	x30,x12
    d68c:	7ff77513          	and	x10,x14,2047
    d690:	01f6d693          	srl	x13,x13,0x1f
    d694:	04688a63          	beq	x17,x6,d6e8 <__ledf2+0x8c>
    d698:	02650463          	beq	x10,x6,d6c0 <__ledf2+0x64>
    d69c:	06089863          	bnez	x17,d70c <__ledf2+0xb0>
    d6a0:	010e6833          	or	x16,x28,x16
    d6a4:	08051e63          	bnez	x10,d740 <__ledf2+0xe4>
    d6a8:	00c7e633          	or	x12,x15,x12
    d6ac:	0a060463          	beqz	x12,d754 <__ledf2+0xf8>
    d6b0:	0a081663          	bnez	x16,d75c <__ledf2+0x100>
    d6b4:	00100513          	li	x10,1
    d6b8:	08068063          	beqz	x13,d738 <__ledf2+0xdc>
    d6bc:	00008067          	ret
    d6c0:	00c7e633          	or	x12,x15,x12
    d6c4:	00200513          	li	x10,2
    d6c8:	fe061ae3          	bnez	x12,d6bc <__ledf2+0x60>
    d6cc:	00089663          	bnez	x17,d6d8 <__ledf2+0x7c>
    d6d0:	010e6e33          	or	x28,x28,x16
    d6d4:	fe0e00e3          	beqz	x28,d6b4 <__ledf2+0x58>
    d6d8:	04d58c63          	beq	x11,x13,d730 <__ledf2+0xd4>
    d6dc:	04059e63          	bnez	x11,d738 <__ledf2+0xdc>
    d6e0:	00100513          	li	x10,1
    d6e4:	00008067          	ret
    d6e8:	010e6e33          	or	x28,x28,x16
    d6ec:	060e1063          	bnez	x28,d74c <__ledf2+0xf0>
    d6f0:	ff1516e3          	bne	x10,x17,d6dc <__ledf2+0x80>
    d6f4:	00c7e7b3          	or	x15,x15,x12
    d6f8:	00200513          	li	x10,2
    d6fc:	fc0790e3          	bnez	x15,d6bc <__ledf2+0x60>
    d700:	fcd59ee3          	bne	x11,x13,d6dc <__ledf2+0x80>
    d704:	00000513          	li	x10,0
    d708:	00008067          	ret
    d70c:	fc0508e3          	beqz	x10,d6dc <__ledf2+0x80>
    d710:	fcd596e3          	bne	x11,x13,d6dc <__ledf2+0x80>
    d714:	fd1544e3          	blt	x10,x17,d6dc <__ledf2+0x80>
    d718:	00a8cc63          	blt	x17,x10,d730 <__ledf2+0xd4>
    d71c:	fdc7e0e3          	bltu	x15,x28,d6dc <__ledf2+0x80>
    d720:	00fe1863          	bne	x28,x15,d730 <__ledf2+0xd4>
    d724:	fbdf6ce3          	bltu	x30,x29,d6dc <__ledf2+0x80>
    d728:	00000513          	li	x10,0
    d72c:	f9eef8e3          	bgeu	x29,x30,d6bc <__ledf2+0x60>
    d730:	00100513          	li	x10,1
    d734:	f80594e3          	bnez	x11,d6bc <__ledf2+0x60>
    d738:	fff00513          	li	x10,-1
    d73c:	00008067          	ret
    d740:	f6080ae3          	beqz	x16,d6b4 <__ledf2+0x58>
    d744:	f8d59ce3          	bne	x11,x13,d6dc <__ledf2+0x80>
    d748:	fe9ff06f          	j	d730 <__ledf2+0xd4>
    d74c:	00200513          	li	x10,2
    d750:	00008067          	ret
    d754:	f80814e3          	bnez	x16,d6dc <__ledf2+0x80>
    d758:	00008067          	ret
    d75c:	fcd580e3          	beq	x11,x13,d71c <__ledf2+0xc0>
    d760:	f7dff06f          	j	d6dc <__ledf2+0x80>

Disassembly of section .text.__muldf3:

0000d764 <__muldf3>:
    d764:	fd010113          	add	x2,x2,-48
    d768:	0145d793          	srl	x15,x11,0x14
    d76c:	02812423          	sw	x8,40(x2)
    d770:	02912223          	sw	x9,36(x2)
    d774:	03212023          	sw	x18,32(x2)
    d778:	01312e23          	sw	x19,28(x2)
    d77c:	01512a23          	sw	x21,20(x2)
    d780:	00c59493          	sll	x9,x11,0xc
    d784:	02112623          	sw	x1,44(x2)
    d788:	01412c23          	sw	x20,24(x2)
    d78c:	01612823          	sw	x22,16(x2)
    d790:	01712623          	sw	x23,12(x2)
    d794:	01812423          	sw	x24,8(x2)
    d798:	7ff7f793          	and	x15,x15,2047
    d79c:	00050413          	mv	x8,x10
    d7a0:	00060a93          	mv	x21,x12
    d7a4:	00068993          	mv	x19,x13
    d7a8:	00c4d493          	srl	x9,x9,0xc
    d7ac:	01f5d913          	srl	x18,x11,0x1f
    d7b0:	4e078063          	beqz	x15,dc90 <__muldf3+0x52c>
    d7b4:	7ff00713          	li	x14,2047
    d7b8:	0ae78663          	beq	x15,x14,d864 <__muldf3+0x100>
    d7bc:	00349693          	sll	x13,x9,0x3
    d7c0:	01d55713          	srl	x14,x10,0x1d
    d7c4:	00d76733          	or	x14,x14,x13
    d7c8:	008006b7          	lui	x13,0x800
    d7cc:	00d764b3          	or	x9,x14,x13
    d7d0:	00351a13          	sll	x20,x10,0x3
    d7d4:	c0178c13          	add	x24,x15,-1023
    d7d8:	00000b13          	li	x22,0
    d7dc:	00000b93          	li	x23,0
    d7e0:	0149d793          	srl	x15,x19,0x14
    d7e4:	00c99713          	sll	x14,x19,0xc
    d7e8:	7ff7f793          	and	x15,x15,2047
    d7ec:	000a8e13          	mv	x28,x21
    d7f0:	00c75413          	srl	x8,x14,0xc
    d7f4:	01f9d993          	srl	x19,x19,0x1f
    d7f8:	0a078063          	beqz	x15,d898 <__muldf3+0x134>
    d7fc:	7ff00713          	li	x14,2047
    d800:	14e78e63          	beq	x15,x14,d95c <__muldf3+0x1f8>
    d804:	00341713          	sll	x14,x8,0x3
    d808:	01dad693          	srl	x13,x21,0x1d
    d80c:	00e6e6b3          	or	x13,x13,x14
    d810:	c0178793          	add	x15,x15,-1023
    d814:	00800737          	lui	x14,0x800
    d818:	00e6e433          	or	x8,x13,x14
    d81c:	003a9e13          	sll	x28,x21,0x3
    d820:	01878333          	add	x6,x15,x24
    d824:	00000693          	li	x13,0
    d828:	00a00793          	li	x15,10
    d82c:	00130893          	add	x17,x6,1
    d830:	0b67cc63          	blt	x15,x22,d8e8 <__muldf3+0x184>
    d834:	013945b3          	xor	x11,x18,x19
    d838:	00200793          	li	x15,2
    d83c:	00058813          	mv	x16,x11
    d840:	1567c663          	blt	x15,x22,d98c <__muldf3+0x228>
    d844:	fffb0b13          	add	x22,x22,-1
    d848:	00100713          	li	x14,1
    d84c:	17676063          	bltu	x14,x22,d9ac <__muldf3+0x248>
    d850:	48f68663          	beq	x13,x15,dcdc <__muldf3+0x578>
    d854:	00040493          	mv	x9,x8
    d858:	000e0a13          	mv	x20,x28
    d85c:	00068b93          	mv	x23,x13
    d860:	09c0006f          	j	d8fc <__muldf3+0x198>
    d864:	00a4ea33          	or	x20,x9,x10
    d868:	480a1463          	bnez	x20,dcf0 <__muldf3+0x58c>
    d86c:	0149d793          	srl	x15,x19,0x14
    d870:	00c99713          	sll	x14,x19,0xc
    d874:	7ff7f793          	and	x15,x15,2047
    d878:	00000493          	li	x9,0
    d87c:	00800b13          	li	x22,8
    d880:	7ff00c13          	li	x24,2047
    d884:	00200b93          	li	x23,2
    d888:	000a8e13          	mv	x28,x21
    d88c:	00c75413          	srl	x8,x14,0xc
    d890:	01f9d993          	srl	x19,x19,0x1f
    d894:	f60794e3          	bnez	x15,d7fc <__muldf3+0x98>
    d898:	015467b3          	or	x15,x8,x21
    d89c:	46078e63          	beqz	x15,dd18 <__muldf3+0x5b4>
    d8a0:	54040c63          	beqz	x8,ddf8 <__muldf3+0x694>
    d8a4:	00040513          	mv	x10,x8
    d8a8:	0e4010ef          	jal	e98c <__clzsi2>
    d8ac:	00050313          	mv	x6,x10
    d8b0:	ff550713          	add	x14,x10,-11
    d8b4:	01d00793          	li	x15,29
    d8b8:	ff830e13          	add	x28,x6,-8
    d8bc:	40e787b3          	sub	x15,x15,x14
    d8c0:	00fad7b3          	srl	x15,x21,x15
    d8c4:	01c41733          	sll	x14,x8,x28
    d8c8:	00e7e433          	or	x8,x15,x14
    d8cc:	01ca9e33          	sll	x28,x21,x28
    d8d0:	406c0333          	sub	x6,x24,x6
    d8d4:	c0d30313          	add	x6,x6,-1011
    d8d8:	00a00793          	li	x15,10
    d8dc:	00000693          	li	x13,0
    d8e0:	00130893          	add	x17,x6,1
    d8e4:	f567d8e3          	bge	x15,x22,d834 <__muldf3+0xd0>
    d8e8:	00090593          	mv	x11,x18
    d8ec:	00200793          	li	x15,2
    d8f0:	3efb8663          	beq	x23,x15,dcdc <__muldf3+0x578>
    d8f4:	00300793          	li	x15,3
    d8f8:	54fb8863          	beq	x23,x15,de48 <__muldf3+0x6e4>
    d8fc:	00100793          	li	x15,1
    d900:	00058813          	mv	x16,x11
    d904:	52fb9663          	bne	x23,x15,de30 <__muldf3+0x6cc>
    d908:	00000793          	li	x15,0
    d90c:	00000693          	li	x13,0
    d910:	00000713          	li	x14,0
    d914:	02c12083          	lw	x1,44(x2)
    d918:	02812403          	lw	x8,40(x2)
    d91c:	01479793          	sll	x15,x15,0x14
    d920:	00d7e7b3          	or	x15,x15,x13
    d924:	01f81813          	sll	x16,x16,0x1f
    d928:	0107e7b3          	or	x15,x15,x16
    d92c:	02412483          	lw	x9,36(x2)
    d930:	02012903          	lw	x18,32(x2)
    d934:	01c12983          	lw	x19,28(x2)
    d938:	01812a03          	lw	x20,24(x2)
    d93c:	01412a83          	lw	x21,20(x2)
    d940:	01012b03          	lw	x22,16(x2)
    d944:	00c12b83          	lw	x23,12(x2)
    d948:	00812c03          	lw	x24,8(x2)
    d94c:	00070513          	mv	x10,x14
    d950:	00078593          	mv	x11,x15
    d954:	03010113          	add	x2,x2,48
    d958:	00008067          	ret
    d95c:	01546733          	or	x14,x8,x21
    d960:	7ffc0313          	add	x6,x24,2047
    d964:	3c070663          	beqz	x14,dd30 <__muldf3+0x5cc>
    d968:	00001737          	lui	x14,0x1
    d96c:	01394833          	xor	x16,x18,x19
    d970:	80070713          	add	x14,x14,-2048 # 800 <menu_options+0x80>
    d974:	003b6b13          	or	x22,x22,3
    d978:	00a00693          	li	x13,10
    d97c:	00080593          	mv	x11,x16
    d980:	00ec08b3          	add	x17,x24,x14
    d984:	4366cc63          	blt	x13,x22,ddbc <__muldf3+0x658>
    d988:	00300693          	li	x13,3
    d98c:	00100613          	li	x12,1
    d990:	01661633          	sll	x12,x12,x22
    d994:	53067713          	and	x14,x12,1328
    d998:	f4071ae3          	bnez	x14,d8ec <__muldf3+0x188>
    d99c:	24067793          	and	x15,x12,576
    d9a0:	48079063          	bnez	x15,de20 <__muldf3+0x6bc>
    d9a4:	08867613          	and	x12,x12,136
    d9a8:	38061e63          	bnez	x12,dd44 <__muldf3+0x5e0>
    d9ac:	00010fb7          	lui	x31,0x10
    d9b0:	ffff8293          	add	x5,x31,-1 # ffff <load_fname_cheat+0x12b>
    d9b4:	005a7f33          	and	x30,x20,x5
    d9b8:	005e72b3          	and	x5,x28,x5
    d9bc:	010a5a13          	srl	x20,x20,0x10
    d9c0:	010e5e13          	srl	x28,x28,0x10
    d9c4:	000f0513          	mv	x10,x30
    d9c8:	00028593          	mv	x11,x5
    d9cc:	bb5fd0ef          	jal	b580 <__mulsi3>
    d9d0:	00050713          	mv	x14,x10
    d9d4:	000e0593          	mv	x11,x28
    d9d8:	000f0513          	mv	x10,x30
    d9dc:	ba5fd0ef          	jal	b580 <__mulsi3>
    d9e0:	00050793          	mv	x15,x10
    d9e4:	00028593          	mv	x11,x5
    d9e8:	000a0513          	mv	x10,x20
    d9ec:	b95fd0ef          	jal	b580 <__mulsi3>
    d9f0:	00050e93          	mv	x29,x10
    d9f4:	000e0593          	mv	x11,x28
    d9f8:	000a0513          	mv	x10,x20
    d9fc:	b85fd0ef          	jal	b580 <__mulsi3>
    da00:	01d786b3          	add	x13,x15,x29
    da04:	01075393          	srl	x7,x14,0x10
    da08:	00d383b3          	add	x7,x7,x13
    da0c:	00050793          	mv	x15,x10
    da10:	01d3f463          	bgeu	x7,x29,da18 <__muldf3+0x2b4>
    da14:	01f507b3          	add	x15,x10,x31
    da18:	000109b7          	lui	x19,0x10
    da1c:	fff98913          	add	x18,x19,-1 # ffff <load_fname_cheat+0x12b>
    da20:	0123feb3          	and	x29,x7,x18
    da24:	01277733          	and	x14,x14,x18
    da28:	010e9e93          	sll	x29,x29,0x10
    da2c:	01247933          	and	x18,x8,x18
    da30:	0103d393          	srl	x7,x7,0x10
    da34:	00ee8eb3          	add	x29,x29,x14
    da38:	01045413          	srl	x8,x8,0x10
    da3c:	000f0513          	mv	x10,x30
    da40:	00090593          	mv	x11,x18
    da44:	b3dfd0ef          	jal	b580 <__mulsi3>
    da48:	00050f93          	mv	x31,x10
    da4c:	00040593          	mv	x11,x8
    da50:	000f0513          	mv	x10,x30
    da54:	b2dfd0ef          	jal	b580 <__mulsi3>
    da58:	00050713          	mv	x14,x10
    da5c:	00090593          	mv	x11,x18
    da60:	000a0513          	mv	x10,x20
    da64:	b1dfd0ef          	jal	b580 <__mulsi3>
    da68:	00050f13          	mv	x30,x10
    da6c:	00040593          	mv	x11,x8
    da70:	000a0513          	mv	x10,x20
    da74:	b0dfd0ef          	jal	b580 <__mulsi3>
    da78:	010fd693          	srl	x13,x31,0x10
    da7c:	01e70733          	add	x14,x14,x30
    da80:	00e686b3          	add	x13,x13,x14
    da84:	01e6f463          	bgeu	x13,x30,da8c <__muldf3+0x328>
    da88:	01350533          	add	x10,x10,x19
    da8c:	00010a37          	lui	x20,0x10
    da90:	fffa0f13          	add	x30,x20,-1 # ffff <load_fname_cheat+0x12b>
    da94:	01e6f733          	and	x14,x13,x30
    da98:	01efffb3          	and	x31,x31,x30
    da9c:	01071713          	sll	x14,x14,0x10
    daa0:	01f70733          	add	x14,x14,x31
    daa4:	01e4ff33          	and	x30,x9,x30
    daa8:	0106d693          	srl	x13,x13,0x10
    daac:	00a68fb3          	add	x31,x13,x10
    dab0:	00e383b3          	add	x7,x7,x14
    dab4:	0104d493          	srl	x9,x9,0x10
    dab8:	000f0513          	mv	x10,x30
    dabc:	00028593          	mv	x11,x5
    dac0:	ac1fd0ef          	jal	b580 <__mulsi3>
    dac4:	00050a93          	mv	x21,x10
    dac8:	000e0593          	mv	x11,x28
    dacc:	000f0513          	mv	x10,x30
    dad0:	ab1fd0ef          	jal	b580 <__mulsi3>
    dad4:	00050993          	mv	x19,x10
    dad8:	00028593          	mv	x11,x5
    dadc:	00048513          	mv	x10,x9
    dae0:	aa1fd0ef          	jal	b580 <__mulsi3>
    dae4:	00050293          	mv	x5,x10
    dae8:	000e0593          	mv	x11,x28
    daec:	00048513          	mv	x10,x9
    daf0:	a91fd0ef          	jal	b580 <__mulsi3>
    daf4:	010ad613          	srl	x12,x21,0x10
    daf8:	005989b3          	add	x19,x19,x5
    dafc:	01360633          	add	x12,x12,x19
    db00:	00567463          	bgeu	x12,x5,db08 <__muldf3+0x3a4>
    db04:	01450533          	add	x10,x10,x20
    db08:	00010a37          	lui	x20,0x10
    db0c:	fffa0693          	add	x13,x20,-1 # ffff <load_fname_cheat+0x12b>
    db10:	00d672b3          	and	x5,x12,x13
    db14:	00dafab3          	and	x21,x21,x13
    db18:	01065613          	srl	x12,x12,0x10
    db1c:	01029293          	sll	x5,x5,0x10
    db20:	00a60e33          	add	x28,x12,x10
    db24:	015282b3          	add	x5,x5,x21
    db28:	000f0513          	mv	x10,x30
    db2c:	00090593          	mv	x11,x18
    db30:	a51fd0ef          	jal	b580 <__mulsi3>
    db34:	00050993          	mv	x19,x10
    db38:	00040593          	mv	x11,x8
    db3c:	000f0513          	mv	x10,x30
    db40:	a41fd0ef          	jal	b580 <__mulsi3>
    db44:	00050f13          	mv	x30,x10
    db48:	00090593          	mv	x11,x18
    db4c:	00048513          	mv	x10,x9
    db50:	a31fd0ef          	jal	b580 <__mulsi3>
    db54:	00050913          	mv	x18,x10
    db58:	00040593          	mv	x11,x8
    db5c:	00048513          	mv	x10,x9
    db60:	a21fd0ef          	jal	b580 <__mulsi3>
    db64:	012f06b3          	add	x13,x30,x18
    db68:	0109d593          	srl	x11,x19,0x10
    db6c:	00d58433          	add	x8,x11,x13
    db70:	00050f13          	mv	x30,x10
    db74:	01247463          	bgeu	x8,x18,db7c <__muldf3+0x418>
    db78:	01450f33          	add	x30,x10,x20
    db7c:	00010637          	lui	x12,0x10
    db80:	fff60613          	add	x12,x12,-1 # ffff <load_fname_cheat+0x12b>
    db84:	00c476b3          	and	x13,x8,x12
    db88:	00c9f9b3          	and	x19,x19,x12
    db8c:	01069693          	sll	x13,x13,0x10
    db90:	007787b3          	add	x15,x15,x7
    db94:	013686b3          	add	x13,x13,x19
    db98:	01f685b3          	add	x11,x13,x31
    db9c:	00e7b733          	sltu	x14,x15,x14
    dba0:	00e58733          	add	x14,x11,x14
    dba4:	005782b3          	add	x5,x15,x5
    dba8:	01c70633          	add	x12,x14,x28
    dbac:	00f2b7b3          	sltu	x15,x5,x15
    dbb0:	00f607b3          	add	x15,x12,x15
    dbb4:	00d5b6b3          	sltu	x13,x11,x13
    dbb8:	00b735b3          	sltu	x11,x14,x11
    dbbc:	00b6e6b3          	or	x13,x13,x11
    dbc0:	00e63733          	sltu	x14,x12,x14
    dbc4:	01045593          	srl	x11,x8,0x10
    dbc8:	00c7b633          	sltu	x12,x15,x12
    dbcc:	00b686b3          	add	x13,x13,x11
    dbd0:	00929a13          	sll	x20,x5,0x9
    dbd4:	00c76733          	or	x14,x14,x12
    dbd8:	00d70733          	add	x14,x14,x13
    dbdc:	01da6a33          	or	x20,x20,x29
    dbe0:	01e70733          	add	x14,x14,x30
    dbe4:	01403a33          	snez	x20,x20
    dbe8:	0172d293          	srl	x5,x5,0x17
    dbec:	00971713          	sll	x14,x14,0x9
    dbf0:	0177d693          	srl	x13,x15,0x17
    dbf4:	005a6a33          	or	x20,x20,x5
    dbf8:	00979793          	sll	x15,x15,0x9
    dbfc:	00fa6a33          	or	x20,x20,x15
    dc00:	00771793          	sll	x15,x14,0x7
    dc04:	00d764b3          	or	x9,x14,x13
    dc08:	0207d063          	bgez	x15,dc28 <__muldf3+0x4c4>
    dc0c:	001a5793          	srl	x15,x20,0x1
    dc10:	001a7a13          	and	x20,x20,1
    dc14:	01f49713          	sll	x14,x9,0x1f
    dc18:	0147e7b3          	or	x15,x15,x20
    dc1c:	00e7ea33          	or	x20,x15,x14
    dc20:	0014d493          	srl	x9,x9,0x1
    dc24:	00088313          	mv	x6,x17
    dc28:	3ff30793          	add	x15,x6,1023
    dc2c:	12f05663          	blez	x15,dd58 <__muldf3+0x5f4>
    dc30:	007a7713          	and	x14,x20,7
    dc34:	02070063          	beqz	x14,dc54 <__muldf3+0x4f0>
    dc38:	00fa7713          	and	x14,x20,15
    dc3c:	00400693          	li	x13,4
    dc40:	00d70a63          	beq	x14,x13,dc54 <__muldf3+0x4f0>
    dc44:	004a0713          	add	x14,x20,4
    dc48:	01473a33          	sltu	x20,x14,x20
    dc4c:	014484b3          	add	x9,x9,x20
    dc50:	00070a13          	mv	x20,x14
    dc54:	00749713          	sll	x14,x9,0x7
    dc58:	00075a63          	bgez	x14,dc6c <__muldf3+0x508>
    dc5c:	ff0007b7          	lui	x15,0xff000
    dc60:	fff78793          	add	x15,x15,-1 # feffffff <STACK_TOP+0xfeefffff>
    dc64:	00f4f4b3          	and	x9,x9,x15
    dc68:	40030793          	add	x15,x6,1024
    dc6c:	7fe00713          	li	x14,2046
    dc70:	1cf74463          	blt	x14,x15,de38 <__muldf3+0x6d4>
    dc74:	003a5a13          	srl	x20,x20,0x3
    dc78:	01d49713          	sll	x14,x9,0x1d
    dc7c:	00949693          	sll	x13,x9,0x9
    dc80:	01476733          	or	x14,x14,x20
    dc84:	00c6d693          	srl	x13,x13,0xc
    dc88:	7ff7f793          	and	x15,x15,2047
    dc8c:	c89ff06f          	j	d914 <__muldf3+0x1b0>
    dc90:	00a4ea33          	or	x20,x9,x10
    dc94:	060a0863          	beqz	x20,dd04 <__muldf3+0x5a0>
    dc98:	12048e63          	beqz	x9,ddd4 <__muldf3+0x670>
    dc9c:	00048513          	mv	x10,x9
    dca0:	4ed000ef          	jal	e98c <__clzsi2>
    dca4:	00050713          	mv	x14,x10
    dca8:	ff550693          	add	x13,x10,-11
    dcac:	01d00793          	li	x15,29
    dcb0:	ff870a13          	add	x20,x14,-8
    dcb4:	40d787b3          	sub	x15,x15,x13
    dcb8:	00f457b3          	srl	x15,x8,x15
    dcbc:	014496b3          	sll	x13,x9,x20
    dcc0:	00d7e4b3          	or	x9,x15,x13
    dcc4:	01441a33          	sll	x20,x8,x20
    dcc8:	c0d00793          	li	x15,-1011
    dccc:	40e78c33          	sub	x24,x15,x14
    dcd0:	00000b13          	li	x22,0
    dcd4:	00000b93          	li	x23,0
    dcd8:	b09ff06f          	j	d7e0 <__muldf3+0x7c>
    dcdc:	00058813          	mv	x16,x11
    dce0:	7ff00793          	li	x15,2047
    dce4:	00000693          	li	x13,0
    dce8:	00000713          	li	x14,0
    dcec:	c29ff06f          	j	d914 <__muldf3+0x1b0>
    dcf0:	00050a13          	mv	x20,x10
    dcf4:	00c00b13          	li	x22,12
    dcf8:	7ff00c13          	li	x24,2047
    dcfc:	00300b93          	li	x23,3
    dd00:	ae1ff06f          	j	d7e0 <__muldf3+0x7c>
    dd04:	00000493          	li	x9,0
    dd08:	00400b13          	li	x22,4
    dd0c:	00000c13          	li	x24,0
    dd10:	00100b93          	li	x23,1
    dd14:	acdff06f          	j	d7e0 <__muldf3+0x7c>
    dd18:	001b6b13          	or	x22,x22,1
    dd1c:	000c0313          	mv	x6,x24
    dd20:	00000413          	li	x8,0
    dd24:	00000e13          	li	x28,0
    dd28:	00100693          	li	x13,1
    dd2c:	afdff06f          	j	d828 <__muldf3+0xc4>
    dd30:	002b6b13          	or	x22,x22,2
    dd34:	00000413          	li	x8,0
    dd38:	00000e13          	li	x28,0
    dd3c:	00200693          	li	x13,2
    dd40:	ae9ff06f          	j	d828 <__muldf3+0xc4>
    dd44:	00040493          	mv	x9,x8
    dd48:	000e0a13          	mv	x20,x28
    dd4c:	00068b93          	mv	x23,x13
    dd50:	00098593          	mv	x11,x19
    dd54:	b99ff06f          	j	d8ec <__muldf3+0x188>
    dd58:	00100713          	li	x14,1
    dd5c:	10079063          	bnez	x15,de5c <__muldf3+0x6f8>
    dd60:	41e30313          	add	x6,x6,1054
    dd64:	006a1633          	sll	x12,x20,x6
    dd68:	00c03633          	snez	x12,x12
    dd6c:	00649333          	sll	x6,x9,x6
    dd70:	00ea5a33          	srl	x20,x20,x14
    dd74:	00666633          	or	x12,x12,x6
    dd78:	01466633          	or	x12,x12,x20
    dd7c:	00767793          	and	x15,x12,7
    dd80:	00e4d5b3          	srl	x11,x9,x14
    dd84:	02078063          	beqz	x15,dda4 <__muldf3+0x640>
    dd88:	00f67793          	and	x15,x12,15
    dd8c:	00400713          	li	x14,4
    dd90:	00e78a63          	beq	x15,x14,dda4 <__muldf3+0x640>
    dd94:	00460793          	add	x15,x12,4
    dd98:	00c7b633          	sltu	x12,x15,x12
    dd9c:	00c585b3          	add	x11,x11,x12
    dda0:	00078613          	mv	x12,x15
    dda4:	00859513          	sll	x10,x11,0x8
    dda8:	00100793          	li	x15,1
    ddac:	00000693          	li	x13,0
    ddb0:	00000713          	li	x14,0
    ddb4:	b60540e3          	bltz	x10,d914 <__muldf3+0x1b0>
    ddb8:	10c0006f          	j	dec4 <__muldf3+0x760>
    ddbc:	00f00713          	li	x14,15
    ddc0:	12eb1063          	bne	x22,x14,dee0 <__muldf3+0x77c>
    ddc4:	00000813          	li	x16,0
    ddc8:	000806b7          	lui	x13,0x80
    ddcc:	00000713          	li	x14,0
    ddd0:	b45ff06f          	j	d914 <__muldf3+0x1b0>
    ddd4:	3b9000ef          	jal	e98c <__clzsi2>
    ddd8:	01550693          	add	x13,x10,21
    dddc:	01c00793          	li	x15,28
    dde0:	02050713          	add	x14,x10,32
    dde4:	ecd7d4e3          	bge	x15,x13,dcac <__muldf3+0x548>
    dde8:	ff850513          	add	x10,x10,-8
    ddec:	00000a13          	li	x20,0
    ddf0:	00a414b3          	sll	x9,x8,x10
    ddf4:	ed5ff06f          	j	dcc8 <__muldf3+0x564>
    ddf8:	000a8513          	mv	x10,x21
    ddfc:	391000ef          	jal	e98c <__clzsi2>
    de00:	01550713          	add	x14,x10,21
    de04:	01c00793          	li	x15,28
    de08:	02050313          	add	x6,x10,32
    de0c:	aae7d4e3          	bge	x15,x14,d8b4 <__muldf3+0x150>
    de10:	ff850513          	add	x10,x10,-8
    de14:	00000e13          	li	x28,0
    de18:	00aa9433          	sll	x8,x21,x10
    de1c:	ab5ff06f          	j	d8d0 <__muldf3+0x16c>
    de20:	00000813          	li	x16,0
    de24:	7ff00793          	li	x15,2047
    de28:	000806b7          	lui	x13,0x80
    de2c:	ae9ff06f          	j	d914 <__muldf3+0x1b0>
    de30:	00088313          	mv	x6,x17
    de34:	df5ff06f          	j	dc28 <__muldf3+0x4c4>
    de38:	7ff00793          	li	x15,2047
    de3c:	00000693          	li	x13,0
    de40:	00000713          	li	x14,0
    de44:	ad1ff06f          	j	d914 <__muldf3+0x1b0>
    de48:	00000813          	li	x16,0
    de4c:	7ff00793          	li	x15,2047
    de50:	000806b7          	lui	x13,0x80
    de54:	00000713          	li	x14,0
    de58:	abdff06f          	j	d914 <__muldf3+0x1b0>
    de5c:	40f70733          	sub	x14,x14,x15
    de60:	03800693          	li	x13,56
    de64:	aae6c2e3          	blt	x13,x14,d908 <__muldf3+0x1a4>
    de68:	01f00693          	li	x13,31
    de6c:	eee6dae3          	bge	x13,x14,dd60 <__muldf3+0x5fc>
    de70:	fe100693          	li	x13,-31
    de74:	40f687b3          	sub	x15,x13,x15
    de78:	02000693          	li	x13,32
    de7c:	00f4d7b3          	srl	x15,x9,x15
    de80:	00d70863          	beq	x14,x13,de90 <__muldf3+0x72c>
    de84:	43e30313          	add	x6,x6,1086
    de88:	00649333          	sll	x6,x9,x6
    de8c:	006a6a33          	or	x20,x20,x6
    de90:	01403633          	snez	x12,x20
    de94:	00f66633          	or	x12,x12,x15
    de98:	00767713          	and	x14,x12,7
    de9c:	00000693          	li	x13,0
    dea0:	02070863          	beqz	x14,ded0 <__muldf3+0x76c>
    dea4:	00f67793          	and	x15,x12,15
    dea8:	00400713          	li	x14,4
    deac:	00000593          	li	x11,0
    deb0:	00e78a63          	beq	x15,x14,dec4 <__muldf3+0x760>
    deb4:	00460793          	add	x15,x12,4
    deb8:	00c7b633          	sltu	x12,x15,x12
    debc:	00c035b3          	snez	x11,x12
    dec0:	00078613          	mv	x12,x15
    dec4:	00959693          	sll	x13,x11,0x9
    dec8:	01d59713          	sll	x14,x11,0x1d
    decc:	00c6d693          	srl	x13,x13,0xc
    ded0:	00365613          	srl	x12,x12,0x3
    ded4:	00e66733          	or	x14,x12,x14
    ded8:	00000793          	li	x15,0
    dedc:	a39ff06f          	j	d914 <__muldf3+0x1b0>
    dee0:	00040493          	mv	x9,x8
    dee4:	000a8a13          	mv	x20,x21
    dee8:	00300b93          	li	x23,3
    deec:	00098593          	mv	x11,x19
    def0:	9fdff06f          	j	d8ec <__muldf3+0x188>

Disassembly of section .text.__subdf3:

0000def4 <__subdf3>:
    def4:	001007b7          	lui	x15,0x100
    def8:	fff78793          	add	x15,x15,-1 # fffff <_ebss+0xed54f>
    defc:	fe010113          	add	x2,x2,-32
    df00:	00b7f8b3          	and	x17,x15,x11
    df04:	00d7f833          	and	x16,x15,x13
    df08:	0146d793          	srl	x15,x13,0x14
    df0c:	00389893          	sll	x17,x17,0x3
    df10:	00812c23          	sw	x8,24(x2)
    df14:	01312623          	sw	x19,12(x2)
    df18:	01f5d413          	srl	x8,x11,0x1f
    df1c:	0145d993          	srl	x19,x11,0x14
    df20:	01d55713          	srl	x14,x10,0x1d
    df24:	00381813          	sll	x16,x16,0x3
    df28:	01d65593          	srl	x11,x12,0x1d
    df2c:	00112e23          	sw	x1,28(x2)
    df30:	00912a23          	sw	x9,20(x2)
    df34:	01212823          	sw	x18,16(x2)
    df38:	7ff7ff13          	and	x30,x15,2047
    df3c:	7ff00313          	li	x6,2047
    df40:	01176733          	or	x14,x14,x17
    df44:	7ff9f993          	and	x19,x19,2047
    df48:	00040e13          	mv	x28,x8
    df4c:	00351893          	sll	x17,x10,0x3
    df50:	01f6d693          	srl	x13,x13,0x1f
    df54:	0105e5b3          	or	x11,x11,x16
    df58:	00361e93          	sll	x29,x12,0x3
    df5c:	206f0c63          	beq	x30,x6,e174 <__subdf3+0x280>
    df60:	0016c693          	xor	x13,x13,1
    df64:	41e987b3          	sub	x15,x19,x30
    df68:	16d40263          	beq	x8,x13,e0cc <__subdf3+0x1d8>
    df6c:	00f05ae3          	blez	x15,e780 <__subdf3+0x88c>
    df70:	240f0a63          	beqz	x30,e1c4 <__subdf3+0x2d0>
    df74:	3c698463          	beq	x19,x6,e33c <__subdf3+0x448>
    df78:	03800693          	li	x13,56
    df7c:	00100513          	li	x10,1
    df80:	02f6ce63          	blt	x13,x15,dfbc <__subdf3+0xc8>
    df84:	008006b7          	lui	x13,0x800
    df88:	00d5e5b3          	or	x11,x11,x13
    df8c:	01f00693          	li	x13,31
    df90:	4ef6c463          	blt	x13,x15,e478 <__subdf3+0x584>
    df94:	02000693          	li	x13,32
    df98:	40f686b3          	sub	x13,x13,x15
    df9c:	00d59533          	sll	x10,x11,x13
    dfa0:	00fed633          	srl	x12,x29,x15
    dfa4:	00de96b3          	sll	x13,x29,x13
    dfa8:	00c56533          	or	x10,x10,x12
    dfac:	00d036b3          	snez	x13,x13
    dfb0:	00f5d7b3          	srl	x15,x11,x15
    dfb4:	00d56533          	or	x10,x10,x13
    dfb8:	40f70733          	sub	x14,x14,x15
    dfbc:	40a88533          	sub	x10,x17,x10
    dfc0:	00a8b633          	sltu	x12,x17,x10
    dfc4:	00050493          	mv	x9,x10
    dfc8:	40c70933          	sub	x18,x14,x12
    dfcc:	00891793          	sll	x15,x18,0x8
    dfd0:	3407d863          	bgez	x15,e320 <__subdf3+0x42c>
    dfd4:	008007b7          	lui	x15,0x800
    dfd8:	fff78793          	add	x15,x15,-1 # 7fffff <STACK_TOP+0x6fffff>
    dfdc:	00f97933          	and	x18,x18,x15
    dfe0:	2e090663          	beqz	x18,e2cc <__subdf3+0x3d8>
    dfe4:	00090513          	mv	x10,x18
    dfe8:	1a5000ef          	jal	e98c <__clzsi2>
    dfec:	ff850793          	add	x15,x10,-8
    dff0:	02000693          	li	x13,32
    dff4:	40f68733          	sub	x14,x13,x15
    dff8:	00e4d733          	srl	x14,x9,x14
    dffc:	00f91933          	sll	x18,x18,x15
    e000:	01276733          	or	x14,x14,x18
    e004:	00f494b3          	sll	x9,x9,x15
    e008:	3f37c463          	blt	x15,x19,e3f0 <__subdf3+0x4fc>
    e00c:	413787b3          	sub	x15,x15,x19
    e010:	00178793          	add	x15,x15,1
    e014:	40f686b3          	sub	x13,x13,x15
    e018:	00d49633          	sll	x12,x9,x13
    e01c:	00f4d933          	srl	x18,x9,x15
    e020:	00c03633          	snez	x12,x12
    e024:	00c96633          	or	x12,x18,x12
    e028:	00d716b3          	sll	x13,x14,x13
    e02c:	00c6e4b3          	or	x9,x13,x12
    e030:	00f75933          	srl	x18,x14,x15
    e034:	00000993          	li	x19,0
    e038:	0074f793          	and	x15,x9,7
    e03c:	02078063          	beqz	x15,e05c <__subdf3+0x168>
    e040:	00f4f793          	and	x15,x9,15
    e044:	00400713          	li	x14,4
    e048:	00e78a63          	beq	x15,x14,e05c <__subdf3+0x168>
    e04c:	00448793          	add	x15,x9,4
    e050:	0097b533          	sltu	x10,x15,x9
    e054:	00a90933          	add	x18,x18,x10
    e058:	00078493          	mv	x9,x15
    e05c:	00891793          	sll	x15,x18,0x8
    e060:	6c07d063          	bgez	x15,e720 <__subdf3+0x82c>
    e064:	00198793          	add	x15,x19,1
    e068:	7ff00713          	li	x14,2047
    e06c:	24e78663          	beq	x15,x14,e2b8 <__subdf3+0x3c4>
    e070:	ff800737          	lui	x14,0xff800
    e074:	fff70713          	add	x14,x14,-1 # ff7fffff <STACK_TOP+0xff6fffff>
    e078:	00e97733          	and	x14,x18,x14
    e07c:	7ff7f793          	and	x15,x15,2047
    e080:	01d71813          	sll	x16,x14,0x1d
    e084:	0034d513          	srl	x10,x9,0x3
    e088:	00971713          	sll	x14,x14,0x9
    e08c:	00a86833          	or	x16,x16,x10
    e090:	00c75713          	srl	x14,x14,0xc
    e094:	00147e13          	and	x28,x8,1
    e098:	01c12083          	lw	x1,28(x2)
    e09c:	01812403          	lw	x8,24(x2)
    e0a0:	01479793          	sll	x15,x15,0x14
    e0a4:	00e7e7b3          	or	x15,x15,x14
    e0a8:	01fe1713          	sll	x14,x28,0x1f
    e0ac:	00e7e7b3          	or	x15,x15,x14
    e0b0:	01412483          	lw	x9,20(x2)
    e0b4:	01012903          	lw	x18,16(x2)
    e0b8:	00c12983          	lw	x19,12(x2)
    e0bc:	00080513          	mv	x10,x16
    e0c0:	00078593          	mv	x11,x15
    e0c4:	02010113          	add	x2,x2,32
    e0c8:	00008067          	ret
    e0cc:	70f05263          	blez	x15,e7d0 <__subdf3+0x8dc>
    e0d0:	1c0f1663          	bnez	x30,e29c <__subdf3+0x3a8>
    e0d4:	01d5e6b3          	or	x13,x11,x29
    e0d8:	26068e63          	beqz	x13,e354 <__subdf3+0x460>
    e0dc:	fff78693          	add	x13,x15,-1
    e0e0:	46068863          	beqz	x13,e550 <__subdf3+0x65c>
    e0e4:	24678c63          	beq	x15,x6,e33c <__subdf3+0x448>
    e0e8:	03800793          	li	x15,56
    e0ec:	00100913          	li	x18,1
    e0f0:	02d7cc63          	blt	x15,x13,e128 <__subdf3+0x234>
    e0f4:	00068793          	mv	x15,x13
    e0f8:	01f00693          	li	x13,31
    e0fc:	48f6ca63          	blt	x13,x15,e590 <__subdf3+0x69c>
    e100:	02000693          	li	x13,32
    e104:	40f686b3          	sub	x13,x13,x15
    e108:	00d59933          	sll	x18,x11,x13
    e10c:	00fed633          	srl	x12,x29,x15
    e110:	00de96b3          	sll	x13,x29,x13
    e114:	00c96933          	or	x18,x18,x12
    e118:	00d036b3          	snez	x13,x13
    e11c:	00f5d7b3          	srl	x15,x11,x15
    e120:	00d96933          	or	x18,x18,x13
    e124:	00f70733          	add	x14,x14,x15
    e128:	01190633          	add	x12,x18,x17
    e12c:	01263933          	sltu	x18,x12,x18
    e130:	00060493          	mv	x9,x12
    e134:	00e90933          	add	x18,x18,x14
    e138:	00891793          	sll	x15,x18,0x8
    e13c:	1e07d263          	bgez	x15,e320 <__subdf3+0x42c>
    e140:	00198993          	add	x19,x19,1
    e144:	7ff00793          	li	x15,2047
    e148:	16f98863          	beq	x19,x15,e2b8 <__subdf3+0x3c4>
    e14c:	ff8007b7          	lui	x15,0xff800
    e150:	fff78793          	add	x15,x15,-1 # ff7fffff <STACK_TOP+0xff6fffff>
    e154:	0014f513          	and	x10,x9,1
    e158:	00f977b3          	and	x15,x18,x15
    e15c:	0014d713          	srl	x14,x9,0x1
    e160:	00a76733          	or	x14,x14,x10
    e164:	01f79513          	sll	x10,x15,0x1f
    e168:	00e564b3          	or	x9,x10,x14
    e16c:	0017d913          	srl	x18,x15,0x1
    e170:	ec9ff06f          	j	e038 <__subdf3+0x144>
    e174:	01d5e833          	or	x16,x11,x29
    e178:	80198313          	add	x6,x19,-2047
    e17c:	06080863          	beqz	x16,e1ec <__subdf3+0x2f8>
    e180:	06d40a63          	beq	x8,x13,e1f4 <__subdf3+0x300>
    e184:	0e030463          	beqz	x6,e26c <__subdf3+0x378>
    e188:	26098e63          	beqz	x19,e404 <__subdf3+0x510>
    e18c:	00361513          	sll	x10,x12,0x3
    e190:	00355513          	srl	x10,x10,0x3
    e194:	00068413          	mv	x8,x13
    e198:	00058713          	mv	x14,x11
    e19c:	01d71813          	sll	x16,x14,0x1d
    e1a0:	00a86833          	or	x16,x16,x10
    e1a4:	00375713          	srl	x14,x14,0x3
    e1a8:	01076733          	or	x14,x14,x16
    e1ac:	10070663          	beqz	x14,e2b8 <__subdf3+0x3c4>
    e1b0:	00000e13          	li	x28,0
    e1b4:	7ff00793          	li	x15,2047
    e1b8:	00080737          	lui	x14,0x80
    e1bc:	00000813          	li	x16,0
    e1c0:	ed9ff06f          	j	e098 <__subdf3+0x1a4>
    e1c4:	01d5e6b3          	or	x13,x11,x29
    e1c8:	18068663          	beqz	x13,e354 <__subdf3+0x460>
    e1cc:	fff78693          	add	x13,x15,-1
    e1d0:	3a068263          	beqz	x13,e574 <__subdf3+0x680>
    e1d4:	16678463          	beq	x15,x6,e33c <__subdf3+0x448>
    e1d8:	03800793          	li	x15,56
    e1dc:	00100513          	li	x10,1
    e1e0:	dcd7cee3          	blt	x15,x13,dfbc <__subdf3+0xc8>
    e1e4:	00068793          	mv	x15,x13
    e1e8:	da5ff06f          	j	df8c <__subdf3+0x98>
    e1ec:	0016c693          	xor	x13,x13,1
    e1f0:	f8d41ae3          	bne	x8,x13,e184 <__subdf3+0x290>
    e1f4:	18030863          	beqz	x6,e384 <__subdf3+0x490>
    e1f8:	2c099063          	bnez	x19,e4b8 <__subdf3+0x5c4>
    e1fc:	7ff00793          	li	x15,2047
    e200:	011766b3          	or	x13,x14,x17
    e204:	48068863          	beqz	x13,e694 <__subdf3+0x7a0>
    e208:	fff78693          	add	x13,x15,-1
    e20c:	34068263          	beqz	x13,e550 <__subdf3+0x65c>
    e210:	7ff00513          	li	x10,2047
    e214:	2aa78263          	beq	x15,x10,e4b8 <__subdf3+0x5c4>
    e218:	03800793          	li	x15,56
    e21c:	00100913          	li	x18,1
    e220:	02d7ca63          	blt	x15,x13,e254 <__subdf3+0x360>
    e224:	01f00793          	li	x15,31
    e228:	4cd7c663          	blt	x15,x13,e6f4 <__subdf3+0x800>
    e22c:	02000793          	li	x15,32
    e230:	40d787b3          	sub	x15,x15,x13
    e234:	00f71933          	sll	x18,x14,x15
    e238:	00d8d633          	srl	x12,x17,x13
    e23c:	00f897b3          	sll	x15,x17,x15
    e240:	00c96933          	or	x18,x18,x12
    e244:	00f037b3          	snez	x15,x15
    e248:	00d756b3          	srl	x13,x14,x13
    e24c:	00f96933          	or	x18,x18,x15
    e250:	00d585b3          	add	x11,x11,x13
    e254:	01d90733          	add	x14,x18,x29
    e258:	01273933          	sltu	x18,x14,x18
    e25c:	00070493          	mv	x9,x14
    e260:	00b90933          	add	x18,x18,x11
    e264:	000f0993          	mv	x19,x30
    e268:	ed1ff06f          	j	e138 <__subdf3+0x244>
    e26c:	00198793          	add	x15,x19,1
    e270:	7fe7f793          	and	x15,x15,2046
    e274:	14079463          	bnez	x15,e3bc <__subdf3+0x4c8>
    e278:	01d5e833          	or	x16,x11,x29
    e27c:	011767b3          	or	x15,x14,x17
    e280:	2a099463          	bnez	x19,e528 <__subdf3+0x634>
    e284:	38078e63          	beqz	x15,e620 <__subdf3+0x72c>
    e288:	3c081063          	bnez	x16,e648 <__subdf3+0x754>
    e28c:	00351513          	sll	x10,x10,0x3
    e290:	00355913          	srl	x18,x10,0x3
    e294:	00000793          	li	x15,0
    e298:	1140006f          	j	e3ac <__subdf3+0x4b8>
    e29c:	0a698063          	beq	x19,x6,e33c <__subdf3+0x448>
    e2a0:	03800693          	li	x13,56
    e2a4:	00100913          	li	x18,1
    e2a8:	e8f6c0e3          	blt	x13,x15,e128 <__subdf3+0x234>
    e2ac:	008006b7          	lui	x13,0x800
    e2b0:	00d5e5b3          	or	x11,x11,x13
    e2b4:	e45ff06f          	j	e0f8 <__subdf3+0x204>
    e2b8:	00147e13          	and	x28,x8,1
    e2bc:	7ff00793          	li	x15,2047
    e2c0:	00000713          	li	x14,0
    e2c4:	00000813          	li	x16,0
    e2c8:	dd1ff06f          	j	e098 <__subdf3+0x1a4>
    e2cc:	00048513          	mv	x10,x9
    e2d0:	6bc000ef          	jal	e98c <__clzsi2>
    e2d4:	01850793          	add	x15,x10,24
    e2d8:	01f00693          	li	x13,31
    e2dc:	d0f6dae3          	bge	x13,x15,dff0 <__subdf3+0xfc>
    e2e0:	ff850713          	add	x14,x10,-8
    e2e4:	00e49733          	sll	x14,x9,x14
    e2e8:	1b37ce63          	blt	x15,x19,e4a4 <__subdf3+0x5b0>
    e2ec:	413789b3          	sub	x19,x15,x19
    e2f0:	00198793          	add	x15,x19,1
    e2f4:	42f6de63          	bge	x13,x15,e730 <__subdf3+0x83c>
    e2f8:	fe198993          	add	x19,x19,-31
    e2fc:	02000693          	li	x13,32
    e300:	013754b3          	srl	x9,x14,x19
    e304:	00d78c63          	beq	x15,x13,e31c <__subdf3+0x428>
    e308:	04000693          	li	x13,64
    e30c:	40f687b3          	sub	x15,x13,x15
    e310:	00f71733          	sll	x14,x14,x15
    e314:	00e03733          	snez	x14,x14
    e318:	00e4e4b3          	or	x9,x9,x14
    e31c:	00000993          	li	x19,0
    e320:	0074f793          	and	x15,x9,7
    e324:	d0079ee3          	bnez	x15,e040 <__subdf3+0x14c>
    e328:	00098793          	mv	x15,x19
    e32c:	0034d513          	srl	x10,x9,0x3
    e330:	00090713          	mv	x14,x18
    e334:	0280006f          	j	e35c <__subdf3+0x468>
    e338:	e6081ce3          	bnez	x16,e1b0 <__subdf3+0x2bc>
    e33c:	00351513          	sll	x10,x10,0x3
    e340:	01d71813          	sll	x16,x14,0x1d
    e344:	00355513          	srl	x10,x10,0x3
    e348:	00a86833          	or	x16,x16,x10
    e34c:	00375713          	srl	x14,x14,0x3
    e350:	e59ff06f          	j	e1a8 <__subdf3+0x2b4>
    e354:	00351513          	sll	x10,x10,0x3
    e358:	00355513          	srl	x10,x10,0x3
    e35c:	01d71813          	sll	x16,x14,0x1d
    e360:	7ff00693          	li	x13,2047
    e364:	00a86833          	or	x16,x16,x10
    e368:	00375713          	srl	x14,x14,0x3
    e36c:	e2d78ee3          	beq	x15,x13,e1a8 <__subdf3+0x2b4>
    e370:	00c71713          	sll	x14,x14,0xc
    e374:	00c75713          	srl	x14,x14,0xc
    e378:	7ff7f793          	and	x15,x15,2047
    e37c:	00147e13          	and	x28,x8,1
    e380:	d19ff06f          	j	e098 <__subdf3+0x1a4>
    e384:	00198693          	add	x13,x19,1
    e388:	7fe6f793          	and	x15,x13,2046
    e38c:	12079e63          	bnez	x15,e4c8 <__subdf3+0x5d4>
    e390:	011767b3          	or	x15,x14,x17
    e394:	24099a63          	bnez	x19,e5e8 <__subdf3+0x6f4>
    e398:	30078663          	beqz	x15,e6a4 <__subdf3+0x7b0>
    e39c:	01d5e7b3          	or	x15,x11,x29
    e3a0:	30079a63          	bnez	x15,e6b4 <__subdf3+0x7c0>
    e3a4:	00351513          	sll	x10,x10,0x3
    e3a8:	00355913          	srl	x18,x10,0x3
    e3ac:	01d71813          	sll	x16,x14,0x1d
    e3b0:	01286833          	or	x16,x16,x18
    e3b4:	00375713          	srl	x14,x14,0x3
    e3b8:	fb9ff06f          	j	e370 <__subdf3+0x47c>
    e3bc:	41d88833          	sub	x16,x17,x29
    e3c0:	0108b7b3          	sltu	x15,x17,x16
    e3c4:	40b70933          	sub	x18,x14,x11
    e3c8:	40f90933          	sub	x18,x18,x15
    e3cc:	00891793          	sll	x15,x18,0x8
    e3d0:	00080493          	mv	x9,x16
    e3d4:	1207c263          	bltz	x15,e4f8 <__subdf3+0x604>
    e3d8:	01286833          	or	x16,x16,x18
    e3dc:	c00812e3          	bnez	x16,dfe0 <__subdf3+0xec>
    e3e0:	00000e13          	li	x28,0
    e3e4:	00000793          	li	x15,0
    e3e8:	00000713          	li	x14,0
    e3ec:	cadff06f          	j	e098 <__subdf3+0x1a4>
    e3f0:	ff800937          	lui	x18,0xff800
    e3f4:	fff90913          	add	x18,x18,-1 # ff7fffff <STACK_TOP+0xff6fffff>
    e3f8:	40f989b3          	sub	x19,x19,x15
    e3fc:	01277933          	and	x18,x14,x18
    e400:	c39ff06f          	j	e038 <__subdf3+0x144>
    e404:	7ff00793          	li	x15,2047
    e408:	01176533          	or	x10,x14,x17
    e40c:	10050463          	beqz	x10,e514 <__subdf3+0x620>
    e410:	fff78813          	add	x16,x15,-1
    e414:	1e080263          	beqz	x16,e5f8 <__subdf3+0x704>
    e418:	7ff00513          	li	x10,2047
    e41c:	d6a788e3          	beq	x15,x10,e18c <__subdf3+0x298>
    e420:	03800793          	li	x15,56
    e424:	00068413          	mv	x8,x13
    e428:	00100513          	li	x10,1
    e42c:	0307ca63          	blt	x15,x16,e460 <__subdf3+0x56c>
    e430:	01f00793          	li	x15,31
    e434:	1907c463          	blt	x15,x16,e5bc <__subdf3+0x6c8>
    e438:	02000793          	li	x15,32
    e43c:	410787b3          	sub	x15,x15,x16
    e440:	00f71533          	sll	x10,x14,x15
    e444:	0108d6b3          	srl	x13,x17,x16
    e448:	00f897b3          	sll	x15,x17,x15
    e44c:	00d56533          	or	x10,x10,x13
    e450:	00f037b3          	snez	x15,x15
    e454:	01075833          	srl	x16,x14,x16
    e458:	00f56533          	or	x10,x10,x15
    e45c:	410585b3          	sub	x11,x11,x16
    e460:	40ae8533          	sub	x10,x29,x10
    e464:	00aeb733          	sltu	x14,x29,x10
    e468:	00050493          	mv	x9,x10
    e46c:	40e58933          	sub	x18,x11,x14
    e470:	000f0993          	mv	x19,x30
    e474:	b59ff06f          	j	dfcc <__subdf3+0xd8>
    e478:	fe078693          	add	x13,x15,-32
    e47c:	02000613          	li	x12,32
    e480:	00d5d6b3          	srl	x13,x11,x13
    e484:	00c78a63          	beq	x15,x12,e498 <__subdf3+0x5a4>
    e488:	04000613          	li	x12,64
    e48c:	40f607b3          	sub	x15,x12,x15
    e490:	00f597b3          	sll	x15,x11,x15
    e494:	00feeeb3          	or	x29,x29,x15
    e498:	01d03533          	snez	x10,x29
    e49c:	00d56533          	or	x10,x10,x13
    e4a0:	b1dff06f          	j	dfbc <__subdf3+0xc8>
    e4a4:	ff8006b7          	lui	x13,0xff800
    e4a8:	fff68693          	add	x13,x13,-1 # ff7fffff <STACK_TOP+0xff6fffff>
    e4ac:	40f987b3          	sub	x15,x19,x15
    e4b0:	00d77733          	and	x14,x14,x13
    e4b4:	ef9ff06f          	j	e3ac <__subdf3+0x4b8>
    e4b8:	00361513          	sll	x10,x12,0x3
    e4bc:	00355513          	srl	x10,x10,0x3
    e4c0:	00058713          	mv	x14,x11
    e4c4:	cd9ff06f          	j	e19c <__subdf3+0x2a8>
    e4c8:	7ff00793          	li	x15,2047
    e4cc:	def686e3          	beq	x13,x15,e2b8 <__subdf3+0x3c4>
    e4d0:	01d88eb3          	add	x29,x17,x29
    e4d4:	011eb633          	sltu	x12,x29,x17
    e4d8:	00b707b3          	add	x15,x14,x11
    e4dc:	00c787b3          	add	x15,x15,x12
    e4e0:	01f79513          	sll	x10,x15,0x1f
    e4e4:	001ede93          	srl	x29,x29,0x1
    e4e8:	01d564b3          	or	x9,x10,x29
    e4ec:	0017d913          	srl	x18,x15,0x1
    e4f0:	00068993          	mv	x19,x13
    e4f4:	b45ff06f          	j	e038 <__subdf3+0x144>
    e4f8:	411e8633          	sub	x12,x29,x17
    e4fc:	40e587b3          	sub	x15,x11,x14
    e500:	00ceb733          	sltu	x14,x29,x12
    e504:	00060493          	mv	x9,x12
    e508:	40e78933          	sub	x18,x15,x14
    e50c:	00068413          	mv	x8,x13
    e510:	ad1ff06f          	j	dfe0 <__subdf3+0xec>
    e514:	00361613          	sll	x12,x12,0x3
    e518:	00365513          	srl	x10,x12,0x3
    e51c:	00068413          	mv	x8,x13
    e520:	00058713          	mv	x14,x11
    e524:	e39ff06f          	j	e35c <__subdf3+0x468>
    e528:	e00798e3          	bnez	x15,e338 <__subdf3+0x444>
    e52c:	22080663          	beqz	x16,e758 <__subdf3+0x864>
    e530:	0035d713          	srl	x14,x11,0x3
    e534:	00361613          	sll	x12,x12,0x3
    e538:	01d59593          	sll	x11,x11,0x1d
    e53c:	00b76733          	or	x14,x14,x11
    e540:	00365613          	srl	x12,x12,0x3
    e544:	00c76733          	or	x14,x14,x12
    e548:	00068413          	mv	x8,x13
    e54c:	c61ff06f          	j	e1ac <__subdf3+0x2b8>
    e550:	01d88eb3          	add	x29,x17,x29
    e554:	00b705b3          	add	x11,x14,x11
    e558:	011eb633          	sltu	x12,x29,x17
    e55c:	00c58933          	add	x18,x11,x12
    e560:	00891793          	sll	x15,x18,0x8
    e564:	000e8493          	mv	x9,x29
    e568:	0a07d863          	bgez	x15,e618 <__subdf3+0x724>
    e56c:	00200993          	li	x19,2
    e570:	bddff06f          	j	e14c <__subdf3+0x258>
    e574:	41d88eb3          	sub	x29,x17,x29
    e578:	40b705b3          	sub	x11,x14,x11
    e57c:	01d8b633          	sltu	x12,x17,x29
    e580:	000e8493          	mv	x9,x29
    e584:	40c58933          	sub	x18,x11,x12
    e588:	00100993          	li	x19,1
    e58c:	a41ff06f          	j	dfcc <__subdf3+0xd8>
    e590:	fe078693          	add	x13,x15,-32
    e594:	02000613          	li	x12,32
    e598:	00d5d6b3          	srl	x13,x11,x13
    e59c:	00c78a63          	beq	x15,x12,e5b0 <__subdf3+0x6bc>
    e5a0:	04000613          	li	x12,64
    e5a4:	40f607b3          	sub	x15,x12,x15
    e5a8:	00f597b3          	sll	x15,x11,x15
    e5ac:	00feeeb3          	or	x29,x29,x15
    e5b0:	01d03933          	snez	x18,x29
    e5b4:	00d96933          	or	x18,x18,x13
    e5b8:	b71ff06f          	j	e128 <__subdf3+0x234>
    e5bc:	fe080793          	add	x15,x16,-32
    e5c0:	02000693          	li	x13,32
    e5c4:	00f757b3          	srl	x15,x14,x15
    e5c8:	00d80a63          	beq	x16,x13,e5dc <__subdf3+0x6e8>
    e5cc:	04000693          	li	x13,64
    e5d0:	410686b3          	sub	x13,x13,x16
    e5d4:	00d71733          	sll	x14,x14,x13
    e5d8:	00e8e8b3          	or	x17,x17,x14
    e5dc:	01103533          	snez	x10,x17
    e5e0:	00f56533          	or	x10,x10,x15
    e5e4:	e7dff06f          	j	e460 <__subdf3+0x56c>
    e5e8:	ec0788e3          	beqz	x15,e4b8 <__subdf3+0x5c4>
    e5ec:	01d5eeb3          	or	x29,x11,x29
    e5f0:	bc0e90e3          	bnez	x29,e1b0 <__subdf3+0x2bc>
    e5f4:	d49ff06f          	j	e33c <__subdf3+0x448>
    e5f8:	411e8633          	sub	x12,x29,x17
    e5fc:	40e585b3          	sub	x11,x11,x14
    e600:	00ceb733          	sltu	x14,x29,x12
    e604:	00060493          	mv	x9,x12
    e608:	40e58933          	sub	x18,x11,x14
    e60c:	00068413          	mv	x8,x13
    e610:	00100993          	li	x19,1
    e614:	9b9ff06f          	j	dfcc <__subdf3+0xd8>
    e618:	00100793          	li	x15,1
    e61c:	d11ff06f          	j	e32c <__subdf3+0x438>
    e620:	dc0800e3          	beqz	x16,e3e0 <__subdf3+0x4ec>
    e624:	00361613          	sll	x12,x12,0x3
    e628:	00365793          	srl	x15,x12,0x3
    e62c:	01d59813          	sll	x16,x11,0x1d
    e630:	00959713          	sll	x14,x11,0x9
    e634:	00f86833          	or	x16,x16,x15
    e638:	00c75713          	srl	x14,x14,0xc
    e63c:	00068e13          	mv	x28,x13
    e640:	00000793          	li	x15,0
    e644:	a55ff06f          	j	e098 <__subdf3+0x1a4>
    e648:	41d88933          	sub	x18,x17,x29
    e64c:	0128b7b3          	sltu	x15,x17,x18
    e650:	40b70633          	sub	x12,x14,x11
    e654:	40f60633          	sub	x12,x12,x15
    e658:	00861793          	sll	x15,x12,0x8
    e65c:	0e07d263          	bgez	x15,e740 <__subdf3+0x84c>
    e660:	411e8633          	sub	x12,x29,x17
    e664:	40e58733          	sub	x14,x11,x14
    e668:	00cebeb3          	sltu	x29,x29,x12
    e66c:	41d70733          	sub	x14,x14,x29
    e670:	00871793          	sll	x15,x14,0x8
    e674:	00060493          	mv	x9,x12
    e678:	1207de63          	bgez	x15,e7b4 <__subdf3+0x8c0>
    e67c:	ff8007b7          	lui	x15,0xff800
    e680:	fff78793          	add	x15,x15,-1 # ff7fffff <STACK_TOP+0xff6fffff>
    e684:	00f77733          	and	x14,x14,x15
    e688:	00068413          	mv	x8,x13
    e68c:	00100793          	li	x15,1
    e690:	9f1ff06f          	j	e080 <__subdf3+0x18c>
    e694:	00361613          	sll	x12,x12,0x3
    e698:	00365513          	srl	x10,x12,0x3
    e69c:	00058713          	mv	x14,x11
    e6a0:	cbdff06f          	j	e35c <__subdf3+0x468>
    e6a4:	00361613          	sll	x12,x12,0x3
    e6a8:	00365913          	srl	x18,x12,0x3
    e6ac:	00058713          	mv	x14,x11
    e6b0:	cfdff06f          	j	e3ac <__subdf3+0x4b8>
    e6b4:	01d886b3          	add	x13,x17,x29
    e6b8:	00b707b3          	add	x15,x14,x11
    e6bc:	0116b633          	sltu	x12,x13,x17
    e6c0:	00c787b3          	add	x15,x15,x12
    e6c4:	00879713          	sll	x14,x15,0x8
    e6c8:	0036d813          	srl	x16,x13,0x3
    e6cc:	08075e63          	bgez	x14,e768 <__subdf3+0x874>
    e6d0:	ff800737          	lui	x14,0xff800
    e6d4:	fff70713          	add	x14,x14,-1 # ff7fffff <STACK_TOP+0xff6fffff>
    e6d8:	00e7f7b3          	and	x15,x15,x14
    e6dc:	01d79713          	sll	x14,x15,0x1d
    e6e0:	00979793          	sll	x15,x15,0x9
    e6e4:	01076833          	or	x16,x14,x16
    e6e8:	00c7d713          	srl	x14,x15,0xc
    e6ec:	00100793          	li	x15,1
    e6f0:	9a9ff06f          	j	e098 <__subdf3+0x1a4>
    e6f4:	fe068793          	add	x15,x13,-32
    e6f8:	02000613          	li	x12,32
    e6fc:	00f757b3          	srl	x15,x14,x15
    e700:	00c68a63          	beq	x13,x12,e714 <__subdf3+0x820>
    e704:	04000613          	li	x12,64
    e708:	40d606b3          	sub	x13,x12,x13
    e70c:	00d71733          	sll	x14,x14,x13
    e710:	00e8e8b3          	or	x17,x17,x14
    e714:	01103933          	snez	x18,x17
    e718:	00f96933          	or	x18,x18,x15
    e71c:	b39ff06f          	j	e254 <__subdf3+0x360>
    e720:	0034d513          	srl	x10,x9,0x3
    e724:	00098793          	mv	x15,x19
    e728:	00090713          	mv	x14,x18
    e72c:	c31ff06f          	j	e35c <__subdf3+0x468>
    e730:	02000693          	li	x13,32
    e734:	40f686b3          	sub	x13,x13,x15
    e738:	00000613          	li	x12,0
    e73c:	8e9ff06f          	j	e024 <__subdf3+0x130>
    e740:	00c96833          	or	x16,x18,x12
    e744:	c8080ee3          	beqz	x16,e3e0 <__subdf3+0x4ec>
    e748:	00395913          	srl	x18,x18,0x3
    e74c:	00000793          	li	x15,0
    e750:	00060713          	mv	x14,x12
    e754:	c59ff06f          	j	e3ac <__subdf3+0x4b8>
    e758:	00000e13          	li	x28,0
    e75c:	7ff00793          	li	x15,2047
    e760:	00080737          	lui	x14,0x80
    e764:	935ff06f          	j	e098 <__subdf3+0x1a4>
    e768:	01d79713          	sll	x14,x15,0x1d
    e76c:	00979793          	sll	x15,x15,0x9
    e770:	01076833          	or	x16,x14,x16
    e774:	00c7d713          	srl	x14,x15,0xc
    e778:	00000793          	li	x15,0
    e77c:	91dff06f          	j	e098 <__subdf3+0x1a4>
    e780:	ae0786e3          	beqz	x15,e26c <__subdf3+0x378>
    e784:	413f0833          	sub	x16,x30,x19
    e788:	00080793          	mv	x15,x16
    e78c:	c6098ee3          	beqz	x19,e408 <__subdf3+0x514>
    e790:	03800793          	li	x15,56
    e794:	0107ca63          	blt	x15,x16,e7a8 <__subdf3+0x8b4>
    e798:	008007b7          	lui	x15,0x800
    e79c:	00f76733          	or	x14,x14,x15
    e7a0:	00068413          	mv	x8,x13
    e7a4:	c8dff06f          	j	e430 <__subdf3+0x53c>
    e7a8:	00068413          	mv	x8,x13
    e7ac:	00100513          	li	x10,1
    e7b0:	cb1ff06f          	j	e460 <__subdf3+0x56c>
    e7b4:	01d71813          	sll	x16,x14,0x1d
    e7b8:	00365613          	srl	x12,x12,0x3
    e7bc:	00c86833          	or	x16,x16,x12
    e7c0:	00375713          	srl	x14,x14,0x3
    e7c4:	00000793          	li	x15,0
    e7c8:	00068413          	mv	x8,x13
    e7cc:	ba5ff06f          	j	e370 <__subdf3+0x47c>
    e7d0:	ba078ae3          	beqz	x15,e384 <__subdf3+0x490>
    e7d4:	413f06b3          	sub	x13,x30,x19
    e7d8:	00099663          	bnez	x19,e7e4 <__subdf3+0x8f0>
    e7dc:	00068793          	mv	x15,x13
    e7e0:	a21ff06f          	j	e200 <__subdf3+0x30c>
    e7e4:	03800793          	li	x15,56
    e7e8:	00100913          	li	x18,1
    e7ec:	a6d7c4e3          	blt	x15,x13,e254 <__subdf3+0x360>
    e7f0:	008007b7          	lui	x15,0x800
    e7f4:	00f76733          	or	x14,x14,x15
    e7f8:	a2dff06f          	j	e224 <__subdf3+0x330>

Disassembly of section .text.__unorddf2:

0000e7fc <__unorddf2>:
    e7fc:	0145d713          	srl	x14,x11,0x14
    e800:	001007b7          	lui	x15,0x100
    e804:	fff78793          	add	x15,x15,-1 # fffff <_ebss+0xed54f>
    e808:	fff74713          	not	x14,x14
    e80c:	0146d813          	srl	x16,x13,0x14
    e810:	00b7f5b3          	and	x11,x15,x11
    e814:	00d7f7b3          	and	x15,x15,x13
    e818:	01571693          	sll	x13,x14,0x15
    e81c:	7ff87813          	and	x16,x16,2047
    e820:	02068063          	beqz	x13,e840 <__unorddf2+0x44>
    e824:	7ff00713          	li	x14,2047
    e828:	00000513          	li	x10,0
    e82c:	00e80463          	beq	x16,x14,e834 <__unorddf2+0x38>
    e830:	00008067          	ret
    e834:	00c7e7b3          	or	x15,x15,x12
    e838:	00f03533          	snez	x10,x15
    e83c:	00008067          	ret
    e840:	00a5e5b3          	or	x11,x11,x10
    e844:	00100513          	li	x10,1
    e848:	fc058ee3          	beqz	x11,e824 <__unorddf2+0x28>
    e84c:	00008067          	ret

Disassembly of section .text.__fixdfsi:

0000e850 <__fixdfsi>:
    e850:	0145d793          	srl	x15,x11,0x14
    e854:	001006b7          	lui	x13,0x100
    e858:	fff68713          	add	x14,x13,-1 # fffff <_ebss+0xed54f>
    e85c:	7ff7f793          	and	x15,x15,2047
    e860:	3fe00613          	li	x12,1022
    e864:	00b77733          	and	x14,x14,x11
    e868:	01f5d593          	srl	x11,x11,0x1f
    e86c:	00f65e63          	bge	x12,x15,e888 <__fixdfsi+0x38>
    e870:	41d00613          	li	x12,1053
    e874:	00f65e63          	bge	x12,x15,e890 <__fixdfsi+0x40>
    e878:	80000537          	lui	x10,0x80000
    e87c:	fff50513          	add	x10,x10,-1 # 7fffffff <STACK_TOP+0x7fefffff>
    e880:	00a58533          	add	x10,x11,x10
    e884:	00008067          	ret
    e888:	00000513          	li	x10,0
    e88c:	00008067          	ret
    e890:	43300613          	li	x12,1075
    e894:	40f60633          	sub	x12,x12,x15
    e898:	01f00813          	li	x16,31
    e89c:	00d76733          	or	x14,x14,x13
    e8a0:	02c85063          	bge	x16,x12,e8c0 <__fixdfsi+0x70>
    e8a4:	41300693          	li	x13,1043
    e8a8:	40f687b3          	sub	x15,x13,x15
    e8ac:	00f75733          	srl	x14,x14,x15
    e8b0:	40e00533          	neg	x10,x14
    e8b4:	fc059ce3          	bnez	x11,e88c <__fixdfsi+0x3c>
    e8b8:	00070513          	mv	x10,x14
    e8bc:	00008067          	ret
    e8c0:	bed78793          	add	x15,x15,-1043
    e8c4:	00f71733          	sll	x14,x14,x15
    e8c8:	00c55533          	srl	x10,x10,x12
    e8cc:	00a76733          	or	x14,x14,x10
    e8d0:	fe1ff06f          	j	e8b0 <__fixdfsi+0x60>

Disassembly of section .text.__floatsidf:

0000e8d4 <__floatsidf>:
    e8d4:	ff010113          	add	x2,x2,-16
    e8d8:	00112623          	sw	x1,12(x2)
    e8dc:	00812423          	sw	x8,8(x2)
    e8e0:	00912223          	sw	x9,4(x2)
    e8e4:	04050a63          	beqz	x10,e938 <__floatsidf+0x64>
    e8e8:	41f55713          	sra	x14,x10,0x1f
    e8ec:	00a744b3          	xor	x9,x14,x10
    e8f0:	40e484b3          	sub	x9,x9,x14
    e8f4:	00050793          	mv	x15,x10
    e8f8:	00048513          	mv	x10,x9
    e8fc:	01f7d413          	srl	x8,x15,0x1f
    e900:	08c000ef          	jal	e98c <__clzsi2>
    e904:	41e00793          	li	x15,1054
    e908:	40a787b3          	sub	x15,x15,x10
    e90c:	00a00713          	li	x14,10
    e910:	7ff7f793          	and	x15,x15,2047
    e914:	06a74063          	blt	x14,x10,e974 <__floatsidf+0xa0>
    e918:	00b00713          	li	x14,11
    e91c:	40a70733          	sub	x14,x14,x10
    e920:	00e4d733          	srl	x14,x9,x14
    e924:	01550513          	add	x10,x10,21
    e928:	00c71713          	sll	x14,x14,0xc
    e92c:	00a494b3          	sll	x9,x9,x10
    e930:	00c75713          	srl	x14,x14,0xc
    e934:	0140006f          	j	e948 <__floatsidf+0x74>
    e938:	00000413          	li	x8,0
    e93c:	00000793          	li	x15,0
    e940:	00000713          	li	x14,0
    e944:	00000493          	li	x9,0
    e948:	01479793          	sll	x15,x15,0x14
    e94c:	01f41413          	sll	x8,x8,0x1f
    e950:	00e7e7b3          	or	x15,x15,x14
    e954:	00c12083          	lw	x1,12(x2)
    e958:	0087e7b3          	or	x15,x15,x8
    e95c:	00812403          	lw	x8,8(x2)
    e960:	00048513          	mv	x10,x9
    e964:	00078593          	mv	x11,x15
    e968:	00412483          	lw	x9,4(x2)
    e96c:	01010113          	add	x2,x2,16
    e970:	00008067          	ret
    e974:	ff550513          	add	x10,x10,-11
    e978:	00a49733          	sll	x14,x9,x10
    e97c:	00c71713          	sll	x14,x14,0xc
    e980:	00c75713          	srl	x14,x14,0xc
    e984:	00000493          	li	x9,0
    e988:	fc1ff06f          	j	e948 <__floatsidf+0x74>

Disassembly of section .text.__clzsi2:

0000e98c <__clzsi2>:
    e98c:	000107b7          	lui	x15,0x10
    e990:	02f57a63          	bgeu	x10,x15,e9c4 <__clzsi2+0x38>
    e994:	10053793          	sltiu	x15,x10,256
    e998:	0017b793          	seqz	x15,x15
    e99c:	00379793          	sll	x15,x15,0x3
    e9a0:	02000713          	li	x14,32
    e9a4:	40f70733          	sub	x14,x14,x15
    e9a8:	00f55533          	srl	x10,x10,x15
    e9ac:	00001797          	auipc	x15,0x1
    e9b0:	f7078793          	add	x15,x15,-144 # f91c <__clz_tab>
    e9b4:	00a787b3          	add	x15,x15,x10
    e9b8:	0007c503          	lbu	x10,0(x15)
    e9bc:	40a70533          	sub	x10,x14,x10
    e9c0:	00008067          	ret
    e9c4:	010007b7          	lui	x15,0x1000
    e9c8:	02f57463          	bgeu	x10,x15,e9f0 <__clzsi2+0x64>
    e9cc:	01000793          	li	x15,16
    e9d0:	00f55533          	srl	x10,x10,x15
    e9d4:	00001797          	auipc	x15,0x1
    e9d8:	f4878793          	add	x15,x15,-184 # f91c <__clz_tab>
    e9dc:	00a787b3          	add	x15,x15,x10
    e9e0:	0007c503          	lbu	x10,0(x15)
    e9e4:	01000713          	li	x14,16
    e9e8:	40a70533          	sub	x10,x14,x10
    e9ec:	00008067          	ret
    e9f0:	01800793          	li	x15,24
    e9f4:	00f55533          	srl	x10,x10,x15
    e9f8:	00001797          	auipc	x15,0x1
    e9fc:	f2478793          	add	x15,x15,-220 # f91c <__clz_tab>
    ea00:	00a787b3          	add	x15,x15,x10
    ea04:	0007c503          	lbu	x10,0(x15)
    ea08:	00800713          	li	x14,8
    ea0c:	40a70533          	sub	x10,x14,x10
    ea10:	00008067          	ret

Disassembly of section .rodata.str1.4:

0000ea14 <.rodata.str1.4>:
    ea14:	656e732f          	.insn	4, 0x656e732f
    ea18:	6e617473          	.insn	4, 0x6e617473
    ea1c:	6e692e67          	.insn	4, 0x6e692e67
    ea20:	0069                	.insn	2, 0x0069
    ea22:	0000                	.insn	2, 0x
    ea24:	3d79656b          	.insn	4, 0x3d79656b
    ea28:	7325                	.insn	2, 0x7325
    ea2a:	202c                	.insn	2, 0x202c
    ea2c:	6176                	.insn	2, 0x6176
    ea2e:	756c                	.insn	2, 0x756c
    ea30:	3d65                	.insn	2, 0x3d65
    ea32:	7325                	.insn	2, 0x7325
    ea34:	000a                	.insn	2, 0x000a
    ea36:	0000                	.insn	2, 0x
    ea38:	5f64736f          	jal	x6,5602e <_ebss+0x4357e>
    ea3c:	0079656b          	.insn	4, 0x0079656b
    ea40:	6162                	.insn	2, 0x6162
    ea42:	70756b63          	bltu	x10,x7,f158 <__clzsi2+0x7cc>
    ea46:	625f 7273 6d61      	.insn	6, 0x6d617273625f
    ea4c:	0000                	.insn	2, 0x
    ea4e:	0000                	.insn	2, 0x
    ea50:	7274                	.insn	2, 0x7274
    ea52:	6575                	.insn	2, 0x6575
    ea54:	0000                	.insn	2, 0x
    ea56:	0000                	.insn	2, 0x
    ea58:	5f66                	.insn	2, 0x5f66
    ea5a:	6e65706f          	j	66140 <_ebss+0x53690>
    ea5e:	6620                	.insn	2, 0x6620
    ea60:	6961                	.insn	2, 0x6961
    ea62:	656c                	.insn	2, 0x656c
    ea64:	0064                	.insn	2, 0x0064
    ea66:	0000                	.insn	2, 0x
    ea68:	5f64736f          	jal	x6,5605e <_ebss+0x435ae>
    ea6c:	3d79656b          	.insn	4, 0x3d79656b
    ea70:	0000                	.insn	2, 0x
    ea72:	0000                	.insn	2, 0x
    ea74:	5f66                	.insn	2, 0x5f66
    ea76:	7570                	.insn	2, 0x7570
    ea78:	7374                	.insn	2, 0x7374
    ea7a:	6620                	.insn	2, 0x6620
    ea7c:	6961                	.insn	2, 0x6961
    ea7e:	656c                	.insn	2, 0x656c
    ea80:	0064                	.insn	2, 0x0064
    ea82:	0000                	.insn	2, 0x
    ea84:	0a31                	.insn	2, 0x0a31
    ea86:	0000                	.insn	2, 0x
    ea88:	0a32                	.insn	2, 0x0a32
    ea8a:	0000                	.insn	2, 0x
    ea8c:	6162                	.insn	2, 0x6162
    ea8e:	70756b63          	bltu	x10,x7,f1a4 <__clzsi2+0x818>
    ea92:	625f 7273 6d61      	.insn	6, 0x6d617273625f
    ea98:	003d                	.insn	2, 0x003d
    ea9a:	0000                	.insn	2, 0x
    ea9c:	7274                	.insn	2, 0x7274
    ea9e:	6575                	.insn	2, 0x6575
    eaa0:	000a                	.insn	2, 0x000a
    eaa2:	0000                	.insn	2, 0x
    eaa4:	6166                	.insn	2, 0x6166
    eaa6:	736c                	.insn	2, 0x736c
    eaa8:	0a65                	.insn	2, 0x0a65
    eaaa:	0000                	.insn	2, 0x
    eaac:	6f6c                	.insn	2, 0x6f6c
    eaae:	6461                	.insn	2, 0x6461
    eab0:	645f 7269 203a      	.insn	6, 0x203a7269645f
    eab6:	7325                	.insn	2, 0x7325
    eab8:	202c                	.insn	2, 0x202c
    eaba:	72617473          	.insn	4, 0x72617473
    eabe:	3d74                	.insn	2, 0x3d74
    eac0:	6425                	.insn	2, 0x6425
    eac2:	202c                	.insn	2, 0x202c
    eac4:	656c                	.insn	2, 0x656c
    eac6:	3d6e                	.insn	2, 0x3d6e
    eac8:	6425                	.insn	2, 0x6425
    eaca:	000a                	.insn	2, 0x000a
    eacc:	3c3c                	.insn	2, 0x3c3c
    eace:	5220                	.insn	2, 0x5220
    ead0:	7465                	.insn	2, 0x7465
    ead2:	7275                	.insn	2, 0x7275
    ead4:	206e                	.insn	2, 0x206e
    ead6:	6f74                	.insn	2, 0x6f74
    ead8:	6d20                	.insn	2, 0x6d20
    eada:	6961                	.insn	2, 0x6961
    eadc:	206e                	.insn	2, 0x206e
    eade:	656d                	.insn	2, 0x656d
    eae0:	756e                	.insn	2, 0x756e
    eae2:	0000                	.insn	2, 0x
    eae4:	2e2e                	.insn	2, 0x2e2e
    eae6:	0000                	.insn	2, 0x
    eae8:	6f6c                	.insn	2, 0x6f6c
    eaea:	6461                	.insn	2, 0x6461
    eaec:	645f 7269 203a      	.insn	6, 0x203a7269645f
    eaf2:	6e756f63          	bltu	x10,x7,f1f0 <__clzsi2+0x864>
    eaf6:	3d74                	.insn	2, 0x3d74
    eaf8:	6425                	.insn	2, 0x6425
    eafa:	000a                	.insn	2, 0x000a
    eafc:	2d2d                	.insn	2, 0x2d2d
    eafe:	202d                	.insn	2, 0x202d
    eb00:	6974704f          	.insn	4, 0x6974704f
    eb04:	20736e6f          	jal	x28,4550a <_ebss+0x32a5a>
    eb08:	2d2d                	.insn	2, 0x2d2d
    eb0a:	002d                	.insn	2, 0x002d
    eb0c:	2044534f          	.insn	4, 0x2044534f
    eb10:	6f68                	.insn	2, 0x6f68
    eb12:	2074                	.insn	2, 0x2074
    eb14:	3a79656b          	.insn	4, 0x3a79656b
    eb18:	0000                	.insn	2, 0x
    eb1a:	0000                	.insn	2, 0x
    eb1c:	454c4553          	.insn	4, 0x454c4553
    eb20:	53265443          	.insn	4, 0x53265443
    eb24:	4154                	.insn	2, 0x4154
    eb26:	5452                	.insn	2, 0x5452
    eb28:	0000                	.insn	2, 0x
    eb2a:	0000                	.insn	2, 0x
    eb2c:	454c4553          	.insn	4, 0x454c4553
    eb30:	52265443          	.insn	4, 0x52265443
    eb34:	4749                	.insn	2, 0x4749
    eb36:	5448                	.insn	2, 0x5448
    eb38:	0000                	.insn	2, 0x
    eb3a:	0000                	.insn	2, 0x
    eb3c:	6142                	.insn	2, 0x6142
    eb3e:	70756b63          	bltu	x10,x7,f254 <__clzsi2+0x8c8>
    eb42:	4220                	.insn	2, 0x4220
    eb44:	4d415253          	.insn	4, 0x4d415253
    eb48:	003a                	.insn	2, 0x003a
    eb4a:	0000                	.insn	2, 0x
    eb4c:	6559                	.insn	2, 0x6559
    eb4e:	6f4e0073          	.insn	4, 0x6f4e0073
    eb52:	0000                	.insn	2, 0x
    eb54:	69766153          	.insn	4, 0x69766153
    eb58:	676e                	.insn	2, 0x676e
    eb5a:	6f20                	.insn	2, 0x6f20
    eb5c:	7470                	.insn	2, 0x7470
    eb5e:	6f69                	.insn	2, 0x6f69
    eb60:	736e                	.insn	2, 0x736e
    eb62:	2e2e                	.insn	2, 0x2e2e
    eb64:	002e                	.insn	2, 0x002e
    eb66:	0000                	.insn	2, 0x
    eb68:	6e6e6143          	.insn	4, 0x6e6e6143
    eb6c:	7320746f          	jal	x8,1629e <_ebss+0x37ee>
    eb70:	7661                	.insn	2, 0x7661
    eb72:	2065                	.insn	2, 0x2065
    eb74:	6974706f          	j	56a0a <_ebss+0x43f5a>
    eb78:	20736e6f          	jal	x28,4557e <_ebss+0x32ace>
    eb7c:	6f74                	.insn	2, 0x6f74
    eb7e:	5320                	.insn	2, 0x5320
    eb80:	0044                	.insn	2, 0x0044
    eb82:	0000                	.insn	2, 0x
    eb84:	657a6973          	.insn	4, 0x657a6973
    eb88:	253d                	.insn	2, 0x253d
    eb8a:	0064                	.insn	2, 0x0064
    eb8c:	6f70                	.insn	2, 0x6f70
    eb8e:	78253d73          	.insn	4, 0x78253d73
    eb92:	202c                	.insn	2, 0x202c
    eb94:	7974                	.insn	2, 0x7974
    eb96:	6570                	.insn	2, 0x6570
    eb98:	253d                	.insn	2, 0x253d
    eb9a:	2c64                	.insn	2, 0x2c64
    eb9c:	6d20                	.insn	2, 0x6d20
    eb9e:	7061                	.insn	2, 0x7061
    eba0:	635f 7274 3d6c      	.insn	6, 0x3d6c7274635f
    eba6:	6425                	.insn	2, 0x6425
    eba8:	202c                	.insn	2, 0x202c
    ebaa:	6f72                	.insn	2, 0x6f72
    ebac:	3d6d                	.insn	2, 0x3d6d
    ebae:	6425                	.insn	2, 0x6425
    ebb0:	202c                	.insn	2, 0x202c
    ebb2:	6172                	.insn	2, 0x6172
    ebb4:	3d6d                	.insn	2, 0x3d6d
    ebb6:	6425                	.insn	2, 0x6425
    ebb8:	202c                	.insn	2, 0x202c
    ebba:	63656863          	bltu	x10,x22,f1ea <__clzsi2+0x85e>
    ebbe:	6d75736b          	.insn	4, 0x6d75736b
    ebc2:	253d                	.insn	2, 0x253d
    ebc4:	2c78                	.insn	2, 0x2c78
    ebc6:	6320                	.insn	2, 0x6320
    ebc8:	6568                	.insn	2, 0x6568
    ebca:	75736b63          	bltu	x6,x23,f320 <ExCvt+0x88>
    ebce:	5f6d                	.insn	2, 0x5f6d
    ebd0:	706d6f63          	bltu	x26,x6,f2ee <ExCvt+0x56>
    ebd4:	253d                	.insn	2, 0x253d
    ebd6:	2c78                	.insn	2, 0x2c78
    ebd8:	7220                	.insn	2, 0x7220
    ebda:	7365                	.insn	2, 0x7365
    ebdc:	7465                	.insn	2, 0x7465
    ebde:	253d                	.insn	2, 0x253d
    ebe0:	2c78                	.insn	2, 0x2c78
    ebe2:	7320                	.insn	2, 0x7320
    ebe4:	65726f63          	bltu	x4,x23,f242 <__clzsi2+0x8b6>
    ebe8:	253d                	.insn	2, 0x253d
    ebea:	0a64                	.insn	2, 0x0a64
    ebec:	0000                	.insn	2, 0x
    ebee:	0000                	.insn	2, 0x
    ebf0:	6568435b          	.insn	4, 0x6568435b
    ebf4:	7461                	.insn	2, 0x7461
    ebf6:	43205d73          	.insn	4, 0x43205d73
    ebfa:	6e61                	.insn	2, 0x6e61
    ebfc:	6f6e                	.insn	2, 0x6f6e
    ebfe:	2074                	.insn	2, 0x2074
    ec00:	6e65706f          	j	662e6 <_ebss+0x53836>
    ec04:	6620                	.insn	2, 0x6620
    ec06:	6c69                	.insn	2, 0x6c69
    ec08:	0a65                	.insn	2, 0x0a65
    ec0a:	0000                	.insn	2, 0x
    ec0c:	6568435b          	.insn	4, 0x6568435b
    ec10:	7461                	.insn	2, 0x7461
    ec12:	45205d73          	.insn	4, 0x45205d73
    ec16:	706d                	.insn	2, 0x706d
    ec18:	7974                	.insn	2, 0x7974
    ec1a:	6620                	.insn	2, 0x6620
    ec1c:	6c69                	.insn	2, 0x6c69
    ec1e:	0a65                	.insn	2, 0x0a65
    ec20:	0000                	.insn	2, 0x
    ec22:	0000                	.insn	2, 0x
    ec24:	6568435b          	.insn	4, 0x6568435b
    ec28:	7461                	.insn	2, 0x7461
    ec2a:	45205d73          	.insn	4, 0x45205d73
    ec2e:	706d                	.insn	2, 0x706d
    ec30:	7974                	.insn	2, 0x7974
    ec32:	6220                	.insn	2, 0x6220
    ec34:	6675                	.insn	2, 0x6675
    ec36:	6566                	.insn	2, 0x6566
    ec38:	0a72                	.insn	2, 0x0a72
    ec3a:	0000                	.insn	2, 0x
    ec3c:	6568435b          	.insn	4, 0x6568435b
    ec40:	7461                	.insn	2, 0x7461
    ec42:	54205d73          	.insn	4, 0x54205d73
    ec46:	5458                	.insn	2, 0x5458
    ec48:	6e20                	.insn	2, 0x6e20
    ec4a:	6620746f          	jal	x8,162ac <_ebss+0x37fc>
    ec4e:	646e756f          	jal	x10,f6294 <_ebss+0xe37e4>
    ec52:	000a                	.insn	2, 0x000a
    ec54:	742e                	.insn	2, 0x742e
    ec56:	7478                	.insn	2, 0x7478
    ec58:	0000                	.insn	2, 0x
    ec5a:	0000                	.insn	2, 0x
    ec5c:	6568435b          	.insn	4, 0x6568435b
    ec60:	7461                	.insn	2, 0x7461
    ec62:	4f205d73          	.insn	4, 0x4f205d73
    ec66:	6c6e                	.insn	2, 0x6c6e
    ec68:	2079                	.insn	2, 0x2079
    ec6a:	742e                	.insn	2, 0x742e
    ec6c:	7478                	.insn	2, 0x7478
    ec6e:	7320                	.insn	2, 0x7320
    ec70:	7075                	.insn	2, 0x7075
    ec72:	6f70                	.insn	2, 0x6f70
    ec74:	7472                	.insn	2, 0x7472
    ec76:	6465                	.insn	2, 0x6465
    ec78:	000a                	.insn	2, 0x000a
    ec7a:	0000                	.insn	2, 0x
    ec7c:	6568435b          	.insn	4, 0x6568435b
    ec80:	7461                	.insn	2, 0x7461
    ec82:	43205d73          	.insn	4, 0x43205d73
    ec86:	6e61                	.insn	2, 0x6e61
    ec88:	6f6e                	.insn	2, 0x6f6e
    ec8a:	2074                	.insn	2, 0x2074
    ec8c:	6170                	.insn	2, 0x6170
    ec8e:	7372                	.insn	2, 0x7372
    ec90:	2065                	.insn	2, 0x2065
    ec92:	5854                	.insn	2, 0x5854
    ec94:	0a54                	.insn	2, 0x0a54
    ec96:	0000                	.insn	2, 0x
    ec98:	0000002f          	.insn	4, 0x002f
    ec9c:	6f6c                	.insn	2, 0x6f6c
    ec9e:	6461                	.insn	2, 0x6461
    eca0:	656e                	.insn	2, 0x656e
    eca2:	74732073          	.insn	4, 0x74732073
    eca6:	7261                	.insn	2, 0x7261
    eca8:	0a74                	.insn	2, 0x0a74
    ecaa:	0000                	.insn	2, 0x
    ecac:	6e2e                	.insn	2, 0x6e2e
    ecae:	7365                	.insn	2, 0x7365
    ecb0:	0000                	.insn	2, 0x
    ecb2:	0000                	.insn	2, 0x
    ecb4:	796c6e4f          	.insn	4, 0x796c6e4f
    ecb8:	2e20                	.insn	2, 0x2e20
    ecba:	656e                	.insn	2, 0x656e
    ecbc:	75732073          	.insn	4, 0x75732073
    ecc0:	7070                	.insn	2, 0x7070
    ecc2:	6574726f          	jal	x4,56b18 <_ebss+0x44068>
    ecc6:	0064                	.insn	2, 0x0064
    ecc8:	6e6e6143          	.insn	4, 0x6e6e6143
    eccc:	6f20746f          	jal	x8,163be <_ebss+0x390e>
    ecd0:	6570                	.insn	2, 0x6570
    ecd2:	206e                	.insn	2, 0x206e
    ecd4:	6966                	.insn	2, 0x6966
    ecd6:	656c                	.insn	2, 0x656c
    ecd8:	0000                	.insn	2, 0x
    ecda:	0000                	.insn	2, 0x
    ecdc:	6b656553          	.insn	4, 0x6b656553
    ece0:	6620                	.insn	2, 0x6620
    ece2:	6961                	.insn	2, 0x6961
    ece4:	756c                	.insn	2, 0x756c
    ece6:	6572                	.insn	2, 0x6572
    ece8:	0000                	.insn	2, 0x
    ecea:	0000                	.insn	2, 0x
    ecec:	6425                	.insn	2, 0x6425
    ecee:	4b64252f          	.insn	4, 0x4b64252f
    ecf2:	0000                	.insn	2, 0x
    ecf4:	6f6c                	.insn	2, 0x6f6c
    ecf6:	6461                	.insn	2, 0x6461
    ecf8:	656e                	.insn	2, 0x656e
    ecfa:	25203a73          	.insn	4, 0x25203a73
    ecfe:	2064                	.insn	2, 0x2064
    ed00:	7962                	.insn	2, 0x7962
    ed02:	6574                	.insn	2, 0x6574
    ed04:	00000a73          	.insn	4, 0x0a73
    ed08:	61656843          	.insn	4, 0x61656843
    ed0c:	7374                	.insn	2, 0x7374
    ed0e:	6120                	.insn	2, 0x6120
    ed10:	6176                	.insn	2, 0x6176
    ed12:	6c69                	.insn	2, 0x6c69
    ed14:	6261                	.insn	2, 0x6261
    ed16:	656c                	.insn	2, 0x656c
    ed18:	0000                	.insn	2, 0x
    ed1a:	0000                	.insn	2, 0x
    ed1c:	61656843          	.insn	4, 0x61656843
    ed20:	7374                	.insn	2, 0x7374
    ed22:	7520                	.insn	2, 0x7520
    ed24:	616e                	.insn	2, 0x616e
    ed26:	6176                	.insn	2, 0x6176
    ed28:	6c69                	.insn	2, 0x6c69
    ed2a:	6261                	.insn	2, 0x6261
    ed2c:	656c                	.insn	2, 0x656c
    ed2e:	0000                	.insn	2, 0x
    ed30:	63637553          	.insn	4, 0x63637553
    ed34:	7365                	.insn	2, 0x7365
    ed36:	61430073          	.insn	4, 0x61430073
    ed3a:	6e6e                	.insn	2, 0x6e6e
    ed3c:	6320746f          	jal	x8,1636e <_ebss+0x38be>
    ed40:	6572                	.insn	2, 0x6572
    ed42:	7461                	.insn	2, 0x7461
    ed44:	2065                	.insn	2, 0x2065
    ed46:	7661732f          	.insn	4, 0x7661732f
    ed4a:	7365                	.insn	2, 0x7365
    ed4c:	0000                	.insn	2, 0x
    ed4e:	0000                	.insn	2, 0x
    ed50:	6e6e6143          	.insn	4, 0x6e6e6143
    ed54:	6320746f          	jal	x8,16386 <_ebss+0x38d6>
    ed58:	6572                	.insn	2, 0x6572
    ed5a:	7461                	.insn	2, 0x7461
    ed5c:	2065                	.insn	2, 0x2065
    ed5e:	7661732f          	.insn	4, 0x7661732f
    ed62:	7365                	.insn	2, 0x7365
    ed64:	000a                	.insn	2, 0x000a
    ed66:	0000                	.insn	2, 0x
    ed68:	6f4c                	.insn	2, 0x6f4c
    ed6a:	6461                	.insn	2, 0x6461
    ed6c:	6e69                	.insn	2, 0x6e69
    ed6e:	73622067          	.insn	4, 0x73622067
    ed72:	6172                	.insn	2, 0x6172
    ed74:	206d                	.insn	2, 0x206d
    ed76:	7266                	.insn	2, 0x7266
    ed78:	203a6d6f          	jal	x26,b577a <_ebss+0xa2cca>
    ed7c:	7325                	.insn	2, 0x7325
    ed7e:	000a                	.insn	2, 0x000a
    ed80:	6e6e6143          	.insn	4, 0x6e6e6143
    ed84:	6f20746f          	jal	x8,16476 <_ebss+0x39c6>
    ed88:	6570                	.insn	2, 0x6570
    ed8a:	206e                	.insn	2, 0x206e
    ed8c:	7362                	.insn	2, 0x7362
    ed8e:	6172                	.insn	2, 0x6172
    ed90:	206d                	.insn	2, 0x206d
    ed92:	6966                	.insn	2, 0x6966
    ed94:	656c                	.insn	2, 0x656c
    ed96:	202c                	.insn	2, 0x202c
    ed98:	7361                	.insn	2, 0x7361
    ed9a:	696d7573          	.insn	4, 0x696d7573
    ed9e:	676e                	.insn	2, 0x676e
    eda0:	6e20                	.insn	2, 0x6e20
    eda2:	7765                	.insn	2, 0x7765
    eda4:	000a                	.insn	2, 0x000a
    eda6:	0000                	.insn	2, 0x
    eda8:	7342                	.insn	2, 0x7342
    edaa:	6172                	.insn	2, 0x6172
    edac:	206d                	.insn	2, 0x206d
    edae:	6162                	.insn	2, 0x6162
    edb0:	70756b63          	bltu	x10,x7,f4c6 <cvt2.0+0x8a>
    edb4:	6c20                	.insn	2, 0x6c20
    edb6:	6564616f          	jal	x2,5540c <_ebss+0x4295c>
    edba:	2064                	.insn	2, 0x2064
    edbc:	6425                	.insn	2, 0x6425
    edbe:	6220                	.insn	2, 0x6220
    edc0:	7479                	.insn	2, 0x7479
    edc2:	7365                	.insn	2, 0x7365
    edc4:	4320                	.insn	2, 0x4320
    edc6:	4352                	.insn	2, 0x4352
    edc8:	253d                	.insn	2, 0x253d
    edca:	2e78                	.insn	2, 0x2e78
    edcc:	000a                	.insn	2, 0x000a
    edce:	0000                	.insn	2, 0x
    edd0:	732e                	.insn	2, 0x732e
    edd2:	6366                	.insn	2, 0x6366
    edd4:	0000                	.insn	2, 0x
    edd6:	0000                	.insn	2, 0x
    edd8:	732e                	.insn	2, 0x732e
    edda:	636d                	.insn	2, 0x636d
    eddc:	0000                	.insn	2, 0x
    edde:	0000                	.insn	2, 0x
    ede0:	796c6e4f          	.insn	4, 0x796c6e4f
    ede4:	2e20                	.insn	2, 0x2e20
    ede6:	20636d73          	.insn	4, 0x20636d73
    edea:	2e20726f          	jal	x4,160cc <_ebss+0x361c>
    edee:	20636673          	.insn	4, 0x20636673
    edf2:	70707573          	.insn	4, 0x70707573
    edf6:	6574726f          	jal	x4,56c4c <_ebss+0x4419c>
    edfa:	0064                	.insn	2, 0x0064
    edfc:	732e                	.insn	2, 0x732e
    edfe:	6d72                	.insn	2, 0x6d72
    ee00:	0000                	.insn	2, 0x
    ee02:	0000                	.insn	2, 0x
    ee04:	3d66666f          	jal	x12,751da <_ebss+0x6272a>
    ee08:	6425                	.insn	2, 0x6425
    ee0a:	000a                	.insn	2, 0x000a
    ee0c:	6f4e                	.insn	2, 0x6f4e
    ee0e:	2074                	.insn	2, 0x2074
    ee10:	2061                	.insn	2, 0x2061
    ee12:	53454e53          	.insn	4, 0x53454e53
    ee16:	5220                	.insn	2, 0x5220
    ee18:	66204d4f          	.insn	4, 0x66204d4f
    ee1c:	6c69                	.insn	2, 0x6c69
    ee1e:	0065                	.insn	2, 0x0065
    ee20:	4c20                	.insn	2, 0x4c20
    ee22:	4820006f          	j	f2a4 <ExCvt+0xc>
    ee26:	0069                	.insn	2, 0x0069
    ee28:	4520                	.insn	2, 0x4520
    ee2a:	4878                	.insn	2, 0x4878
    ee2c:	0069                	.insn	2, 0x0069
    ee2e:	0000                	.insn	2, 0x
    ee30:	5220                	.insn	2, 0x5220
    ee32:	253d4d4f          	.insn	4, 0x253d4d4f
    ee36:	2064                	.insn	2, 0x2064
    ee38:	4152                	.insn	2, 0x4152
    ee3a:	3d4d                	.insn	2, 0x3d4d
    ee3c:	6425                	.insn	2, 0x6425
    ee3e:	0000                	.insn	2, 0x
    ee40:	6150                	.insn	2, 0x6150
    ee42:	00206567          	.insn	4, 0x00206567
    ee46:	0000                	.insn	2, 0x
    ee48:	6425                	.insn	2, 0x6425
    ee4a:	0064252f          	.insn	4, 0x0064252f
    ee4e:	0000                	.insn	2, 0x
    ee50:	6e6e6143          	.insn	4, 0x6e6e6143
    ee54:	6c20746f          	jal	x8,16516 <_ebss+0x3a66>
    ee58:	2064616f          	jal	x2,5505e <_ebss+0x425ae>
    ee5c:	6f72                	.insn	2, 0x6f72
    ee5e:	006d                	.insn	2, 0x006d
    ee60:	7245                	.insn	2, 0x7245
    ee62:	6f72                	.insn	2, 0x6f72
    ee64:	2072                	.insn	2, 0x2072
    ee66:	6e65706f          	j	6654c <_ebss+0x53a9c>
    ee6a:	6e69                	.insn	2, 0x6e69
    ee6c:	69642067          	.insn	4, 0x69642067
    ee70:	6572                	.insn	2, 0x6572
    ee72:	726f7463          	bgeu	x30,x6,f59a <cvt1.1+0xa2>
    ee76:	0079                	.insn	2, 0x0079
    ee78:	2520                	.insn	2, 0x2520
    ee7a:	0064                	.insn	2, 0x0064
    ee7c:	654e                	.insn	2, 0x654e
    ee7e:	52432077          	.insn	4, 0x52432077
    ee82:	25203a43          	.insn	4, 0x25203a43
    ee86:	2c78                	.insn	2, 0x2c78
    ee88:	7320                	.insn	2, 0x7320
    ee8a:	7a69                	.insn	2, 0x7a69
    ee8c:	3d65                	.insn	2, 0x3d65
    ee8e:	6425                	.insn	2, 0x6425
    ee90:	000a                	.insn	2, 0x000a
    ee92:	0000                	.insn	2, 0x
    ee94:	6e6e6143          	.insn	4, 0x6e6e6143
    ee98:	7720746f          	jal	x8,1660a <_ebss+0x3b5a>
    ee9c:	6972                	.insn	2, 0x6972
    ee9e:	6574                	.insn	2, 0x6574
    eea0:	7320                	.insn	2, 0x7320
    eea2:	7661                	.insn	2, 0x7661
    eea4:	2065                	.insn	2, 0x2065
    eea6:	6966                	.insn	2, 0x6966
    eea8:	656c                	.insn	2, 0x656c
    eeaa:	0000                	.insn	2, 0x
    eeac:	74697257          	.insn	4, 0x74697257
    eeb0:	2065                	.insn	2, 0x2065
    eeb2:	6166                	.insn	2, 0x6166
    eeb4:	6c69                	.insn	2, 0x6c69
    eeb6:	7275                	.insn	2, 0x7275
    eeb8:	0065                	.insn	2, 0x0065
    eeba:	0000                	.insn	2, 0x
    eebc:	74697257          	.insn	4, 0x74697257
    eec0:	2065                	.insn	2, 0x2065
    eec2:	6166                	.insn	2, 0x6166
    eec4:	6c69                	.insn	2, 0x6c69
    eec6:	7275                	.insn	2, 0x7275
    eec8:	2c65                	.insn	2, 0x2c65
    eeca:	6220                	.insn	2, 0x6220
    eecc:	64253d77          	.insn	4, 0x64253d77
    eed0:	000a                	.insn	2, 0x000a
    eed2:	0000                	.insn	2, 0x
    eed4:	5342                	.insn	2, 0x5342
    eed6:	4152                	.insn	2, 0x4152
    eed8:	204d                	.insn	2, 0x204d
    eeda:	65766173          	.insn	4, 0x65766173
    eede:	2064                	.insn	2, 0x2064
    eee0:	6425                	.insn	2, 0x6425
    eee2:	67612073          	.insn	4, 0x67612073
    eee6:	0000206f          	j	10ee6 <fs+0x112>
    eeea:	0000                	.insn	2, 0x
    eeec:	45524f43          	.insn	4, 0x45524f43
    eef0:	495f 3d44 6425      	.insn	6, 0x64253d44495f
    eef6:	000a                	.insn	2, 0x000a
    eef8:	6e49                	.insn	2, 0x6e49
    eefa:	74726573          	.insn	4, 0x74726573
    eefe:	5320                	.insn	2, 0x5320
    ef00:	2044                	.insn	2, 0x2044
    ef02:	64726163          	bltu	x4,x7,f544 <cvt1.1+0x4c>
    ef06:	6120                	.insn	2, 0x6120
    ef08:	646e                	.insn	2, 0x646e
    ef0a:	7020                	.insn	2, 0x7020
    ef0c:	6572                	.insn	2, 0x6572
    ef0e:	61207373          	.insn	4, 0x61207373
    ef12:	796e                	.insn	2, 0x796e
    ef14:	6b20                	.insn	2, 0x6b20
    ef16:	7965                	.insn	2, 0x7965
    ef18:	0000                	.insn	2, 0x
    ef1a:	0000                	.insn	2, 0x
    ef1c:	6974704f          	.insn	4, 0x6974704f
    ef20:	66206e6f          	jal	x28,15582 <_ebss+0x2ad2>
    ef24:	6c69                	.insn	2, 0x6c69
    ef26:	2065                	.insn	2, 0x2065
    ef28:	72726f63          	bltu	x4,x7,f666 <cvt1.1+0x16e>
    ef2c:	7075                	.insn	2, 0x7075
    ef2e:	2074                	.insn	2, 0x2074
    ef30:	6e61                	.insn	2, 0x6e61
    ef32:	2064                	.insn	2, 0x2064
    ef34:	7369                	.insn	2, 0x7369
    ef36:	6e20                	.insn	2, 0x6e20
    ef38:	6c20746f          	jal	x8,165fa <_ebss+0x3b4a>
    ef3c:	6564616f          	jal	x2,55592 <_ebss+0x42ae2>
    ef40:	0064                	.insn	2, 0x0064
    ef42:	0000                	.insn	2, 0x
    ef44:	3d3d                	.insn	2, 0x3d3d
    ef46:	203d                	.insn	2, 0x203d
    ef48:	636c6557          	.insn	4, 0x636c6557
    ef4c:	20656d6f          	jal	x26,65152 <_ebss+0x526a2>
    ef50:	6f74                	.insn	2, 0x6f74
    ef52:	4e20                	.insn	2, 0x4e20
    ef54:	5345                	.insn	2, 0x5345
    ef56:	6154                	.insn	2, 0x6154
    ef58:	676e                	.insn	2, 0x676e
    ef5a:	3d20                	.insn	2, 0x3d20
    ef5c:	3d3d                	.insn	2, 0x3d3d
    ef5e:	0000                	.insn	2, 0x
    ef60:	7e7e                	.insn	2, 0x7e7e
    ef62:	207e                	.insn	2, 0x207e
    ef64:	636c6557          	.insn	4, 0x636c6557
    ef68:	20656d6f          	jal	x26,6516e <_ebss+0x526be>
    ef6c:	6f74                	.insn	2, 0x6f74
    ef6e:	5320                	.insn	2, 0x5320
    ef70:	454e                	.insn	2, 0x454e
    ef72:	6e615453          	.insn	4, 0x6e615453
    ef76:	7e7e2067          	.insn	4, 0x7e7e2067
    ef7a:	007e                	.insn	2, 0x007e
    ef7c:	2931                	.insn	2, 0x2931
    ef7e:	4c20                	.insn	2, 0x4c20
    ef80:	2064616f          	jal	x2,55186 <_ebss+0x426d6>
    ef84:	4f52                	.insn	2, 0x4f52
    ef86:	204d                	.insn	2, 0x204d
    ef88:	7266                	.insn	2, 0x7266
    ef8a:	53206d6f          	jal	x26,154bc <_ebss+0x2a0c>
    ef8e:	2044                	.insn	2, 0x2044
    ef90:	64726163          	bltu	x4,x7,f5d2 <cvt1.1+0xda>
    ef94:	000a                	.insn	2, 0x000a
    ef96:	0000                	.insn	2, 0x
    ef98:	2932                	.insn	2, 0x2932
    ef9a:	4320                	.insn	2, 0x4320
    ef9c:	6568                	.insn	2, 0x6568
    ef9e:	7461                	.insn	2, 0x7461
    efa0:	6e652073          	.insn	4, 0x6e652073
    efa4:	6261                	.insn	2, 0x6261
    efa6:	656c                	.insn	2, 0x656c
    efa8:	0a64                	.insn	2, 0x0a64
    efaa:	0000                	.insn	2, 0x
    efac:	2932                	.insn	2, 0x2932
    efae:	4320                	.insn	2, 0x4320
    efb0:	6568                	.insn	2, 0x6568
    efb2:	7461                	.insn	2, 0x7461
    efb4:	69642073          	.insn	4, 0x69642073
    efb8:	6c626173          	.insn	4, 0x6c626173
    efbc:	6465                	.insn	2, 0x6465
    efbe:	000a                	.insn	2, 0x000a
    efc0:	4f202933          	.insn	4, 0x4f202933
    efc4:	7470                	.insn	2, 0x7470
    efc6:	6f69                	.insn	2, 0x6f69
    efc8:	736e                	.insn	2, 0x736e
    efca:	000a                	.insn	2, 0x000a
    efcc:	6556                	.insn	2, 0x6556
    efce:	7372                	.insn	2, 0x7372
    efd0:	6f69                	.insn	2, 0x6f69
    efd2:	3a6e                	.insn	2, 0x3a6e
    efd4:	0020                	.insn	2, 0x0020
    efd6:	0000                	.insn	2, 0x
    efd8:	7041                	.insn	2, 0x7041
    efda:	2072                	.insn	2, 0x2072
    efdc:	3820                	.insn	2, 0x3820
    efde:	3220                	.insn	2, 0x3220
    efe0:	3230                	.insn	2, 0x3230
    efe2:	0034                	.insn	2, 0x0034
    efe4:	3130                	.insn	2, 0x3130
    efe6:	3332                	.insn	2, 0x3332
    efe8:	3534                	.insn	2, 0x3534
    efea:	3736                	.insn	2, 0x3736
    efec:	3938                	.insn	2, 0x3938
    efee:	4241                	.insn	2, 0x4241
    eff0:	46454443          	.insn	4, 0x46454443
    eff4:	0000                	.insn	2, 0x
    eff6:	0000                	.insn	2, 0x
    eff8:	003e                	.insn	2, 0x003e
    effa:	0000                	.insn	2, 0x
    effc:	69204453          	.insn	4, 0x69204453
    f000:	696e                	.insn	2, 0x696e
    f002:	2074                	.insn	2, 0x2074
    f004:	6166                	.insn	2, 0x6166
    f006:	6c69                	.insn	2, 0x6c69
    f008:	7275                	.insn	2, 0x7275
    f00a:	3a65                	.insn	2, 0x3a65
    f00c:	4320                	.insn	2, 0x4320
    f00e:	444d                	.insn	2, 0x444d
    f010:	0a30                	.insn	2, 0x0a30
    f012:	0000                	.insn	2, 0x
    f014:	69204453          	.insn	4, 0x69204453
    f018:	696e                	.insn	2, 0x696e
    f01a:	2074                	.insn	2, 0x2074
    f01c:	6166                	.insn	2, 0x6166
    f01e:	6c69                	.insn	2, 0x6c69
    f020:	7275                	.insn	2, 0x7275
    f022:	3a65                	.insn	2, 0x3a65
    f024:	4120                	.insn	2, 0x4120
    f026:	34444d43          	.insn	4, 0x34444d43
    f02a:	2c31                	.insn	2, 0x2c31
    f02c:	2520                	.insn	2, 0x2520
    f02e:	0a64                	.insn	2, 0x0a64
    f030:	0000                	.insn	2, 0x
    f032:	0000                	.insn	2, 0x
    f034:	4341                	.insn	2, 0x4341
    f036:	444d                	.insn	2, 0x444d
    f038:	3134                	.insn	2, 0x3134
    f03a:	7320                	.insn	2, 0x7320
    f03c:	6375                	.insn	2, 0x6375
    f03e:	64656563          	bltu	x10,x6,f688 <cvt1.1+0x190>
    f042:	6465                	.insn	2, 0x6465
    f044:	6120                	.insn	2, 0x6120
    f046:	7466                	.insn	2, 0x7466
    f048:	7265                	.insn	2, 0x7265
    f04a:	2520                	.insn	2, 0x2520
    f04c:	2064                	.insn	2, 0x2064
    f04e:	7274                	.insn	2, 0x7274
    f050:	6569                	.insn	2, 0x6569
    f052:	000a2e73          	.insn	4, 0x000a2e73
    f056:	0000                	.insn	2, 0x
    f058:	69204453          	.insn	4, 0x69204453
    f05c:	696e                	.insn	2, 0x696e
    f05e:	2074                	.insn	2, 0x2074
    f060:	706d6f63          	bltu	x26,x6,f77e <cvt1.1+0x286>
    f064:	656c                	.insn	2, 0x656c
    f066:	6574                	.insn	2, 0x6574
    f068:	202e                	.insn	2, 0x202e
    f06a:	63686473          	.insn	4, 0x63686473
    f06e:	635f 7261 3d64      	.insn	6, 0x3d647261635f
    f074:	6425                	.insn	2, 0x6425
    f076:	202c                	.insn	2, 0x202c
    f078:	765f6473          	.insn	4, 0x765f6473
    f07c:	7265                	.insn	2, 0x7265
    f07e:	6e6f6973          	.insn	4, 0x6e6f6973
    f082:	253d                	.insn	2, 0x253d
    f084:	0a64                	.insn	2, 0x0a64
    f086:	0000                	.insn	2, 0x
    f088:	2e20                	.insn	2, 0x2e20
    f08a:	2e2e                	.insn	2, 0x2e2e
    f08c:	0020                	.insn	2, 0x0020
    f08e:	0000                	.insn	2, 0x
    f090:	775f6473          	.insn	4, 0x775f6473
    f094:	6972                	.insn	2, 0x6972
    f096:	6574                	.insn	2, 0x6574
    f098:	74636573          	.insn	4, 0x74636573
    f09c:	203a726f          	jal	x4,b6a9e <_ebss+0xa3fee>
    f0a0:	6425                	.insn	2, 0x6425
    f0a2:	2520                	.insn	2, 0x2520
    f0a4:	0a64                	.insn	2, 0x0a64
    f0a6:	0000                	.insn	2, 0x
    f0a8:	775f6473          	.insn	4, 0x775f6473
    f0ac:	6972                	.insn	2, 0x6972
    f0ae:	6574                	.insn	2, 0x6574
    f0b0:	74636573          	.insn	4, 0x74636573
    f0b4:	203a726f          	jal	x4,b6ab6 <_ebss+0xa4006>
    f0b8:	6142                	.insn	2, 0x6142
    f0ba:	2064                	.insn	2, 0x2064
    f0bc:	6572                	.insn	2, 0x6572
    f0be:	6e6f7073          	.insn	4, 0x6e6f7073
    f0c2:	25206573          	.insn	4, 0x25206573
    f0c6:	0a78                	.insn	2, 0x0a78
    f0c8:	0000                	.insn	2, 0x
    f0ca:	0000                	.insn	2, 0x
    f0cc:	775f6473          	.insn	4, 0x775f6473
    f0d0:	6972                	.insn	2, 0x6972
    f0d2:	6574                	.insn	2, 0x6574
    f0d4:	74636573          	.insn	4, 0x74636573
    f0d8:	203a726f          	jal	x4,b6ada <_ebss+0xa402a>
    f0dc:	6144                	.insn	2, 0x6144
    f0de:	6174                	.insn	2, 0x6174
    f0e0:	7220                	.insn	2, 0x7220
    f0e2:	6a65                	.insn	2, 0x6a65
    f0e4:	6365                	.insn	2, 0x6365
    f0e6:	6574                	.insn	2, 0x6574
    f0e8:	2064                	.insn	2, 0x2064
    f0ea:	7825                	.insn	2, 0x7825
    f0ec:	000a                	.insn	2, 0x000a
    f0ee:	0000                	.insn	2, 0x
    f0f0:	775f6473          	.insn	4, 0x775f6473
    f0f4:	6972                	.insn	2, 0x6972
    f0f6:	6574                	.insn	2, 0x6574
    f0f8:	74636573          	.insn	4, 0x74636573
    f0fc:	203a726f          	jal	x4,b6afe <_ebss+0xa404e>
    f100:	6954                	.insn	2, 0x6954
    f102:	656d                	.insn	2, 0x656d
    f104:	0a74756f          	jal	x10,569aa <_ebss+0x43efa>
    f108:	0000                	.insn	2, 0x
    f10a:	0000                	.insn	2, 0x
    f10c:	6e6e6143          	.insn	4, 0x6e6e6143
    f110:	6920746f          	jal	x8,167a2 <_ebss+0x3cf2>
    f114:	696e                	.insn	2, 0x696e
    f116:	6974                	.insn	2, 0x6974
    f118:	6c61                	.insn	2, 0x6c61
    f11a:	7a69                	.insn	2, 0x7a69
    f11c:	2065                	.insn	2, 0x2065
    f11e:	000a6473          	.insn	4, 0x000a6473
    f122:	0000                	.insn	2, 0x
    f124:	459076eb          	.insn	4, 0x459076eb
    f128:	4658                	.insn	2, 0x4658
    f12a:	5441                	.insn	2, 0x5441
    f12c:	2020                	.insn	2, 0x2020
    f12e:	0020                	.insn	2, 0x0020
    f130:	4146                	.insn	2, 0x4146
    f132:	3354                	.insn	2, 0x3354
    f134:	2032                	.insn	2, 0x2032
    f136:	2020                	.insn	2, 0x2020
    f138:	0000                	.insn	2, 0x
    f13a:	0000                	.insn	2, 0x
    f13c:	3a2a                	.insn	2, 0x3a2a
    f13e:	3e3c                	.insn	2, 0x3e3c
    f140:	227c                	.insn	2, 0x227c
    f142:	00007f3f 2c2b0000 	.insn	8, 0x2c2b000000007f3f
    f14a:	5d5b3d3b          	.insn	4, 0x5d5b3d3b
    f14e:	0000                	.insn	2, 0x
    f150:	614e                	.insn	2, 0x614e
    f152:	004e                	.insn	2, 0x004e
    f154:	0000564f          	.insn	4, 0x564f
    f158:	4e49                	.insn	2, 0x4e49
    f15a:	0046                	.insn	2, 0x0046

Disassembly of section .rodata:

0000f15c <LfnOfs-0x12c>:
    f15c:	2488                	.insn	2, 0x2488
    f15e:	0000                	.insn	2, 0x
    f160:	2470                	.insn	2, 0x2470
    f162:	0000                	.insn	2, 0x
    f164:	2458                	.insn	2, 0x2458
    f166:	0000                	.insn	2, 0x
    f168:	24c0                	.insn	2, 0x24c0
    f16a:	0000                	.insn	2, 0x
    f16c:	24c0                	.insn	2, 0x24c0
    f16e:	0000                	.insn	2, 0x
    f170:	24c0                	.insn	2, 0x24c0
    f172:	0000                	.insn	2, 0x
    f174:	24c0                	.insn	2, 0x24c0
    f176:	0000                	.insn	2, 0x
    f178:	24c0                	.insn	2, 0x24c0
    f17a:	0000                	.insn	2, 0x
    f17c:	24c0                	.insn	2, 0x24c0
    f17e:	0000                	.insn	2, 0x
    f180:	24c0                	.insn	2, 0x24c0
    f182:	0000                	.insn	2, 0x
    f184:	24c0                	.insn	2, 0x24c0
    f186:	0000                	.insn	2, 0x
    f188:	24c0                	.insn	2, 0x24c0
    f18a:	0000                	.insn	2, 0x
    f18c:	24c0                	.insn	2, 0x24c0
    f18e:	0000                	.insn	2, 0x
    f190:	24c0                	.insn	2, 0x24c0
    f192:	0000                	.insn	2, 0x
    f194:	24c0                	.insn	2, 0x24c0
    f196:	0000                	.insn	2, 0x
    f198:	24c0                	.insn	2, 0x24c0
    f19a:	0000                	.insn	2, 0x
    f19c:	24c0                	.insn	2, 0x24c0
    f19e:	0000                	.insn	2, 0x
    f1a0:	2428                	.insn	2, 0x2428
    f1a2:	0000                	.insn	2, 0x
    f1a4:	24c0                	.insn	2, 0x24c0
    f1a6:	0000                	.insn	2, 0x
    f1a8:	24c0                	.insn	2, 0x24c0
    f1aa:	0000                	.insn	2, 0x
    f1ac:	24c0                	.insn	2, 0x24c0
    f1ae:	0000                	.insn	2, 0x
    f1b0:	24a4                	.insn	2, 0x24a4
    f1b2:	0000                	.insn	2, 0x
    f1b4:	2440                	.insn	2, 0x2440
    f1b6:	0000                	.insn	2, 0x
    f1b8:	acac                	.insn	2, 0xacac
    f1ba:	0000                	.insn	2, 0x
    f1bc:	b05c                	.insn	2, 0xb05c
    f1be:	0000                	.insn	2, 0x
    f1c0:	b05c                	.insn	2, 0xb05c
    f1c2:	0000                	.insn	2, 0x
    f1c4:	b05c                	.insn	2, 0xb05c
    f1c6:	0000                	.insn	2, 0x
    f1c8:	b05c                	.insn	2, 0xb05c
    f1ca:	0000                	.insn	2, 0x
    f1cc:	b05c                	.insn	2, 0xb05c
    f1ce:	0000                	.insn	2, 0x
    f1d0:	b05c                	.insn	2, 0xb05c
    f1d2:	0000                	.insn	2, 0x
    f1d4:	b05c                	.insn	2, 0xb05c
    f1d6:	0000                	.insn	2, 0x
    f1d8:	b05c                	.insn	2, 0xb05c
    f1da:	0000                	.insn	2, 0x
    f1dc:	b05c                	.insn	2, 0xb05c
    f1de:	0000                	.insn	2, 0x
    f1e0:	b05c                	.insn	2, 0xb05c
    f1e2:	0000                	.insn	2, 0x
    f1e4:	b05c                	.insn	2, 0xb05c
    f1e6:	0000                	.insn	2, 0x
    f1e8:	b05c                	.insn	2, 0xb05c
    f1ea:	0000                	.insn	2, 0x
    f1ec:	b05c                	.insn	2, 0xb05c
    f1ee:	0000                	.insn	2, 0x
    f1f0:	b05c                	.insn	2, 0xb05c
    f1f2:	0000                	.insn	2, 0x
    f1f4:	b05c                	.insn	2, 0xb05c
    f1f6:	0000                	.insn	2, 0x
    f1f8:	b05c                	.insn	2, 0xb05c
    f1fa:	0000                	.insn	2, 0x
    f1fc:	b05c                	.insn	2, 0xb05c
    f1fe:	0000                	.insn	2, 0x
    f200:	b05c                	.insn	2, 0xb05c
    f202:	0000                	.insn	2, 0x
    f204:	b290                	.insn	2, 0xb290
    f206:	0000                	.insn	2, 0x
    f208:	b05c                	.insn	2, 0xb05c
    f20a:	0000                	.insn	2, 0x
    f20c:	b05c                	.insn	2, 0xb05c
    f20e:	0000                	.insn	2, 0x
    f210:	b05c                	.insn	2, 0xb05c
    f212:	0000                	.insn	2, 0x
    f214:	b05c                	.insn	2, 0xb05c
    f216:	0000                	.insn	2, 0x
    f218:	b05c                	.insn	2, 0xb05c
    f21a:	0000                	.insn	2, 0x
    f21c:	b05c                	.insn	2, 0xb05c
    f21e:	0000                	.insn	2, 0x
    f220:	b05c                	.insn	2, 0xb05c
    f222:	0000                	.insn	2, 0x
    f224:	b05c                	.insn	2, 0xb05c
    f226:	0000                	.insn	2, 0x
    f228:	b05c                	.insn	2, 0xb05c
    f22a:	0000                	.insn	2, 0x
    f22c:	b2fc                	.insn	2, 0xb2fc
    f22e:	0000                	.insn	2, 0x
    f230:	abc4                	.insn	2, 0xabc4
    f232:	0000                	.insn	2, 0x
    f234:	b06c                	.insn	2, 0xb06c
    f236:	0000                	.insn	2, 0x
    f238:	acac                	.insn	2, 0xacac
    f23a:	0000                	.insn	2, 0x
    f23c:	acac                	.insn	2, 0xacac
    f23e:	0000                	.insn	2, 0x
    f240:	b05c                	.insn	2, 0xb05c
    f242:	0000                	.insn	2, 0x
    f244:	b05c                	.insn	2, 0xb05c
    f246:	0000                	.insn	2, 0x
    f248:	b05c                	.insn	2, 0xb05c
    f24a:	0000                	.insn	2, 0x
    f24c:	b05c                	.insn	2, 0xb05c
    f24e:	0000                	.insn	2, 0x
    f250:	b05c                	.insn	2, 0xb05c
    f252:	0000                	.insn	2, 0x
    f254:	b05c                	.insn	2, 0xb05c
    f256:	0000                	.insn	2, 0x
    f258:	b05c                	.insn	2, 0xb05c
    f25a:	0000                	.insn	2, 0x
    f25c:	b05c                	.insn	2, 0xb05c
    f25e:	0000                	.insn	2, 0x
    f260:	b288                	.insn	2, 0xb288
    f262:	0000                	.insn	2, 0x
    f264:	b05c                	.insn	2, 0xb05c
    f266:	0000                	.insn	2, 0x
    f268:	b05c                	.insn	2, 0xb05c
    f26a:	0000                	.insn	2, 0x
    f26c:	b05c                	.insn	2, 0xb05c
    f26e:	0000                	.insn	2, 0x
    f270:	abe0                	.insn	2, 0xabe0
    f272:	0000                	.insn	2, 0x
    f274:	b05c                	.insn	2, 0xb05c
    f276:	0000                	.insn	2, 0x
    f278:	b06c                	.insn	2, 0xb06c
    f27a:	0000                	.insn	2, 0x
    f27c:	b05c                	.insn	2, 0xb05c
    f27e:	0000                	.insn	2, 0x
    f280:	b05c                	.insn	2, 0xb05c
    f282:	0000                	.insn	2, 0x
    f284:	b290                	.insn	2, 0xb290
	...

0000f288 <LfnOfs>:
    f288:	0301                	.insn	2, 0x0301
    f28a:	0705                	.insn	2, 0x0705
    f28c:	0e09                	.insn	2, 0x0e09
    f28e:	1210                	.insn	2, 0x1210
    f290:	1614                	.insn	2, 0x1614
    f292:	1c18                	.insn	2, 0x1c18
    f294:	001e                	.insn	2, 0x001e
	...

0000f298 <ExCvt>:
    f298:	9a80                	.insn	2, 0x9a80
    f29a:	4145                	.insn	2, 0x4145
    f29c:	418e                	.insn	2, 0x418e
    f29e:	4545808f          	.insn	4, 0x4545808f
    f2a2:	4945                	.insn	2, 0x4945
    f2a4:	4949                	.insn	2, 0x4949
    f2a6:	8f8e                	.insn	2, 0x8f8e
    f2a8:	9290                	.insn	2, 0x9290
    f2aa:	4f92                	.insn	2, 0x4f92
    f2ac:	4f99                	.insn	2, 0x4f99
    f2ae:	5555                	.insn	2, 0x5555
    f2b0:	9959                	.insn	2, 0x9959
    f2b2:	9b9a                	.insn	2, 0x9b9a
    f2b4:	9d9c                	.insn	2, 0x9d9c
    f2b6:	9f9e                	.insn	2, 0x9f9e
    f2b8:	4941                	.insn	2, 0x4941
    f2ba:	a5a5554f          	.insn	4, 0xa5a5554f
    f2be:	a7a6                	.insn	2, 0xa7a6
    f2c0:	a9a8                	.insn	2, 0xa9a8
    f2c2:	abaa                	.insn	2, 0xabaa
    f2c4:	adac                	.insn	2, 0xadac
    f2c6:	afae                	.insn	2, 0xafae
    f2c8:	b1b0                	.insn	2, 0xb1b0
    f2ca:	b3b2                	.insn	2, 0xb3b2
    f2cc:	b5b4                	.insn	2, 0xb5b4
    f2ce:	b7b6                	.insn	2, 0xb7b6
    f2d0:	b9b8                	.insn	2, 0xb9b8
    f2d2:	bbba                	.insn	2, 0xbbba
    f2d4:	bdbc                	.insn	2, 0xbdbc
    f2d6:	bfbe                	.insn	2, 0xbfbe
    f2d8:	c1c0                	.insn	2, 0xc1c0
    f2da:	c3c2                	.insn	2, 0xc3c2
    f2dc:	c5c4                	.insn	2, 0xc5c4
    f2de:	c7c6                	.insn	2, 0xc7c6
    f2e0:	c9c8                	.insn	2, 0xc9c8
    f2e2:	cbca                	.insn	2, 0xcbca
    f2e4:	cdcc                	.insn	2, 0xcdcc
    f2e6:	cfce                	.insn	2, 0xcfce
    f2e8:	d1d0                	.insn	2, 0xd1d0
    f2ea:	d3d2                	.insn	2, 0xd3d2
    f2ec:	d5d4                	.insn	2, 0xd5d4
    f2ee:	d7d6                	.insn	2, 0xd7d6
    f2f0:	d9d8                	.insn	2, 0xd9d8
    f2f2:	dbda                	.insn	2, 0xdbda
    f2f4:	dddc                	.insn	2, 0xdddc
    f2f6:	dfde                	.insn	2, 0xdfde
    f2f8:	e1e0                	.insn	2, 0xe1e0
    f2fa:	e3e2                	.insn	2, 0xe3e2
    f2fc:	e5e4                	.insn	2, 0xe5e4
    f2fe:	e7e6                	.insn	2, 0xe7e6
    f300:	e9e8                	.insn	2, 0xe9e8
    f302:	ebea                	.insn	2, 0xebea
    f304:	edec                	.insn	2, 0xedec
    f306:	efee                	.insn	2, 0xefee
    f308:	f1f0                	.insn	2, 0xf1f0
    f30a:	f3f2                	.insn	2, 0xf3f2
    f30c:	f5f4                	.insn	2, 0xf5f4
    f30e:	f7f6                	.insn	2, 0xf7f6
    f310:	f9f8                	.insn	2, 0xf9f8
    f312:	fbfa                	.insn	2, 0xfbfa
    f314:	fdfc                	.insn	2, 0xfdfc
    f316:	fffe                	.insn	2, 0xfffe
    f318:	b4d8                	.insn	2, 0xb4d8
    f31a:	0000                	.insn	2, 0x
    f31c:	b4f0                	.insn	2, 0xb4f0
    f31e:	0000                	.insn	2, 0x
    f320:	b508                	.insn	2, 0xb508
    f322:	0000                	.insn	2, 0x
    f324:	b518                	.insn	2, 0xb518
    f326:	0000                	.insn	2, 0x
    f328:	b528                	.insn	2, 0xb528
    f32a:	0000                	.insn	2, 0x
    f32c:	b538                	.insn	2, 0xb538
    f32e:	0000                	.insn	2, 0x
    f330:	b548                	.insn	2, 0xb548
    f332:	0000                	.insn	2, 0x
    f334:	b558                	.insn	2, 0xb558
    f336:	0000                	.insn	2, 0x
    f338:	b568                	.insn	2, 0xb568
	...

0000f33c <uc437>:
    f33c:	00fc00c7          	.insn	4, 0x00fc00c7
    f340:	00e9                	.insn	2, 0x00e9
    f342:	00e2                	.insn	2, 0x00e2
    f344:	00e4                	.insn	2, 0x00e4
    f346:	00e0                	.insn	2, 0x00e0
    f348:	00e5                	.insn	2, 0x00e5
    f34a:	00ea00e7          	jalr	14(x20)
    f34e:	00e800eb          	.insn	4, 0x00e800eb
    f352:	00ee00ef          	jal	ef360 <_ebss+0xdc8b0>
    f356:	00ec                	.insn	2, 0x00ec
    f358:	00c4                	.insn	2, 0x00c4
    f35a:	00c5                	.insn	2, 0x00c5
    f35c:	00c9                	.insn	2, 0x00c9
    f35e:	00e6                	.insn	2, 0x00e6
    f360:	00c6                	.insn	2, 0x00c6
    f362:	00f4                	.insn	2, 0x00f4
    f364:	00f6                	.insn	2, 0x00f6
    f366:	00f2                	.insn	2, 0x00f2
    f368:	00f900fb          	.insn	4, 0x00f900fb
    f36c:	00ff 00d6 00dc 00a2 	.insn	10, 0x00a300a200dc00d600ff
    f374:	00a3 
    f376:	00a5                	.insn	2, 0x00a5
    f378:	019220a7          	.insn	4, 0x019220a7
    f37c:	00e1                	.insn	2, 0x00e1
    f37e:	00ed                	.insn	2, 0x00ed
    f380:	00fa00f3          	.insn	4, 0x00fa00f3
    f384:	00f1                	.insn	2, 0x00f1
    f386:	00d1                	.insn	2, 0x00d1
    f388:	00aa                	.insn	2, 0x00aa
    f38a:	00ba                	.insn	2, 0x00ba
    f38c:	231000bf 00bd00ac 	.insn	8, 0x00bd00ac231000bf
    f394:	00bc                	.insn	2, 0x00bc
    f396:	00a1                	.insn	2, 0x00a1
    f398:	00bb00ab          	.insn	4, 0x00bb00ab
    f39c:	2591                	.insn	2, 0x2591
    f39e:	2592                	.insn	2, 0x2592
    f3a0:	25022593          	slti	x11,x4,592
    f3a4:	2524                	.insn	2, 0x2524
    f3a6:	2561                	.insn	2, 0x2561
    f3a8:	2562                	.insn	2, 0x2562
    f3aa:	2556                	.insn	2, 0x2556
    f3ac:	2555                	.insn	2, 0x2555
    f3ae:	25512563          	.insn	4, 0x25512563
    f3b2:	255d2557          	.insn	4, 0x255d2557
    f3b6:	255c                	.insn	2, 0x255c
    f3b8:	2510255b          	.insn	4, 0x2510255b
    f3bc:	2514                	.insn	2, 0x2514
    f3be:	2534                	.insn	2, 0x2534
    f3c0:	252c                	.insn	2, 0x252c
    f3c2:	251c                	.insn	2, 0x251c
    f3c4:	2500                	.insn	2, 0x2500
    f3c6:	253c                	.insn	2, 0x253c
    f3c8:	255e                	.insn	2, 0x255e
    f3ca:	255f 255a 2554      	.insn	6, 0x2554255a255f
    f3d0:	2569                	.insn	2, 0x2569
    f3d2:	2566                	.insn	2, 0x2566
    f3d4:	2560                	.insn	2, 0x2560
    f3d6:	2550                	.insn	2, 0x2550
    f3d8:	256c                	.insn	2, 0x256c
    f3da:	25682567          	.insn	4, 0x25682567
    f3de:	2564                	.insn	2, 0x2564
    f3e0:	2565                	.insn	2, 0x2565
    f3e2:	2559                	.insn	2, 0x2559
    f3e4:	2558                	.insn	2, 0x2558
    f3e6:	2552                	.insn	2, 0x2552
    f3e8:	256b2553          	.insn	4, 0x256b2553
    f3ec:	256a                	.insn	2, 0x256a
    f3ee:	2518                	.insn	2, 0x2518
    f3f0:	250c                	.insn	2, 0x250c
    f3f2:	2588                	.insn	2, 0x2588
    f3f4:	2584                	.insn	2, 0x2584
    f3f6:	258c                	.insn	2, 0x258c
    f3f8:	2590                	.insn	2, 0x2590
    f3fa:	2580                	.insn	2, 0x2580
    f3fc:	03b1                	.insn	2, 0x03b1
    f3fe:	00df 0393 03c0      	.insn	6, 0x03c0039300df
    f404:	03c303a3          	sb	x28,39(x6)
    f408:	00b5                	.insn	2, 0x00b5
    f40a:	03c4                	.insn	2, 0x03c4
    f40c:	03a6                	.insn	2, 0x03a6
    f40e:	0398                	.insn	2, 0x0398
    f410:	03a9                	.insn	2, 0x03a9
    f412:	03b4                	.insn	2, 0x03b4
    f414:	221e                	.insn	2, 0x221e
    f416:	03c6                	.insn	2, 0x03c6
    f418:	03b5                	.insn	2, 0x03b5
    f41a:	2229                	.insn	2, 0x2229
    f41c:	2261                	.insn	2, 0x2261
    f41e:	00b1                	.insn	2, 0x00b1
    f420:	2265                	.insn	2, 0x2265
    f422:	2264                	.insn	2, 0x2264
    f424:	2320                	.insn	2, 0x2320
    f426:	2321                	.insn	2, 0x2321
    f428:	224800f7          	.insn	4, 0x224800f7
    f42c:	00b0                	.insn	2, 0x00b0
    f42e:	2219                	.insn	2, 0x2219
    f430:	221a00b7          	lui	x1,0x221a0
    f434:	207f 00b2 25a0 00a0 	.insn	14, 0x2c6300011d7d00a025a000b2207f
    f43c:	   

0000f43c <cvt2.0>:
    f43c:	1d7d                	.insn	2, 0x1d7d
    f43e:	0001                	.insn	2, 0x0001
    f440:	1e002c63          	.insn	4, 0x1e002c63
    f444:	0196                	.insn	2, 0x0196
    f446:	1ea0                	.insn	2, 0x1ea0
    f448:	015a                	.insn	2, 0x015a
    f44a:	1f00                	.insn	2, 0x1f00
    f44c:	0608                	.insn	2, 0x0608
    f44e:	1f10                	.insn	2, 0x1f10
    f450:	0606                	.insn	2, 0x0606
    f452:	1f20                	.insn	2, 0x1f20
    f454:	0608                	.insn	2, 0x0608
    f456:	1f30                	.insn	2, 0x1f30
    f458:	0608                	.insn	2, 0x0608
    f45a:	1f40                	.insn	2, 0x1f40
    f45c:	0606                	.insn	2, 0x0606
    f45e:	1f51                	.insn	2, 0x1f51
    f460:	1f590007          	.insn	4, 0x1f590007
    f464:	1f52                	.insn	2, 0x1f52
    f466:	1f541f5b          	.insn	4, 0x1f541f5b
    f46a:	1f5d                	.insn	2, 0x1f5d
    f46c:	1f56                	.insn	2, 0x1f56
    f46e:	1f5f 1f60 0608      	.insn	6, 0x06081f601f5f
    f474:	1f70                	.insn	2, 0x1f70
    f476:	000e                	.insn	2, 0x000e
    f478:	1fba                	.insn	2, 0x1fba
    f47a:	1fc81fbb          	.insn	4, 0x1fc81fbb
    f47e:	1fc9                	.insn	2, 0x1fc9
    f480:	1fca                	.insn	2, 0x1fca
    f482:	1fda1fcb          	.insn	4, 0x1fda1fcb
    f486:	1ff81fdb          	.insn	4, 0x1ff81fdb
    f48a:	1ff9                	.insn	2, 0x1ff9
    f48c:	1fea                	.insn	2, 0x1fea
    f48e:	1ffa1feb          	.insn	4, 0x1ffa1feb
    f492:	1f801ffb          	.insn	4, 0x1f801ffb
    f496:	0608                	.insn	2, 0x0608
    f498:	1f90                	.insn	2, 0x1f90
    f49a:	0608                	.insn	2, 0x0608
    f49c:	1fa0                	.insn	2, 0x1fa0
    f49e:	0608                	.insn	2, 0x0608
    f4a0:	1fb0                	.insn	2, 0x1fb0
    f4a2:	0004                	.insn	2, 0x0004
    f4a4:	1fb8                	.insn	2, 0x1fb8
    f4a6:	1fb9                	.insn	2, 0x1fb9
    f4a8:	1fb2                	.insn	2, 0x1fb2
    f4aa:	1fbc                	.insn	2, 0x1fbc
    f4ac:	1fcc                	.insn	2, 0x1fcc
    f4ae:	0001                	.insn	2, 0x0001
    f4b0:	1fd01fc3          	.insn	4, 0x1fd01fc3
    f4b4:	0602                	.insn	2, 0x0602
    f4b6:	1fe0                	.insn	2, 0x1fe0
    f4b8:	0602                	.insn	2, 0x0602
    f4ba:	1fe5                	.insn	2, 0x1fe5
    f4bc:	0001                	.insn	2, 0x0001
    f4be:	1fec                	.insn	2, 0x1fec
    f4c0:	00011ff3          	.insn	4, 0x00011ff3
    f4c4:	1ffc                	.insn	2, 0x1ffc
    f4c6:	214e                	.insn	2, 0x214e
    f4c8:	0001                	.insn	2, 0x0001
    f4ca:	2132                	.insn	2, 0x2132
    f4cc:	2170                	.insn	2, 0x2170
    f4ce:	0210                	.insn	2, 0x0210
    f4d0:	2184                	.insn	2, 0x2184
    f4d2:	0001                	.insn	2, 0x0001
    f4d4:	24d02183          	lw	x3,589(x0) # 24d <message+0x51>
    f4d8:	051a                	.insn	2, 0x051a
    f4da:	2c30                	.insn	2, 0x2c30
    f4dc:	2c60042f          	.insn	4, 0x2c60042f
    f4e0:	0102                	.insn	2, 0x0102
    f4e2:	01062c67          	.insn	4, 0x01062c67
    f4e6:	2c75                	.insn	2, 0x2c75
    f4e8:	0102                	.insn	2, 0x0102
    f4ea:	2c80                	.insn	2, 0x2c80
    f4ec:	0164                	.insn	2, 0x0164
    f4ee:	2d00                	.insn	2, 0x2d00
    f4f0:	0826                	.insn	2, 0x0826
    f4f2:	ff41                	.insn	2, 0xff41
    f4f4:	031a                	.insn	2, 0x031a
	...

0000f4f8 <cvt1.1>:
    f4f8:	0061                	.insn	2, 0x0061
    f4fa:	031a                	.insn	2, 0x031a
    f4fc:	00e0                	.insn	2, 0x00e0
    f4fe:	00f80317          	auipc	x6,0xf80
    f502:	00ff0307          	.insn	4, 0x00ff0307
    f506:	0001                	.insn	2, 0x0001
    f508:	0178                	.insn	2, 0x0178
    f50a:	0100                	.insn	2, 0x0100
    f50c:	0130                	.insn	2, 0x0130
    f50e:	0132                	.insn	2, 0x0132
    f510:	0106                	.insn	2, 0x0106
    f512:	0139                	.insn	2, 0x0139
    f514:	0110                	.insn	2, 0x0110
    f516:	014a                	.insn	2, 0x014a
    f518:	012e                	.insn	2, 0x012e
    f51a:	0179                	.insn	2, 0x0179
    f51c:	0106                	.insn	2, 0x0106
    f51e:	0180                	.insn	2, 0x0180
    f520:	004d                	.insn	2, 0x004d
    f522:	01810243          	.insn	4, 0x01810243
    f526:	0182                	.insn	2, 0x0182
    f528:	0182                	.insn	2, 0x0182
    f52a:	0184                	.insn	2, 0x0184
    f52c:	0184                	.insn	2, 0x0184
    f52e:	0186                	.insn	2, 0x0186
    f530:	01870187          	.insn	4, 0x01870187
    f534:	0189                	.insn	2, 0x0189
    f536:	018a                	.insn	2, 0x018a
    f538:	018b018b          	.insn	4, 0x018b018b
    f53c:	018d                	.insn	2, 0x018d
    f53e:	018e                	.insn	2, 0x018e
    f540:	0190018f          	.insn	4, 0x0190018f
    f544:	0191                	.insn	2, 0x0191
    f546:	0191                	.insn	2, 0x0191
    f548:	01940193          	add	x3,x8,25
    f54c:	01f6                	.insn	2, 0x01f6
    f54e:	0196                	.insn	2, 0x0196
    f550:	01980197          	auipc	x3,0x1980
    f554:	0198                	.insn	2, 0x0198
    f556:	023d                	.insn	2, 0x023d
    f558:	019c019b          	.insn	4, 0x019c019b
    f55c:	019d                	.insn	2, 0x019d
    f55e:	0220                	.insn	2, 0x0220
    f560:	019f 01a0 01a0      	.insn	6, 0x01a001a0019f
    f566:	01a2                	.insn	2, 0x01a2
    f568:	01a2                	.insn	2, 0x01a2
    f56a:	01a4                	.insn	2, 0x01a4
    f56c:	01a4                	.insn	2, 0x01a4
    f56e:	01a6                	.insn	2, 0x01a6
    f570:	01a701a7          	.insn	4, 0x01a701a7
    f574:	01a9                	.insn	2, 0x01a9
    f576:	01aa                	.insn	2, 0x01aa
    f578:	01ac01ab          	.insn	4, 0x01ac01ab
    f57c:	01ac                	.insn	2, 0x01ac
    f57e:	01ae                	.insn	2, 0x01ae
    f580:	01af01af          	.insn	4, 0x01af01af
    f584:	01b1                	.insn	2, 0x01b1
    f586:	01b2                	.insn	2, 0x01b2
    f588:	01b301b3          	add	x3,x6,x27
    f58c:	01b5                	.insn	2, 0x01b5
    f58e:	01b5                	.insn	2, 0x01b5
    f590:	01b801b7          	lui	x3,0x1b80
    f594:	01b8                	.insn	2, 0x01b8
    f596:	01ba                	.insn	2, 0x01ba
    f598:	01bc01bb          	.insn	4, 0x01bc01bb
    f59c:	01bc                	.insn	2, 0x01bc
    f59e:	01be                	.insn	2, 0x01be
    f5a0:	01c001f7          	.insn	4, 0x01c001f7
    f5a4:	01c1                	.insn	2, 0x01c1
    f5a6:	01c2                	.insn	2, 0x01c2
    f5a8:	01c401c3          	.insn	4, 0x01c401c3
    f5ac:	01c5                	.insn	2, 0x01c5
    f5ae:	01c4                	.insn	2, 0x01c4
    f5b0:	01c801c7          	.insn	4, 0x01c801c7
    f5b4:	01ca01c7          	.insn	4, 0x01ca01c7
    f5b8:	01ca01cb          	.insn	4, 0x01ca01cb
    f5bc:	01cd                	.insn	2, 0x01cd
    f5be:	0110                	.insn	2, 0x0110
    f5c0:	01dd                	.insn	2, 0x01dd
    f5c2:	0001                	.insn	2, 0x0001
    f5c4:	018e                	.insn	2, 0x018e
    f5c6:	01de                	.insn	2, 0x01de
    f5c8:	0112                	.insn	2, 0x0112
    f5ca:	000301f3          	.insn	4, 0x000301f3
    f5ce:	01f1                	.insn	2, 0x01f1
    f5d0:	01f4                	.insn	2, 0x01f4
    f5d2:	01f4                	.insn	2, 0x01f4
    f5d4:	01f8                	.insn	2, 0x01f8
    f5d6:	0128                	.insn	2, 0x0128
    f5d8:	0222                	.insn	2, 0x0222
    f5da:	0112                	.insn	2, 0x0112
    f5dc:	023a                	.insn	2, 0x023a
    f5de:	0009                	.insn	2, 0x0009
    f5e0:	2c65                	.insn	2, 0x2c65
    f5e2:	023b023b          	.insn	4, 0x023b023b
    f5e6:	023d                	.insn	2, 0x023d
    f5e8:	2c66                	.insn	2, 0x2c66
    f5ea:	0240023f 02410241 	.insn	8, 0x024102410240023f
    f5f2:	0246                	.insn	2, 0x0246
    f5f4:	010a                	.insn	2, 0x010a
    f5f6:	00400253          	.insn	4, 0x00400253
    f5fa:	0181                	.insn	2, 0x0181
    f5fc:	0186                	.insn	2, 0x0186
    f5fe:	0255                	.insn	2, 0x0255
    f600:	0189                	.insn	2, 0x0189
    f602:	018a                	.insn	2, 0x018a
    f604:	0258                	.insn	2, 0x0258
    f606:	025a018f          	.insn	4, 0x025a018f
    f60a:	0190                	.insn	2, 0x0190
    f60c:	025c                	.insn	2, 0x025c
    f60e:	025d                	.insn	2, 0x025d
    f610:	025e                	.insn	2, 0x025e
    f612:	025f 0193 0261      	.insn	6, 0x02610193025f
    f618:	0262                	.insn	2, 0x0262
    f61a:	0194                	.insn	2, 0x0194
    f61c:	0264                	.insn	2, 0x0264
    f61e:	0265                	.insn	2, 0x0265
    f620:	0266                	.insn	2, 0x0266
    f622:	01970267          	jalr	x4,25(x14) # 80019 <_ebss+0x6d569>
    f626:	0196                	.insn	2, 0x0196
    f628:	026a                	.insn	2, 0x026a
    f62a:	2c62                	.insn	2, 0x2c62
    f62c:	026c                	.insn	2, 0x026c
    f62e:	026d                	.insn	2, 0x026d
    f630:	026e                	.insn	2, 0x026e
    f632:	019c                	.insn	2, 0x019c
    f634:	0270                	.insn	2, 0x0270
    f636:	0271                	.insn	2, 0x0271
    f638:	019d                	.insn	2, 0x019d
    f63a:	02740273          	.insn	4, 0x02740273
    f63e:	019f 0276 0277      	.insn	6, 0x02770276019f
    f644:	0278                	.insn	2, 0x0278
    f646:	0279                	.insn	2, 0x0279
    f648:	027a                	.insn	2, 0x027a
    f64a:	027c027b          	.insn	4, 0x027c027b
    f64e:	2c64                	.insn	2, 0x2c64
    f650:	027e                	.insn	2, 0x027e
    f652:	027f 01a6 0281 0282 	.insn	10, 0x01a90282028101a6027f
    f65a:	01a9 
    f65c:	0284                	.insn	2, 0x0284
    f65e:	0285                	.insn	2, 0x0285
    f660:	0286                	.insn	2, 0x0286
    f662:	01ae0287          	.insn	4, 0x01ae0287
    f666:	0244                	.insn	2, 0x0244
    f668:	01b1                	.insn	2, 0x01b1
    f66a:	01b2                	.insn	2, 0x01b2
    f66c:	0245                	.insn	2, 0x0245
    f66e:	028d                	.insn	2, 0x028d
    f670:	028e                	.insn	2, 0x028e
    f672:	0290028f          	.insn	4, 0x0290028f
    f676:	0291                	.insn	2, 0x0291
    f678:	037b01b7          	lui	x3,0x37b0
    f67c:	03fd0003          	lb	x0,63(x26)
    f680:	03fe                	.insn	2, 0x03fe
    f682:	03ff 03ac 0004 0386 	.insn	10, 0x03880386000403ac03ff
    f68a:	0388 
    f68c:	0389                	.insn	2, 0x0389
    f68e:	038a                	.insn	2, 0x038a
    f690:	03b1                	.insn	2, 0x03b1
    f692:	0311                	.insn	2, 0x0311
    f694:	03c2                	.insn	2, 0x03c2
    f696:	0002                	.insn	2, 0x0002
    f698:	03a303a3          	sb	x26,39(x6) # f8f525 <STACK_TOP+0xe8f525>
    f69c:	03c4                	.insn	2, 0x03c4
    f69e:	0308                	.insn	2, 0x0308
    f6a0:	03cc                	.insn	2, 0x03cc
    f6a2:	038c0003          	lb	x0,56(x24)
    f6a6:	038e                	.insn	2, 0x038e
    f6a8:	03d8038f          	.insn	4, 0x03d8038f
    f6ac:	0118                	.insn	2, 0x0118
    f6ae:	03f2                	.insn	2, 0x03f2
    f6b0:	000a                	.insn	2, 0x000a
    f6b2:	03f9                	.insn	2, 0x03f9
    f6b4:	03f403f3          	.insn	4, 0x03f403f3
    f6b8:	03f5                	.insn	2, 0x03f5
    f6ba:	03f6                	.insn	2, 0x03f6
    f6bc:	03f703f7          	.insn	4, 0x03f703f7
    f6c0:	03f9                	.insn	2, 0x03f9
    f6c2:	03fa                	.insn	2, 0x03fa
    f6c4:	03fa                	.insn	2, 0x03fa
    f6c6:	0430                	.insn	2, 0x0430
    f6c8:	0320                	.insn	2, 0x0320
    f6ca:	0450                	.insn	2, 0x0450
    f6cc:	0710                	.insn	2, 0x0710
    f6ce:	0460                	.insn	2, 0x0460
    f6d0:	0122                	.insn	2, 0x0122
    f6d2:	048a                	.insn	2, 0x048a
    f6d4:	0136                	.insn	2, 0x0136
    f6d6:	04c1                	.insn	2, 0x04c1
    f6d8:	010e                	.insn	2, 0x010e
    f6da:	000104cf          	.insn	4, 0x000104cf
    f6de:	04c0                	.insn	2, 0x04c0
    f6e0:	04d0                	.insn	2, 0x04d0
    f6e2:	0144                	.insn	2, 0x0144
    f6e4:	0561                	.insn	2, 0x0561
    f6e6:	0426                	.insn	2, 0x0426
	...

Disassembly of section .srodata.cst8:

0000f6f0 <.srodata.cst8>:
    f6f0:	0000                	.insn	2, 0x
    f6f2:	0000                	.insn	2, 0x
    f6f4:	0000                	.insn	2, 0x
    f6f6:	4024                	.insn	2, 0x4024
    f6f8:	0000                	.insn	2, 0x
    f6fa:	0000                	.insn	2, 0x
    f6fc:	6a00                	.insn	2, 0x6a00
    f6fe:	40f8                	.insn	2, 0x40f8
    f700:	0000                	.insn	2, 0x
    f702:	0000                	.insn	2, 0x
    f704:	0000                	.insn	2, 0x
    f706:	3ff0                	.insn	2, 0x3ff0
    f708:	68f1                	.insn	2, 0x68f1
    f70a:	f8b588e3          	beq	x11,x11,f69a <cvt1.1+0x1a2>
    f70e:	3ee4                	.insn	2, 0x3ee4
    f710:	ffff                	.insn	2, 0xffff
    f712:	ffff                	.insn	2, 0xffff
    f714:	ffff                	.insn	2, 0xffff
    f716:	00007fef          	jal	x31,16716 <_ebss+0x3c66>
    f71a:	0000                	.insn	2, 0x
    f71c:	0000                	.insn	2, 0x
    f71e:	3fe0                	.insn	2, 0x3fe0

Disassembly of section .eh_frame:

0000f720 <.eh_frame>:
    f720:	0010                	.insn	2, 0x0010
    f722:	0000                	.insn	2, 0x
    f724:	0000                	.insn	2, 0x
    f726:	0000                	.insn	2, 0x
    f728:	00527a03          	.insn	4, 0x00527a03
    f72c:	7c01                	.insn	2, 0x7c01
    f72e:	0101                	.insn	2, 0x0101
    f730:	00020d1b          	.insn	4, 0x00020d1b
    f734:	00d8                	.insn	2, 0x00d8
    f736:	0000                	.insn	2, 0x
    f738:	0018                	.insn	2, 0x0018
    f73a:	0000                	.insn	2, 0x
    f73c:	bf1c                	.insn	2, 0xbf1c
    f73e:	ffff                	.insn	2, 0xffff
    f740:	06ac                	.insn	2, 0x06ac
    f742:	0000                	.insn	2, 0x
    f744:	4400                	.insn	2, 0x4400
    f746:	300e                	.insn	2, 0x300e
    f748:	934c                	.insn	2, 0x934c
    f74a:	8105                	.insn	2, 0x8105
    f74c:	9601                	.insn	2, 0x9601
    f74e:	5c08                	.insn	2, 0x5c08
    f750:	0288                	.insn	2, 0x0288
    f752:	0795                	.insn	2, 0x0795
    f754:	0389                	.insn	2, 0x0389
    f756:	0492                	.insn	2, 0x0492
    f758:	0694                	.insn	2, 0x0694
    f75a:	c8012c03          	lw	x24,-896(x2)
    f75e:	c144                	.insn	2, 0xc144
    f760:	c944                	.insn	2, 0xc944
    f762:	d244                	.insn	2, 0xd244
    f764:	d444                	.insn	2, 0xd444
    f766:	d544                	.insn	2, 0xd544
    f768:	d344                	.insn	2, 0xd344
    f76a:	d648                	.insn	2, 0xd648
    f76c:	0e44                	.insn	2, 0x0e44
    f76e:	4400                	.insn	2, 0x4400
    f770:	300e                	.insn	2, 0x300e
    f772:	0181                	.insn	2, 0x0181
    f774:	08960593          	add	x11,x12,137
    f778:	0a50                	.insn	2, 0x0a50
    f77a:	44c1                	.insn	2, 0x44c1
    f77c:	44d648d3          	.insn	4, 0x44d648d3
    f780:	000e                	.insn	2, 0x000e
    f782:	0b44                	.insn	2, 0x0b44
    f784:	5002                	.insn	2, 0x5002
    f786:	0288                	.insn	2, 0x0288
    f788:	0389                	.insn	2, 0x0389
    f78a:	0492                	.insn	2, 0x0492
    f78c:	0694                	.insn	2, 0x0694
    f78e:	0795                	.insn	2, 0x0795
    f790:	97014c03          	lbu	x24,-1680(x2)
    f794:	0209                	.insn	2, 0x0209
    f796:	d7e0                	.insn	2, 0xd7e0
    f798:	c844                	.insn	2, 0xc844
    f79a:	d2c9                	.insn	2, 0xd2c9
    f79c:	d5d4                	.insn	2, 0xd5d4
    f79e:	9978                	.insn	2, 0x9978
    f7a0:	0795500b          	.insn	4, 0x0795500b
    f7a4:	985c0997          	auipc	x19,0x985c0
    f7a8:	500a                	.insn	2, 0x500a
    f7aa:	0288                	.insn	2, 0x0288
    f7ac:	0389                	.insn	2, 0x0389
    f7ae:	0492                	.insn	2, 0x0492
    f7b0:	944c                	.insn	2, 0x944c
    f7b2:	0306                	.insn	2, 0x0306
    f7b4:	013c                	.insn	2, 0x013c
    f7b6:	44c8                	.insn	2, 0x44c8
    f7b8:	48c1                	.insn	2, 0x48c1
    f7ba:	44c9                	.insn	2, 0x44c9
    f7bc:	44d2                	.insn	2, 0x44d2
    f7be:	44d4                	.insn	2, 0x44d4
    f7c0:	44d5                	.insn	2, 0x44d5
    f7c2:	44d844d7          	.insn	4, 0x44d844d7
    f7c6:	44d9                	.insn	2, 0x44d9
    f7c8:	44d648d3          	.insn	4, 0x44d648d3
    f7cc:	000e                	.insn	2, 0x000e
    f7ce:	0e44                	.insn	2, 0x0e44
    f7d0:	8130                	.insn	2, 0x8130
    f7d2:	8801                	.insn	2, 0x8801
    f7d4:	8902                	.insn	2, 0x8902
    f7d6:	93049203          	lh	x4,-1744(x9)
    f7da:	9405                	.insn	2, 0x9405
    f7dc:	9506                	.insn	2, 0x9506
    f7de:	48089607          	.insn	4, 0x48089607
    f7e2:	0a980997          	auipc	x19,0xa980
    f7e6:	0b99                	.insn	2, 0x0b99
    f7e8:	d768                	.insn	2, 0xd768
    f7ea:	d9d8                	.insn	2, 0xd9d8
    f7ec:	c854                	.insn	2, 0xc854
    f7ee:	d2c9                	.insn	2, 0xd2c9
    f7f0:	d5d4                	.insn	2, 0xd5d4
    f7f2:	884c                	.insn	2, 0x884c
    f7f4:	8902                	.insn	2, 0x8902
    f7f6:	94049203          	lh	x4,-1728(x9)
    f7fa:	9506                	.insn	2, 0x9506
    f7fc:	48099707          	.insn	4, 0x48099707
    f800:	0a98                	.insn	2, 0x0a98
    f802:	0b99                	.insn	2, 0x0b99
    f804:	d848                	.insn	2, 0xd848
    f806:	48d9                	.insn	2, 0x48d9
    f808:	0a98                	.insn	2, 0x0a98
    f80a:	0b99                	.insn	2, 0x0b99
    f80c:	d748                	.insn	2, 0xd748
    f80e:	d9d8                	.insn	2, 0xd9d8
    f810:	00c8                	.insn	2, 0x00c8
    f812:	0000                	.insn	2, 0x
    f814:	00f4                	.insn	2, 0x00f4
    f816:	0000                	.insn	2, 0x
    f818:	c4ec                	.insn	2, 0xc4ec
    f81a:	ffff                	.insn	2, 0xffff
    f81c:	0658                	.insn	2, 0x0658
    f81e:	0000                	.insn	2, 0x
    f820:	4400                	.insn	2, 0x4400
    f822:	300e                	.insn	2, 0x300e
    f824:	8148                	.insn	2, 0x8148
    f826:	5c01                	.insn	2, 0x5c01
    f828:	0492                	.insn	2, 0x0492
    f82a:	0694                	.insn	2, 0x0694
    f82c:	0288                	.insn	2, 0x0288
    f82e:	0389                	.insn	2, 0x0389
    f830:	07950593          	add	x11,x10,121
    f834:	9658                	.insn	2, 0x9658
    f836:	0308                	.insn	2, 0x0308
    f838:	00e8                	.insn	2, 0x00e8
    f83a:	4cd6                	.insn	2, 0x4cd6
    f83c:	44c8                	.insn	2, 0x44c8
    f83e:	44c9                	.insn	2, 0x44c9
    f840:	44d2                	.insn	2, 0x44d2
    f842:	44d444d3          	.insn	4, 0x44d444d3
    f846:	48d5                	.insn	2, 0x48d5
    f848:	c10a                	.insn	2, 0xc10a
    f84a:	0e44                	.insn	2, 0x0e44
    f84c:	4400                	.insn	2, 0x4400
    f84e:	0492580b          	.insn	4, 0x0492580b
    f852:	54020593          	add	x11,x4,1344 # 540 <save_option+0x84>
    f856:	44c1                	.insn	2, 0x44c1
    f858:	44d2                	.insn	2, 0x44d2
    f85a:	000e4cd3          	.insn	4, 0x000e4cd3
    f85e:	0e44                	.insn	2, 0x0e44
    f860:	8130                	.insn	2, 0x8130
    f862:	8801                	.insn	2, 0x8801
    f864:	8902                	.insn	2, 0x8902
    f866:	93049203          	lh	x4,-1744(x9)
    f86a:	9405                	.insn	2, 0x9405
    f86c:	9506                	.insn	2, 0x9506
    f86e:	96e40207          	.insn	4, 0x96e40207
    f872:	5008                	.insn	2, 0x5008
    f874:	74d6                	.insn	2, 0x74d6
    f876:	96680997          	auipc	x19,0x96680
    f87a:	0208                	.insn	2, 0x0208
    f87c:	d794                	.insn	2, 0xd794
    f87e:	d644                	.insn	2, 0xd644
    f880:	c844                	.insn	2, 0xc844
    f882:	d4c9                	.insn	2, 0xd4c9
    f884:	78d5                	.insn	2, 0x78d5
    f886:	0795                	.insn	2, 0x0795
    f888:	9750                	.insn	2, 0x9750
    f88a:	9a09                	.insn	2, 0x9a09
    f88c:	5c0c                	.insn	2, 0x5c0c
    f88e:	0b99                	.insn	2, 0x0b99
    f890:	884c                	.insn	2, 0x884c
    f892:	8902                	.insn	2, 0x8902
    f894:	06945003          	lhu	x0,105(x8)
    f898:	0896                	.insn	2, 0x0896
    f89a:	9848                	.insn	2, 0x9848
    f89c:	030a                	.insn	2, 0x030a
    f89e:	0158                	.insn	2, 0x0158
    f8a0:	c80a                	.insn	2, 0xc80a
    f8a2:	c144                	.insn	2, 0xc144
    f8a4:	c954                	.insn	2, 0xc954
    f8a6:	d344                	.insn	2, 0xd344
    f8a8:	d444                	.insn	2, 0xd444
    f8aa:	d544                	.insn	2, 0xd544
    f8ac:	d644                	.insn	2, 0xd644
    f8ae:	d744                	.insn	2, 0xd744
    f8b0:	d844                	.insn	2, 0xd844
    f8b2:	d944                	.insn	2, 0xd944
    f8b4:	da44                	.insn	2, 0xda44
    f8b6:	d24c                	.insn	2, 0xd24c
    f8b8:	0e44                	.insn	2, 0x0e44
    f8ba:	4400                	.insn	2, 0x4400
    f8bc:	d7d65c0b          	.insn	4, 0xd7d65c0b
    f8c0:	d9d8                	.insn	2, 0xd9d8
    f8c2:	54da                	.insn	2, 0x54da
    f8c4:	0896                	.insn	2, 0x0896
    f8c6:	0a980997          	auipc	x19,0xa980
    f8ca:	0b99                	.insn	2, 0x0b99
    f8cc:	0c9a                	.insn	2, 0x0c9a
    f8ce:	d750                	.insn	2, 0xd750
    f8d0:	d9d8                	.insn	2, 0xd9d8
    f8d2:	48da                	.insn	2, 0x48da
    f8d4:	48d6                	.insn	2, 0x48d6
    f8d6:	0896                	.insn	2, 0x0896
    f8d8:	d648                	.insn	2, 0xd648
	...

Disassembly of section .rodata.__divdf3:

0000f8dc <.rodata.__divdf3>:
    f8dc:	d65c                	.insn	2, 0xd65c
    f8de:	ffff                	.insn	2, 0xffff
    f8e0:	d508                	.insn	2, 0xd508
    f8e2:	ffff                	.insn	2, 0xffff
    f8e4:	d4b4                	.insn	2, 0xd4b4
    f8e6:	ffff                	.insn	2, 0xffff
    f8e8:	d608                	.insn	2, 0xd608
    f8ea:	ffff                	.insn	2, 0xffff
    f8ec:	d4b4                	.insn	2, 0xd4b4
    f8ee:	ffff                	.insn	2, 0xffff
    f8f0:	d518                	.insn	2, 0xd518
    f8f2:	ffff                	.insn	2, 0xffff
    f8f4:	d4b4                	.insn	2, 0xd4b4
    f8f6:	ffff                	.insn	2, 0xffff
    f8f8:	d608                	.insn	2, 0xd608
    f8fa:	ffff                	.insn	2, 0xffff
    f8fc:	d508                	.insn	2, 0xd508
    f8fe:	ffff                	.insn	2, 0xffff
    f900:	d508                	.insn	2, 0xd508
    f902:	ffff                	.insn	2, 0xffff
    f904:	d518                	.insn	2, 0xd518
    f906:	ffff                	.insn	2, 0xffff
    f908:	d608                	.insn	2, 0xd608
    f90a:	ffff                	.insn	2, 0xffff
    f90c:	d594                	.insn	2, 0xd594
    f90e:	ffff                	.insn	2, 0xffff
    f910:	d594                	.insn	2, 0xd594
    f912:	ffff                	.insn	2, 0xffff
    f914:	d594                	.insn	2, 0xd594
    f916:	ffff                	.insn	2, 0xffff
    f918:	d518                	.insn	2, 0xd518
    f91a:	ffff                	.insn	2, 0xffff

Disassembly of section .rodata.__clz_tab:

0000f91c <__clz_tab>:
    f91c:	0100                	.insn	2, 0x0100
    f91e:	0202                	.insn	2, 0x0202
    f920:	03030303          	lb	x6,48(x6)
    f924:	0404                	.insn	2, 0x0404
    f926:	0404                	.insn	2, 0x0404
    f928:	0404                	.insn	2, 0x0404
    f92a:	0404                	.insn	2, 0x0404
    f92c:	0505                	.insn	2, 0x0505
    f92e:	0505                	.insn	2, 0x0505
    f930:	0505                	.insn	2, 0x0505
    f932:	0505                	.insn	2, 0x0505
    f934:	0505                	.insn	2, 0x0505
    f936:	0505                	.insn	2, 0x0505
    f938:	0505                	.insn	2, 0x0505
    f93a:	0505                	.insn	2, 0x0505
    f93c:	0606                	.insn	2, 0x0606
    f93e:	0606                	.insn	2, 0x0606
    f940:	0606                	.insn	2, 0x0606
    f942:	0606                	.insn	2, 0x0606
    f944:	0606                	.insn	2, 0x0606
    f946:	0606                	.insn	2, 0x0606
    f948:	0606                	.insn	2, 0x0606
    f94a:	0606                	.insn	2, 0x0606
    f94c:	0606                	.insn	2, 0x0606
    f94e:	0606                	.insn	2, 0x0606
    f950:	0606                	.insn	2, 0x0606
    f952:	0606                	.insn	2, 0x0606
    f954:	0606                	.insn	2, 0x0606
    f956:	0606                	.insn	2, 0x0606
    f958:	0606                	.insn	2, 0x0606
    f95a:	0606                	.insn	2, 0x0606
    f95c:	07070707          	.insn	4, 0x07070707
    f960:	07070707          	.insn	4, 0x07070707
    f964:	07070707          	.insn	4, 0x07070707
    f968:	07070707          	.insn	4, 0x07070707
    f96c:	07070707          	.insn	4, 0x07070707
    f970:	07070707          	.insn	4, 0x07070707
    f974:	07070707          	.insn	4, 0x07070707
    f978:	07070707          	.insn	4, 0x07070707
    f97c:	07070707          	.insn	4, 0x07070707
    f980:	07070707          	.insn	4, 0x07070707
    f984:	07070707          	.insn	4, 0x07070707
    f988:	07070707          	.insn	4, 0x07070707
    f98c:	07070707          	.insn	4, 0x07070707
    f990:	07070707          	.insn	4, 0x07070707
    f994:	07070707          	.insn	4, 0x07070707
    f998:	07070707          	.insn	4, 0x07070707
    f99c:	0808                	.insn	2, 0x0808
    f99e:	0808                	.insn	2, 0x0808
    f9a0:	0808                	.insn	2, 0x0808
    f9a2:	0808                	.insn	2, 0x0808
    f9a4:	0808                	.insn	2, 0x0808
    f9a6:	0808                	.insn	2, 0x0808
    f9a8:	0808                	.insn	2, 0x0808
    f9aa:	0808                	.insn	2, 0x0808
    f9ac:	0808                	.insn	2, 0x0808
    f9ae:	0808                	.insn	2, 0x0808
    f9b0:	0808                	.insn	2, 0x0808
    f9b2:	0808                	.insn	2, 0x0808
    f9b4:	0808                	.insn	2, 0x0808
    f9b6:	0808                	.insn	2, 0x0808
    f9b8:	0808                	.insn	2, 0x0808
    f9ba:	0808                	.insn	2, 0x0808
    f9bc:	0808                	.insn	2, 0x0808
    f9be:	0808                	.insn	2, 0x0808
    f9c0:	0808                	.insn	2, 0x0808
    f9c2:	0808                	.insn	2, 0x0808
    f9c4:	0808                	.insn	2, 0x0808
    f9c6:	0808                	.insn	2, 0x0808
    f9c8:	0808                	.insn	2, 0x0808
    f9ca:	0808                	.insn	2, 0x0808
    f9cc:	0808                	.insn	2, 0x0808
    f9ce:	0808                	.insn	2, 0x0808
    f9d0:	0808                	.insn	2, 0x0808
    f9d2:	0808                	.insn	2, 0x0808
    f9d4:	0808                	.insn	2, 0x0808
    f9d6:	0808                	.insn	2, 0x0808
    f9d8:	0808                	.insn	2, 0x0808
    f9da:	0808                	.insn	2, 0x0808
    f9dc:	0808                	.insn	2, 0x0808
    f9de:	0808                	.insn	2, 0x0808
    f9e0:	0808                	.insn	2, 0x0808
    f9e2:	0808                	.insn	2, 0x0808
    f9e4:	0808                	.insn	2, 0x0808
    f9e6:	0808                	.insn	2, 0x0808
    f9e8:	0808                	.insn	2, 0x0808
    f9ea:	0808                	.insn	2, 0x0808
    f9ec:	0808                	.insn	2, 0x0808
    f9ee:	0808                	.insn	2, 0x0808
    f9f0:	0808                	.insn	2, 0x0808
    f9f2:	0808                	.insn	2, 0x0808
    f9f4:	0808                	.insn	2, 0x0808
    f9f6:	0808                	.insn	2, 0x0808
    f9f8:	0808                	.insn	2, 0x0808
    f9fa:	0808                	.insn	2, 0x0808
    f9fc:	0808                	.insn	2, 0x0808
    f9fe:	0808                	.insn	2, 0x0808
    fa00:	0808                	.insn	2, 0x0808
    fa02:	0808                	.insn	2, 0x0808
    fa04:	0808                	.insn	2, 0x0808
    fa06:	0808                	.insn	2, 0x0808
    fa08:	0808                	.insn	2, 0x0808
    fa0a:	0808                	.insn	2, 0x0808
    fa0c:	0808                	.insn	2, 0x0808
    fa0e:	0808                	.insn	2, 0x0808
    fa10:	0808                	.insn	2, 0x0808
    fa12:	0808                	.insn	2, 0x0808
    fa14:	0808                	.insn	2, 0x0808
    fa16:	0808                	.insn	2, 0x0808
    fa18:	0808                	.insn	2, 0x0808
    fa1a:	0808                	.insn	2, 0x0808

Disassembly of section .data:

0000fa1c <option_osd_key>:
    fa1c:	0002                	.insn	2, 0x0002
	...

0000fa20 <SNES_BSRAM>:
    fa20:	0000                	.insn	2, 0x
    fa22:	0700                	.insn	2, 0x0700

Disassembly of section .riscv.attributes:

00000000 <.riscv.attributes>:
   0:	1b41                	.insn	2, 0x1b41
   2:	0000                	.insn	2, 0x
   4:	7200                	.insn	2, 0x7200
   6:	7369                	.insn	2, 0x7369
   8:	01007663          	bgeu	x0,x16,14 <_start+0x14>
   c:	0011                	.insn	2, 0x0011
   e:	0000                	.insn	2, 0x
  10:	1004                	.insn	2, 0x1004
  12:	7205                	.insn	2, 0x7205
  14:	3376                	.insn	2, 0x3376
  16:	6932                	.insn	2, 0x6932
  18:	7032                	.insn	2, 0x7032
  1a:	0031                	.insn	2, 0x0031

Disassembly of section .comment:

00000000 <.comment>:
   0:	3a434347          	.insn	4, 0x3a434347
   4:	2820                	.insn	2, 0x2820
   6:	5078                	.insn	2, 0x5078
   8:	6361                	.insn	2, 0x6361
   a:	4e47206b          	.insn	4, 0x4e47206b
   e:	2055                	.insn	2, 0x2055
  10:	4952                	.insn	2, 0x4952
  12:	562d4353          	.insn	4, 0x562d4353
  16:	4520                	.insn	2, 0x4520
  18:	626d                	.insn	2, 0x626d
  1a:	6465                	.insn	2, 0x6465
  1c:	6564                	.insn	2, 0x6564
  1e:	2064                	.insn	2, 0x2064
  20:	20434347          	.insn	4, 0x20434347
  24:	3878                	.insn	2, 0x3878
  26:	5f36                	.insn	2, 0x5f36
  28:	3436                	.insn	2, 0x3436
  2a:	2029                	.insn	2, 0x2029
  2c:	3331                	.insn	2, 0x3331
  2e:	322e                	.insn	2, 0x322e
  30:	302e                	.insn	2, 0x302e
	...
